ccopy_reg
_reconstructor
p0
(cnltk.classify.decisiontree
DecisionTreeClassifier
p1
c__builtin__
object
p2
Ntp3
Rp4
(dp5
S'_fname'
p6
S'word'
p7
sS'_label'
p8
S'pos'
p9
sS'_decisions'
p10
(dp11
S'aided'
p12
g0
(g1
g2
Ntp13
Rp14
(dp15
g6
Nsg8
S'neg'
p16
sg10
NsS'_default'
p17
NsbsS'gadhafi'
p18
g0
(g1
g2
Ntp19
Rp20
(dp21
g6
Nsg8
g16
sg10
Nsg17
NsbsS'limited'
p22
g0
(g1
g2
Ntp23
Rp24
(dp25
g6
Nsg8
g16
sg10
Nsg17
NsbsS'mccaffrey'
p26
g0
(g1
g2
Ntp27
Rp28
(dp29
g6
Nsg8
g9
sg10
Nsg17
NsbsS'dynamic'
p30
g0
(g1
g2
Ntp31
Rp32
(dp33
g6
Nsg8
g16
sg10
Nsg17
NsbsS'yellow'
p34
g0
(g1
g2
Ntp35
Rp36
(dp37
g6
Nsg8
g16
sg10
Nsg17
NsbsS'sichuan'
p38
g0
(g1
g2
Ntp39
Rp40
(dp41
g6
Nsg8
g9
sg10
Nsg17
NsbsS'facilities'
p42
g0
(g1
g2
Ntp43
Rp44
(dp45
g6
Nsg8
g16
sg10
Nsg17
NsbsS'protest'
p46
g0
(g1
g2
Ntp47
Rp48
(dp49
g6
Nsg8
g16
sg10
Nsg17
NsbsS'khanun'
p50
g0
(g1
g2
Ntp51
Rp52
(dp53
g6
Nsg8
g9
sg10
Nsg17
NsbsS'likerecommendconfirmyou'
p54
g0
(g1
g2
Ntp55
Rp56
(dp57
g6
Nsg8
g16
sg10
Nsg17
NsbsS'votes'
p58
g0
(g1
g2
Ntp59
Rp60
(dp61
g6
Nsg8
g16
sg10
Nsg17
NsbsS'therapeutics'
p62
g0
(g1
g2
Ntp63
Rp64
(dp65
g6
Nsg8
g16
sg10
Nsg17
NsbsS'chinese'
p66
g0
(g1
g2
Ntp67
Rp68
(dp69
g6
Nsg8
g9
sg10
Nsg17
NsbsS'aug'
p70
g0
(g1
g2
Ntp71
Rp72
(dp73
g6
Nsg8
g16
sg10
Nsg17
NsbsS'electricity'
p74
g0
(g1
g2
Ntp75
Rp76
(dp77
g6
Nsg8
g16
sg10
Nsg17
NsbsS'jianguo'
p78
g0
(g1
g2
Ntp79
Rp80
(dp81
g6
Nsg8
g9
sg10
Nsg17
NsbsS'swap'
p82
g0
(g1
g2
Ntp83
Rp84
(dp85
g6
Nsg8
g16
sg10
Nsg17
NsbsS'popola'
p86
g0
(g1
g2
Ntp87
Rp88
(dp89
g6
Nsg8
g9
sg10
Nsg17
NsbsS'pact'
p90
g0
(g1
g2
Ntp91
Rp92
(dp93
g6
Nsg8
g16
sg10
Nsg17
NsbsS'updated'
p94
g0
(g1
g2
Ntp95
Rp96
(dp97
g6
Nsg8
g16
sg10
Nsg17
NsbsS'risk'
p98
g0
(g1
g2
Ntp99
Rp100
(dp101
g6
Nsg8
g16
sg10
Nsg17
NsbsS'rise'
p102
g0
(g1
g2
Ntp103
Rp104
(dp105
g6
Nsg8
g16
sg10
Nsg17
NsbsS'updates'
p106
g0
(g1
g2
Ntp107
Rp108
(dp109
g6
Nsg8
g16
sg10
Nsg17
NsbsS'reforms'
p110
g0
(g1
g2
Ntp111
Rp112
(dp113
g6
Nsg8
g9
sg10
Nsg17
NsbsS'school'
p114
g0
(g1
g2
Ntp115
Rp116
(dp117
g6
Nsg8
g16
sg10
Nsg17
NsbsS'crops'
p118
g0
(g1
g2
Ntp119
Rp120
(dp121
g6
Nsg8
g9
sg10
Nsg17
NsbsS'pinch'
p122
g0
(g1
g2
Ntp123
Rp124
(dp125
g6
Nsg8
g16
sg10
Nsg17
NsbsS'synergy'
p126
g0
(g1
g2
Ntp127
Rp128
(dp129
g6
Nsg8
g16
sg10
Nsg17
NsbsS'elevance'
p130
g0
(g1
g2
Ntp131
Rp132
(dp133
g6
Nsg8
g16
sg10
Nsg17
NsbsS'companies'
p134
g0
(g1
g2
Ntp135
Rp136
(dp137
g6
Nsg8
g16
sg10
Nsg17
NsbsS'solution'
p138
g0
(g1
g2
Ntp139
Rp140
(dp141
g6
Nsg8
g16
sg10
Nsg17
NsbsS'monsanto'
p142
g0
(g1
g2
Ntp143
Rp144
(dp145
g6
Nsg8
g16
sg10
Nsg17
NsbsS'red'
p146
g0
(g1
g2
Ntp147
Rp148
(dp149
g6
Nsg8
g16
sg10
Nsg17
NsbsS'socialist'
p150
g0
(g1
g2
Ntp151
Rp152
(dp153
g6
Nsg8
g16
sg10
Nsg17
NsbsS'tirec'
p154
g0
(g1
g2
Ntp155
Rp156
(dp157
g6
Nsg8
g16
sg10
Nsg17
NsbsS'disclose'
p158
g0
(g1
g2
Ntp159
Rp160
(dp161
g6
Nsg8
g16
sg10
Nsg17
NsbsS'leaders'
p162
g0
(g1
g2
Ntp163
Rp164
(dp165
g6
Nsg8
g16
sg10
Nsg17
NsbsS'miller'
p166
g0
(g1
g2
Ntp167
Rp168
(dp169
g6
Nsg8
g16
sg10
Nsg17
NsbsS'warns'
p170
g0
(g1
g2
Ntp171
Rp172
(dp173
g6
Nsg8
g16
sg10
Nsg17
NsbsS'guidelines'
p174
g0
(g1
g2
Ntp175
Rp176
(dp177
g6
Nsg8
g9
sg10
Nsg17
NsbsS'direct'
p178
g0
(g1
g2
Ntp179
Rp180
(dp181
g6
Nsg8
g9
sg10
Nsg17
NsbsS'street'
p182
g0
(g1
g2
Ntp183
Rp184
(dp185
g6
Nsg8
g16
sg10
Nsg17
NsbsS'blue'
p186
g0
(g1
g2
Ntp187
Rp188
(dp189
g6
Nsg8
g16
sg10
Nsg17
NsbsS'redistributed'
p190
g0
(g1
g2
Ntp191
Rp192
(dp193
g6
Nsg8
g9
sg10
Nsg17
NsbsS'hide'
p194
g0
(g1
g2
Ntp195
Rp196
(dp197
g6
Nsg8
g16
sg10
Nsg17
NsbsS'preferences'
p198
g0
(g1
g2
Ntp199
Rp200
(dp201
g6
Nsg8
g16
sg10
Nsg17
NsbsS'supplied'
p202
g0
(g1
g2
Ntp203
Rp204
(dp205
g6
Nsg8
g16
sg10
Nsg17
NsbsS'fossil'
p206
g0
(g1
g2
Ntp207
Rp208
(dp209
g6
Nsg8
g9
sg10
Nsg17
NsbsS'supplies'
p210
g0
(g1
g2
Ntp211
Rp212
(dp213
g6
Nsg8
g9
sg10
Nsg17
NsbsS'tips'
p214
g0
(g1
g2
Ntp215
Rp216
(dp217
g6
Nsg8
g16
sg10
Nsg17
NsbsS'told'
p218
g0
(g1
g2
Ntp219
Rp220
(dp221
g6
Nsg8
g16
sg10
Nsg17
NsbsS'statehood'
p222
g0
(g1
g2
Ntp223
Rp224
(dp225
g6
Nsg8
g16
sg10
Nsg17
NsbsS'men'
p226
g0
(g1
g2
Ntp227
Rp228
(dp229
g6
Nsg8
g16
sg10
Nsg17
NsbsS'affiliates'
p230
g0
(g1
g2
Ntp231
Rp232
(dp233
g6
Nsg8
g16
sg10
Nsg17
NsbsS'hundreds'
p234
g0
(g1
g2
Ntp235
Rp236
(dp237
g6
Nsg8
g9
sg10
Nsg17
NsbsS'reported'
p238
g0
(g1
g2
Ntp239
Rp240
(dp241
g6
Nsg8
g9
sg10
Nsg17
NsbsS'protection'
p242
g0
(g1
g2
Ntp243
Rp244
(dp245
g6
Nsg8
g9
sg10
Nsg17
NsbsS'ethanol'
p246
g0
(g1
g2
Ntp247
Rp248
(dp249
g6
Nsg8
g16
sg10
Nsg17
NsbsS'koreapakistanrussiasomaliasouth'
p250
g0
(g1
g2
Ntp251
Rp252
(dp253
g6
Nsg8
g9
sg10
Nsg17
NsbsS'celebration'
p254
g0
(g1
g2
Ntp255
Rp256
(dp257
g6
Nsg8
g16
sg10
Nsg17
NsbsS'rcsc'
p258
g0
(g1
g2
Ntp259
Rp260
(dp261
g6
Nsg8
g16
sg10
Nsg17
NsbsS'items'
p262
g0
(g1
g2
Ntp263
Rp264
(dp265
g6
Nsg8
g9
sg10
Nsg17
NsbsS'study'
p266
g0
(g1
g2
Ntp267
Rp268
(dp269
g6
Nsg8
g16
sg10
Nsg17
NsbsS'icons'
p270
g0
(g1
g2
Ntp271
Rp272
(dp273
g6
Nsg8
g16
sg10
Nsg17
NsbsS'reports'
p274
g0
(g1
g2
Ntp275
Rp276
(dp277
g6
Nsg8
g9
sg10
Nsg17
NsbsS'paris'
p278
g0
(g1
g2
Ntp279
Rp280
(dp281
g6
Nsg8
g16
sg10
Nsg17
NsbsS'military'
p282
g0
(g1
g2
Ntp283
Rp284
(dp285
g6
Nsg8
g16
sg10
Nsg17
NsbsS'tweet'
p286
g0
(g1
g2
Ntp287
Rp288
(dp289
g6
Nsg8
g9
sg10
Nsg17
NsbsS'millimetres'
p290
g0
(g1
g2
Ntp291
Rp292
(dp293
g6
Nsg8
g9
sg10
Nsg17
NsbsS'campaign'
p294
g0
(g1
g2
Ntp295
Rp296
(dp297
g6
Nsg8
g16
sg10
Nsg17
NsbsS'county'
p298
g0
(g1
g2
Ntp299
Rp300
(dp301
g6
Nsg8
g9
sg10
Nsg17
NsbsS'visible'
p302
g0
(g1
g2
Ntp303
Rp304
(dp305
g6
Nsg8
g16
sg10
Nsg17
NsbsS'pataudi'
p306
g0
(g1
g2
Ntp307
Rp308
(dp309
g6
Nsg8
g16
sg10
Nsg17
NsbsS'opportunities'
p310
g0
(g1
g2
Ntp311
Rp312
(dp313
g6
Nsg8
g16
sg10
Nsg17
NsbsS'soybean'
p314
g0
(g1
g2
Ntp315
Rp316
(dp317
g6
Nsg8
g16
sg10
Nsg17
NsbsS'total'
p318
g0
(g1
g2
Ntp319
Rp320
(dp321
g6
Nsg8
g16
sg10
Nsg17
NsbsS'unit'
p322
g0
(g1
g2
Ntp323
Rp324
(dp325
g6
Nsg8
g16
sg10
Nsg17
NsbsS'sarah'
p326
g0
(g1
g2
Ntp327
Rp328
(dp329
g6
Nsg8
g16
sg10
Nsg17
NsbsS'voters'
p330
g0
(g1
g2
Ntp331
Rp332
(dp333
g6
Nsg8
g16
sg10
Nsg17
NsbsS'arms'
p334
g0
(g1
g2
Ntp335
Rp336
(dp337
g6
Nsg8
g16
sg10
Nsg17
NsbsS'plog'
p338
g0
(g1
g2
Ntp339
Rp340
(dp341
g6
Nsg8
g16
sg10
Nsg17
NsbsS'music'
p342
g0
(g1
g2
Ntp343
Rp344
(dp345
g6
Nsg8
g16
sg10
Nsg17
NsbsS'telegraph'
p346
g0
(g1
g2
Ntp347
Rp348
(dp349
g6
Nsg8
g9
sg10
Nsg17
NsbsS'recommend'
p350
g0
(g1
g2
Ntp351
Rp352
(dp353
g6
Nsg8
g16
sg10
Nsg17
NsbsS'survive'
p354
g0
(g1
g2
Ntp355
Rp356
(dp357
g6
Nsg8
g16
sg10
Nsg17
NsbsS'preview'
p358
g0
(g1
g2
Ntp359
Rp360
(dp361
g6
Nsg8
g16
sg10
Nsg17
NsbsS'assessment'
p362
g0
(g1
g2
Ntp363
Rp364
(dp365
g6
Nsg8
g16
sg10
Nsg17
NsbsS'billowing'
p366
g0
(g1
g2
Ntp367
Rp368
(dp369
g6
Nsg8
g9
sg10
Nsg17
NsbsS'phone'
p370
g0
(g1
g2
Ntp371
Rp372
(dp373
g6
Nsg8
g16
sg10
Nsg17
NsbsS'hold'
p374
g0
(g1
g2
Ntp375
Rp376
(dp377
g6
Nsg8
g16
sg10
Nsg17
NsbsS'kumar'
p378
g0
(g1
g2
Ntp379
Rp380
(dp381
g6
Nsg8
g16
sg10
Nsg17
NsbsS'mg'
p382
g0
(g1
g2
Ntp383
Rp384
(dp385
g6
Nsg8
g9
sg10
Nsg17
NsbsS'join'
p386
g0
(g1
g2
Ntp387
Rp388
(dp389
g6
Nsg8
g16
sg10
Nsg17
NsbsS'taihu'
p390
g0
(g1
g2
Ntp391
Rp392
(dp393
g6
Nsg8
g9
sg10
Nsg17
NsbsS'mm'
p394
g0
(g1
g2
Ntp395
Rp396
(dp397
g6
Nsg8
g9
sg10
Nsg17
NsbsS'midwest'
p398
g0
(g1
g2
Ntp399
Rp400
(dp401
g6
Nsg8
g16
sg10
Nsg17
NsbsS'work'
p402
g0
(g1
g2
Ntp403
Rp404
(dp405
g6
Nsg8
g9
sg10
Nsg17
NsbsS'camry'
p406
g0
(g1
g2
Ntp407
Rp408
(dp409
g6
Nsg8
g16
sg10
Nsg17
NsbsS'estate'
p410
g0
(g1
g2
Ntp411
Rp412
(dp413
g6
Nsg8
g16
sg10
Nsg17
NsbsS'give'
p414
g0
(g1
g2
Ntp415
Rp416
(dp417
g6
Nsg8
g9
sg10
Nsg17
NsbsS'india'
p418
g0
(g1
g2
Ntp419
Rp420
(dp421
g6
Nsg8
g16
sg10
Nsg17
NsbsS'dailymotion'
p422
g0
(g1
g2
Ntp423
Rp424
(dp425
g6
Nsg8
g16
sg10
Nsg17
NsbsS'currency'
p426
g0
(g1
g2
Ntp427
Rp428
(dp429
g6
Nsg8
g16
sg10
Nsg17
NsbsS'foods'
p430
g0
(g1
g2
Ntp431
Rp432
(dp433
g6
Nsg8
g16
sg10
Nsg17
NsbsS'scrollbars'
p434
g0
(g1
g2
Ntp435
Rp436
(dp437
g6
Nsg8
g16
sg10
Nsg17
NsbsS'worse'
p438
g0
(g1
g2
Ntp439
Rp440
(dp441
g6
Nsg8
g16
sg10
Nsg17
NsbsS'provincial'
p442
g0
(g1
g2
Ntp443
Rp444
(dp445
g6
Nsg8
g9
sg10
Nsg17
NsbsS'tornadoes'
p446
g0
(g1
g2
Ntp447
Rp448
(dp449
g6
Nsg8
g16
sg10
Nsg17
NsbsS'end'
p450
g0
(g1
g2
Ntp451
Rp452
(dp453
g6
Nsg8
g9
sg10
Nsg17
NsbsS'turn'
p454
g0
(g1
g2
Ntp455
Rp456
(dp457
g6
Nsg8
g9
sg10
Nsg17
NsbsS'provide'
p458
g0
(g1
g2
Ntp459
Rp460
(dp461
g6
Nsg8
g16
sg10
Nsg17
NsbsS'damage'
p462
g0
(g1
g2
Ntp463
Rp464
(dp465
g6
Nsg8
g9
sg10
Nsg17
NsbsS'kabul'
p466
g0
(g1
g2
Ntp467
Rp468
(dp469
g6
Nsg8
g9
sg10
Nsg17
NsbsS'hot'
p470
g0
(g1
g2
Ntp471
Rp472
(dp473
g6
Nsg8
g9
sg10
Nsg17
NsbsS'answer'
p474
g0
(g1
g2
Ntp475
Rp476
(dp477
g6
Nsg8
g16
sg10
Nsg17
NsbsS'symposium'
p478
g0
(g1
g2
Ntp479
Rp480
(dp481
g6
Nsg8
g16
sg10
Nsg17
NsbsS'beach'
p482
g0
(g1
g2
Ntp483
Rp484
(dp485
g6
Nsg8
g16
sg10
Nsg17
NsbsS'charging'
p486
g0
(g1
g2
Ntp487
Rp488
(dp489
g6
Nsg8
g16
sg10
Nsg17
NsbsS'gamble'
p490
g0
(g1
g2
Ntp491
Rp492
(dp493
g6
Nsg8
g16
sg10
Nsg17
NsbsS'swine'
p494
g0
(g1
g2
Ntp495
Rp496
(dp497
g6
Nsg8
g16
sg10
Nsg17
NsbsS'elizabeth'
p498
g0
(g1
g2
Ntp499
Rp500
(dp501
g6
Nsg8
g16
sg10
Nsg17
NsbsS'barriers'
p502
g0
(g1
g2
Ntp503
Rp504
(dp505
g6
Nsg8
g16
sg10
Nsg17
NsbsS'documentheight'
p506
g0
(g1
g2
Ntp507
Rp508
(dp509
g6
Nsg8
g16
sg10
Nsg17
NsbsS'president'
p510
g0
(g1
g2
Ntp511
Rp512
(dp513
g6
Nsg8
g16
sg10
Nsg17
NsbsS'law'
p514
g0
(g1
g2
Ntp515
Rp516
(dp517
g6
Nsg8
g16
sg10
Nsg17
NsbsS'lesbian'
p518
g0
(g1
g2
Ntp519
Rp520
(dp521
g6
Nsg8
g16
sg10
Nsg17
NsbsS'wins'
p522
g0
(g1
g2
Ntp523
Rp524
(dp525
g6
Nsg8
g16
sg10
Nsg17
NsbsS'headquarters'
p526
g0
(g1
g2
Ntp527
Rp528
(dp529
g6
Nsg8
g9
sg10
Nsg17
NsbsS'bator'
p530
g0
(g1
g2
Ntp531
Rp532
(dp533
g6
Nsg8
g16
sg10
Nsg17
NsbsS'green'
p534
g0
(g1
g2
Ntp535
Rp536
(dp537
g6
Nsg8
g16
sg10
Nsg17
NsbsS'enter'
p538
g0
(g1
g2
Ntp539
Rp540
(dp541
g6
Nsg8
g16
sg10
Nsg17
NsbsS'chandon'
p542
g0
(g1
g2
Ntp543
Rp544
(dp545
g6
Nsg8
g16
sg10
Nsg17
NsbsS'order'
p546
g0
(g1
g2
Ntp547
Rp548
(dp549
g6
Nsg8
g9
sg10
Nsg17
NsbsS'wind'
p550
g0
(g1
g2
Ntp551
Rp552
(dp553
g6
Nsg8
g16
sg10
Nsg17
NsbsS'operations'
p554
g0
(g1
g2
Ntp555
Rp556
(dp557
g6
Nsg8
g16
sg10
Nsg17
NsbsS'executed'
p558
g0
(g1
g2
Ntp559
Rp560
(dp561
g6
Nsg8
g16
sg10
Nsg17
NsbsS'beihai'
p562
g0
(g1
g2
Ntp563
Rp564
(dp565
g6
Nsg8
g16
sg10
Nsg17
NsbsS'feedback'
p566
g0
(g1
g2
Ntp567
Rp568
(dp569
g6
Nsg8
g9
sg10
Nsg17
NsbsS'office'
p570
g0
(g1
g2
Ntp571
Rp572
(dp573
g6
Nsg8
g9
sg10
Nsg17
NsbsS'consent'
p574
g0
(g1
g2
Ntp575
Rp576
(dp577
g6
Nsg8
g16
sg10
Nsg17
NsbsS'murray'
p578
g0
(g1
g2
Ntp579
Rp580
(dp581
g6
Nsg8
g16
sg10
Nsg17
NsbsS'london'
p582
g0
(g1
g2
Ntp583
Rp584
(dp585
g6
Nsg8
g16
sg10
Nsg17
NsbsS'keyboard'
p586
g0
(g1
g2
Ntp587
Rp588
(dp589
g6
Nsg8
g16
sg10
Nsg17
NsbsS'kong'
p590
g0
(g1
g2
Ntp591
Rp592
(dp593
g6
Nsg8
g16
sg10
Nsg17
NsbsS'japan'
p594
g0
(g1
g2
Ntp595
Rp596
(dp597
g6
Nsg8
g16
sg10
Nsg17
NsbsS'nets'
p598
g0
(g1
g2
Ntp599
Rp600
(dp601
g6
Nsg8
g9
sg10
Nsg17
NsbsS'lijiadu'
p602
g0
(g1
g2
Ntp603
Rp604
(dp605
g6
Nsg8
g9
sg10
Nsg17
NsbsS'receiver'
p606
g0
(g1
g2
Ntp607
Rp608
(dp609
g6
Nsg8
g16
sg10
Nsg17
NsbsS'anhui'
p610
g0
(g1
g2
Ntp611
Rp612
(dp613
g6
Nsg8
g9
sg10
Nsg17
NsbsS'imf'
p614
g0
(g1
g2
Ntp615
Rp616
(dp617
g6
Nsg8
g16
sg10
Nsg17
NsbsS'personal'
p618
g0
(g1
g2
Ntp619
Rp620
(dp621
g6
Nsg8
g16
sg10
Nsg17
NsbsS'highlights'
p622
g0
(g1
g2
Ntp623
Rp624
(dp625
g6
Nsg8
g16
sg10
Nsg17
NsbsS'fix'
p626
g0
(g1
g2
Ntp627
Rp628
(dp629
g6
Nsg8
g16
sg10
Nsg17
NsbsS'denver'
p630
g0
(g1
g2
Ntp631
Rp632
(dp633
g6
Nsg8
g16
sg10
Nsg17
NsbsS'writing'
p634
g0
(g1
g2
Ntp635
Rp636
(dp637
g6
Nsg8
g16
sg10
Nsg17
NsbsS'destroyed'
p638
g0
(g1
g2
Ntp639
Rp640
(dp641
g6
Nsg8
g9
sg10
Nsg17
NsbsS'production'
p642
g0
(g1
g2
Ntp643
Rp644
(dp645
g6
Nsg8
g16
sg10
Nsg17
NsbsS'hidden'
p646
g0
(g1
g2
Ntp647
Rp648
(dp649
g6
Nsg8
g16
sg10
Nsg17
NsbsS'easier'
p650
g0
(g1
g2
Ntp651
Rp652
(dp653
g6
Nsg8
g9
sg10
Nsg17
NsbsS'prius'
p654
g0
(g1
g2
Ntp655
Rp656
(dp657
g6
Nsg8
g16
sg10
Nsg17
NsbsS'coffee'
p658
g0
(g1
g2
Ntp659
Rp660
(dp661
g6
Nsg8
g16
sg10
Nsg17
NsbsS'affected'
p662
g0
(g1
g2
Ntp663
Rp664
(dp665
g6
Nsg8
g9
sg10
Nsg17
NsbsS'diseases'
p666
g0
(g1
g2
Ntp667
Rp668
(dp669
g6
Nsg8
g9
sg10
Nsg17
NsbsS'versandkosten'
p670
g0
(g1
g2
Ntp671
Rp672
(dp673
g6
Nsg8
g16
sg10
Nsg17
NsbsS'schools'
p674
g0
(g1
g2
Ntp675
Rp676
(dp677
g6
Nsg8
g16
sg10
Nsg17
NsbsS'silver'
p678
g0
(g1
g2
Ntp679
Rp680
(dp681
g6
Nsg8
g16
sg10
Nsg17
NsbsS'bank'
p682
g0
(g1
g2
Ntp683
Rp684
(dp685
g6
Nsg8
g16
sg10
Nsg17
NsbsS'gloom'
p686
g0
(g1
g2
Ntp687
Rp688
(dp689
g6
Nsg8
g16
sg10
Nsg17
NsbsS'sanya'
p690
g0
(g1
g2
Ntp691
Rp692
(dp693
g6
Nsg8
g16
sg10
Nsg17
NsbsS'debut'
p694
g0
(g1
g2
Ntp695
Rp696
(dp697
g6
Nsg8
g16
sg10
Nsg17
NsbsS'rocks'
p698
g0
(g1
g2
Ntp699
Rp700
(dp701
g6
Nsg8
g16
sg10
Nsg17
NsbsS'fitness'
p702
g0
(g1
g2
Ntp703
Rp704
(dp705
g6
Nsg8
g16
sg10
Nsg17
NsbsS'volcano'
p706
g0
(g1
g2
Ntp707
Rp708
(dp709
g6
Nsg8
g9
sg10
Nsg17
NsbsS'feeds'
p710
g0
(g1
g2
Ntp711
Rp712
(dp713
g6
Nsg8
g9
sg10
Nsg17
NsbsS'carlos'
p714
g0
(g1
g2
Ntp715
Rp716
(dp717
g6
Nsg8
g9
sg10
Nsg17
NsbsS'financial'
p718
g0
(g1
g2
Ntp719
Rp720
(dp721
g6
Nsg8
g16
sg10
Nsg17
NsbsS'fishpond'
p722
g0
(g1
g2
Ntp723
Rp724
(dp725
g6
Nsg8
g9
sg10
Nsg17
NsbsS'spider'
p726
g0
(g1
g2
Ntp727
Rp728
(dp729
g6
Nsg8
g16
sg10
Nsg17
NsbsS'wednesday'
p730
g0
(g1
g2
Ntp731
Rp732
(dp733
g6
Nsg8
g16
sg10
Nsg17
NsbsS'trading'
p734
g0
(g1
g2
Ntp735
Rp736
(dp737
g6
Nsg8
g16
sg10
Nsg17
NsbsS'dawn'
p738
g0
(g1
g2
Ntp739
Rp740
(dp741
g6
Nsg8
g16
sg10
Nsg17
NsbsS'saturday'
p742
g0
(g1
g2
Ntp743
Rp744
(dp745
g6
Nsg8
g9
sg10
Nsg17
NsbsS'network'
p746
g0
(g1
g2
Ntp747
Rp748
(dp749
g6
Nsg8
g16
sg10
Nsg17
NsbsS'driving'
p750
g0
(g1
g2
Ntp751
Rp752
(dp753
g6
Nsg8
g9
sg10
Nsg17
NsbsS'rs'
p754
g0
(g1
g2
Ntp755
Rp756
(dp757
g6
Nsg8
g16
sg10
Nsg17
NsbsS'sms'
p758
g0
(g1
g2
Ntp759
Rp760
(dp761
g6
Nsg8
g16
sg10
Nsg17
NsbsS'semiconductor'
p762
g0
(g1
g2
Ntp763
Rp764
(dp765
g6
Nsg8
g16
sg10
Nsg17
NsbsS'encourage'
p766
g0
(g1
g2
Ntp767
Rp768
(dp769
g6
Nsg8
g16
sg10
Nsg17
NsbsS'safety'
p770
g0
(g1
g2
Ntp771
Rp772
(dp773
g6
Nsg8
g9
sg10
Nsg17
NsbsS'reader'
p774
g0
(g1
g2
Ntp775
Rp776
(dp777
g6
Nsg8
g16
sg10
Nsg17
NsbsS'millions'
p778
g0
(g1
g2
Ntp779
Rp780
(dp781
g6
Nsg8
g9
sg10
Nsg17
NsbsS'gop'
p782
g0
(g1
g2
Ntp783
Rp784
(dp785
g6
Nsg8
g16
sg10
Nsg17
NsbsS'lesbians'
p786
g0
(g1
g2
Ntp787
Rp788
(dp789
g6
Nsg8
g16
sg10
Nsg17
NsbsS'foundation'
p790
g0
(g1
g2
Ntp791
Rp792
(dp793
g6
Nsg8
g16
sg10
Nsg17
NsbsS'fugitive'
p794
g0
(g1
g2
Ntp795
Rp796
(dp797
g6
Nsg8
g9
sg10
Nsg17
NsbsS'mourning'
p798
g0
(g1
g2
Ntp799
Rp800
(dp801
g6
Nsg8
g9
sg10
Nsg17
NsbsS'drench'
p802
g0
(g1
g2
Ntp803
Rp804
(dp805
g6
Nsg8
g9
sg10
Nsg17
NsbsS'shaanxi'
p806
g0
(g1
g2
Ntp807
Rp808
(dp809
g6
Nsg8
g9
sg10
Nsg17
NsbsS'starts'
p810
g0
(g1
g2
Ntp811
Rp812
(dp813
g6
Nsg8
g16
sg10
Nsg17
NsbsS'privacy'
p814
g0
(g1
g2
Ntp815
Rp816
(dp817
g6
Nsg8
g9
sg10
Nsg17
NsbsS'days'
p818
g0
(g1
g2
Ntp819
Rp820
(dp821
g6
Nsg8
g9
sg10
Nsg17
NsbsS'creates'
p822
g0
(g1
g2
Ntp823
Rp824
(dp825
g6
Nsg8
g16
sg10
Nsg17
NsbsS'transexpo'
p826
g0
(g1
g2
Ntp827
Rp828
(dp829
g6
Nsg8
g16
sg10
Nsg17
NsbsS'purpose'
p830
g0
(g1
g2
Ntp831
Rp832
(dp833
g6
Nsg8
g16
sg10
Nsg17
NsbsS'size'
p834
g0
(g1
g2
Ntp835
Rp836
(dp837
g6
Nsg8
g16
sg10
Nsg17
NsbsS'features'
p838
g0
(g1
g2
Ntp839
Rp840
(dp841
g6
Nsg8
g9
sg10
Nsg17
NsbsS'rant'
p842
g0
(g1
g2
Ntp843
Rp844
(dp845
g6
Nsg8
g16
sg10
Nsg17
NsbsS'featured'
p846
g0
(g1
g2
Ntp847
Rp848
(dp849
g6
Nsg8
g16
sg10
Nsg17
NsbsS'customization'
p850
g0
(g1
g2
Ntp851
Rp852
(dp853
g6
Nsg8
g16
sg10
Nsg17
NsbsS'ditch'
p854
g0
(g1
g2
Ntp855
Rp856
(dp857
g6
Nsg8
g9
sg10
Nsg17
NsbsS'top'
p858
g0
(g1
g2
Ntp859
Rp860
(dp861
g6
Nsg8
g16
sg10
Nsg17
NsbsS'antiques'
p862
g0
(g1
g2
Ntp863
Rp864
(dp865
g6
Nsg8
g16
sg10
Nsg17
NsbsS'needed'
p866
g0
(g1
g2
Ntp867
Rp868
(dp869
g6
Nsg8
g16
sg10
Nsg17
NsbsS'rates'
p870
g0
(g1
g2
Ntp871
Rp872
(dp873
g6
Nsg8
g16
sg10
Nsg17
NsbsS'farming'
p874
g0
(g1
g2
Ntp875
Rp876
(dp877
g6
Nsg8
g16
sg10
Nsg17
NsbsS'helpfaqcontact'
p878
g0
(g1
g2
Ntp879
Rp880
(dp881
g6
Nsg8
g9
sg10
Nsg17
NsbsS'tool'
p882
g0
(g1
g2
Ntp883
Rp884
(dp885
g6
Nsg8
g9
sg10
Nsg17
NsbsS'white'
p886
g0
(g1
g2
Ntp887
Rp888
(dp889
g6
Nsg8
g16
sg10
Nsg17
NsbsS'toronto'
p890
g0
(g1
g2
Ntp891
Rp892
(dp893
g6
Nsg8
g16
sg10
Nsg17
NsbsS'past'
p894
g0
(g1
g2
Ntp895
Rp896
(dp897
g6
Nsg8
g9
sg10
Nsg17
NsbsS'facebooklikeconfirmyou'
p898
g0
(g1
g2
Ntp899
Rp900
(dp901
g6
Nsg8
g16
sg10
Nsg17
NsbsS'diario'
p902
g0
(g1
g2
Ntp903
Rp904
(dp905
g6
Nsg8
g9
sg10
Nsg17
NsbsS'tree'
p906
g0
(g1
g2
Ntp907
Rp908
(dp909
g6
Nsg8
g16
sg10
Nsg17
NsbsS'nations'
p910
g0
(g1
g2
Ntp911
Rp912
(dp913
g6
Nsg8
g16
sg10
Nsg17
NsbsS'project'
p914
g0
(g1
g2
Ntp915
Rp916
(dp917
g6
Nsg8
g16
sg10
Nsg17
NsbsS'expo'
p918
g0
(g1
g2
Ntp919
Rp920
(dp921
g6
Nsg8
g16
sg10
Nsg17
NsbsS'evacuated'
p922
g0
(g1
g2
Ntp923
Rp924
(dp925
g6
Nsg8
g9
sg10
Nsg17
NsbsS'informationprivacy'
p926
g0
(g1
g2
Ntp927
Rp928
(dp929
g6
Nsg8
g9
sg10
Nsg17
NsbsS'fashion'
p930
g0
(g1
g2
Ntp931
Rp932
(dp933
g6
Nsg8
g16
sg10
Nsg17
NsbsS'navigate'
p934
g0
(g1
g2
Ntp935
Rp936
(dp937
g6
Nsg8
g16
sg10
Nsg17
NsbsS'souris'
p938
g0
(g1
g2
Ntp939
Rp940
(dp941
g6
Nsg8
g16
sg10
Nsg17
NsbsS'forced'
p942
g0
(g1
g2
Ntp943
Rp944
(dp945
g6
Nsg8
g9
sg10
Nsg17
NsbsS'responsible'
p946
g0
(g1
g2
Ntp947
Rp948
(dp949
g6
Nsg8
g16
sg10
Nsg17
NsbsS'snow'
p950
g0
(g1
g2
Ntp951
Rp952
(dp953
g6
Nsg8
g16
sg10
Nsg17
NsbsS'contact'
p954
g0
(g1
g2
Ntp955
Rp956
(dp957
g6
Nsg8
g9
sg10
Nsg17
NsbsS'iceland'
p958
g0
(g1
g2
Ntp959
Rp960
(dp961
g6
Nsg8
g16
sg10
Nsg17
NsbsS'object'
p962
g0
(g1
g2
Ntp963
Rp964
(dp965
g6
Nsg8
g16
sg10
Nsg17
NsbsS'defence'
p966
g0
(g1
g2
Ntp967
Rp968
(dp969
g6
Nsg8
g9
sg10
Nsg17
NsbsS'germany'
p970
g0
(g1
g2
Ntp971
Rp972
(dp973
g6
Nsg8
g16
sg10
Nsg17
NsbsS'letter'
p974
g0
(g1
g2
Ntp975
Rp976
(dp977
g6
Nsg8
g16
sg10
Nsg17
NsbsS'organization'
p978
g0
(g1
g2
Ntp979
Rp980
(dp981
g6
Nsg8
g16
sg10
Nsg17
NsbsS'phase'
p982
g0
(g1
g2
Ntp983
Rp984
(dp985
g6
Nsg8
g16
sg10
Nsg17
NsbsS'drought'
p986
g0
(g1
g2
Ntp987
Rp988
(dp989
g6
Nsg8
g9
sg10
Nsg17
NsbsS'tibetan'
p990
g0
(g1
g2
Ntp991
Rp992
(dp993
g6
Nsg8
g16
sg10
Nsg17
NsbsS'xijiang'
p994
g0
(g1
g2
Ntp995
Rp996
(dp997
g6
Nsg8
g9
sg10
Nsg17
NsbsS'rogers'
p998
g0
(g1
g2
Ntp999
Rp1000
(dp1001
g6
Nsg8
g16
sg10
Nsg17
NsbsS'writechatdiv'
p1002
g0
(g1
g2
Ntp1003
Rp1004
(dp1005
g6
Nsg8
g16
sg10
Nsg17
NsbsS'medical'
p1006
g0
(g1
g2
Ntp1007
Rp1008
(dp1009
g6
Nsg8
g16
sg10
Nsg17
NsbsS'displayedshare'
p1010
g0
(g1
g2
Ntp1011
Rp1012
(dp1013
g6
Nsg8
g16
sg10
Nsg17
NsbsS'points'
p1014
g0
(g1
g2
Ntp1015
Rp1016
(dp1017
g6
Nsg8
g16
sg10
Nsg17
NsbsS'tech'
p1018
g0
(g1
g2
Ntp1019
Rp1020
(dp1021
g6
Nsg8
g16
sg10
Nsg17
NsbsS'dow'
p1022
g0
(g1
g2
Ntp1023
Rp1024
(dp1025
g6
Nsg8
g16
sg10
Nsg17
NsbsS'silber'
p1026
g0
(g1
g2
Ntp1027
Rp1028
(dp1029
g6
Nsg8
g16
sg10
Nsg17
NsbsS'pope'
p1030
g0
(g1
g2
Ntp1031
Rp1032
(dp1033
g6
Nsg8
g16
sg10
Nsg17
NsbsS'hunger'
p1034
g0
(g1
g2
Ntp1035
Rp1036
(dp1037
g6
Nsg8
g16
sg10
Nsg17
NsbsS'visitor'
p1038
g0
(g1
g2
Ntp1039
Rp1040
(dp1041
g6
Nsg8
g16
sg10
Nsg17
NsbsS'probe'
p1042
g0
(g1
g2
Ntp1043
Rp1044
(dp1045
g6
Nsg8
g16
sg10
Nsg17
NsbsS'religions'
p1046
g0
(g1
g2
Ntp1047
Rp1048
(dp1049
g6
Nsg8
g16
sg10
Nsg17
NsbsS'radio'
p1050
g0
(g1
g2
Ntp1051
Rp1052
(dp1053
g6
Nsg8
g9
sg10
Nsg17
NsbsS'solutions'
p1054
g0
(g1
g2
Ntp1055
Rp1056
(dp1057
g6
Nsg8
g16
sg10
Nsg17
NsbsS'participate'
p1058
g0
(g1
g2
Ntp1059
Rp1060
(dp1061
g6
Nsg8
g16
sg10
Nsg17
NsbsS'nevada'
p1062
g0
(g1
g2
Ntp1063
Rp1064
(dp1065
g6
Nsg8
g16
sg10
Nsg17
NsbsS'northeast'
p1066
g0
(g1
g2
Ntp1067
Rp1068
(dp1069
g6
Nsg8
g9
sg10
Nsg17
NsbsS'menu'
p1070
g0
(g1
g2
Ntp1071
Rp1072
(dp1073
g6
Nsg8
g16
sg10
Nsg17
NsbsS'guidance'
p1074
g0
(g1
g2
Ntp1075
Rp1076
(dp1077
g6
Nsg8
g16
sg10
Nsg17
NsbsS'kessler'
p1078
g0
(g1
g2
Ntp1079
Rp1080
(dp1081
g6
Nsg8
g16
sg10
Nsg17
NsbsS'bush'
p1082
g0
(g1
g2
Ntp1083
Rp1084
(dp1085
g6
Nsg8
g16
sg10
Nsg17
NsbsS'rick'
p1086
g0
(g1
g2
Ntp1087
Rp1088
(dp1089
g6
Nsg8
g16
sg10
Nsg17
NsbsS'integrate'
p1090
g0
(g1
g2
Ntp1091
Rp1092
(dp1093
g6
Nsg8
g16
sg10
Nsg17
NsbsS'exports'
p1094
g0
(g1
g2
Ntp1095
Rp1096
(dp1097
g6
Nsg8
g16
sg10
Nsg17
NsbsS'dj'
p1098
g0
(g1
g2
Ntp1099
Rp1100
(dp1101
g6
Nsg8
g16
sg10
Nsg17
NsbsS'de'
p1102
g0
(g1
g2
Ntp1103
Rp1104
(dp1105
g6
Nsg8
g9
sg10
Nsg17
NsbsS'stop'
p1106
g0
(g1
g2
Ntp1107
Rp1108
(dp1109
g6
Nsg8
g16
sg10
Nsg17
NsbsS'dc'
p1110
g0
(g1
g2
Ntp1111
Rp1112
(dp1113
g6
Nsg8
g16
sg10
Nsg17
NsbsS'baffle'
p1114
g0
(g1
g2
Ntp1115
Rp1116
(dp1117
g6
Nsg8
g9
sg10
Nsg17
NsbsS'societies'
p1118
g0
(g1
g2
Ntp1119
Rp1120
(dp1121
g6
Nsg8
g16
sg10
Nsg17
NsbsS'xinjiang'
p1122
g0
(g1
g2
Ntp1123
Rp1124
(dp1125
g6
Nsg8
g9
sg10
Nsg17
NsbsS'covering'
p1126
g0
(g1
g2
Ntp1127
Rp1128
(dp1129
g6
Nsg8
g16
sg10
Nsg17
NsbsS'fields'
p1130
g0
(g1
g2
Ntp1131
Rp1132
(dp1133
g6
Nsg8
g16
sg10
Nsg17
NsbsS'ban'
p1134
g0
(g1
g2
Ntp1135
Rp1136
(dp1137
g6
Nsg8
g16
sg10
Nsg17
NsbsS'gigaom'
p1138
g0
(g1
g2
Ntp1139
Rp1140
(dp1141
g6
Nsg8
g16
sg10
Nsg17
NsbsS'disaster'
p1142
g0
(g1
g2
Ntp1143
Rp1144
(dp1145
g6
Nsg8
g9
sg10
Nsg17
NsbsS'fair'
p1146
g0
(g1
g2
Ntp1147
Rp1148
(dp1149
g6
Nsg8
g16
sg10
Nsg17
NsbsS'testing'
p1150
g0
(g1
g2
Ntp1151
Rp1152
(dp1153
g6
Nsg8
g16
sg10
Nsg17
NsbsS'iran'
p1154
g0
(g1
g2
Ntp1155
Rp1156
(dp1157
g6
Nsg8
g9
sg10
Nsg17
NsbsS'subject'
p1158
g0
(g1
g2
Ntp1159
Rp1160
(dp1161
g6
Nsg8
g16
sg10
Nsg17
NsbsS'brazil'
p1162
g0
(g1
g2
Ntp1163
Rp1164
(dp1165
g6
Nsg8
g16
sg10
Nsg17
NsbsS'voyage'
p1166
g0
(g1
g2
Ntp1167
Rp1168
(dp1169
g6
Nsg8
g16
sg10
Nsg17
NsbsS'capacity'
p1170
g0
(g1
g2
Ntp1171
Rp1172
(dp1173
g6
Nsg8
g16
sg10
Nsg17
NsbsS'wikipedia'
p1174
g0
(g1
g2
Ntp1175
Rp1176
(dp1177
g6
Nsg8
g9
sg10
Nsg17
NsbsS'mud'
p1178
g0
(g1
g2
Ntp1179
Rp1180
(dp1181
g6
Nsg8
g9
sg10
Nsg17
NsbsS'terms'
p1182
g0
(g1
g2
Ntp1183
Rp1184
(dp1185
g6
Nsg8
g9
sg10
Nsg17
NsbsS'nationwide'
p1186
g0
(g1
g2
Ntp1187
Rp1188
(dp1189
g6
Nsg8
g16
sg10
Nsg17
NsbsS'qionghai'
p1190
g0
(g1
g2
Ntp1191
Rp1192
(dp1193
g6
Nsg8
g9
sg10
Nsg17
NsbsS'apiplayer'
p1194
g0
(g1
g2
Ntp1195
Rp1196
(dp1197
g6
Nsg8
g9
sg10
Nsg17
NsbsS'cut'
p1198
g0
(g1
g2
Ntp1199
Rp1200
(dp1201
g6
Nsg8
g16
sg10
Nsg17
NsbsS'windows'
p1202
g0
(g1
g2
Ntp1203
Rp1204
(dp1205
g6
Nsg8
g16
sg10
Nsg17
NsbsS'presswire'
p1206
g0
(g1
g2
Ntp1207
Rp1208
(dp1209
g6
Nsg8
g16
sg10
Nsg17
NsbsS'carbon'
p1210
g0
(g1
g2
Ntp1211
Rp1212
(dp1213
g6
Nsg8
g9
sg10
Nsg17
NsbsS'hours'
p1214
g0
(g1
g2
Ntp1215
Rp1216
(dp1217
g6
Nsg8
g16
sg10
Nsg17
NsbsS'climate'
p1218
g0
(g1
g2
Ntp1219
Rp1220
(dp1221
g6
Nsg8
g9
sg10
Nsg17
NsbsS'country'
p1222
g0
(g1
g2
Ntp1223
Rp1224
(dp1225
g6
Nsg8
g9
sg10
Nsg17
NsbsS'adapter'
p1226
g0
(g1
g2
Ntp1227
Rp1228
(dp1229
g6
Nsg8
g16
sg10
Nsg17
NsbsS'pollster'
p1230
g0
(g1
g2
Ntp1231
Rp1232
(dp1233
g6
Nsg8
g16
sg10
Nsg17
NsbsS'heating'
p1234
g0
(g1
g2
Ntp1235
Rp1236
(dp1237
g6
Nsg8
g16
sg10
Nsg17
NsbsS'faces'
p1238
g0
(g1
g2
Ntp1239
Rp1240
(dp1241
g6
Nsg8
g16
sg10
Nsg17
NsbsS'requests'
p1242
g0
(g1
g2
Ntp1243
Rp1244
(dp1245
g6
Nsg8
g16
sg10
Nsg17
NsbsS'southeastern'
p1246
g0
(g1
g2
Ntp1247
Rp1248
(dp1249
g6
Nsg8
g9
sg10
Nsg17
NsbsS'blackvoices'
p1250
g0
(g1
g2
Ntp1251
Rp1252
(dp1253
g6
Nsg8
g16
sg10
Nsg17
NsbsS'jinan'
p1254
g0
(g1
g2
Ntp1255
Rp1256
(dp1257
g6
Nsg8
g9
sg10
Nsg17
NsbsS'initiative'
p1258
g0
(g1
g2
Ntp1259
Rp1260
(dp1261
g6
Nsg8
g16
sg10
Nsg17
NsbsS'chahine'
p1262
g0
(g1
g2
Ntp1263
Rp1264
(dp1265
g6
Nsg8
g16
sg10
Nsg17
NsbsS'conference'
p1266
g0
(g1
g2
Ntp1267
Rp1268
(dp1269
g6
Nsg8
g16
sg10
Nsg17
NsbsS'barack'
p1270
g0
(g1
g2
Ntp1271
Rp1272
(dp1273
g6
Nsg8
g16
sg10
Nsg17
NsbsS'trigger'
p1274
g0
(g1
g2
Ntp1275
Rp1276
(dp1277
g6
Nsg8
g9
sg10
Nsg17
NsbsS'expected'
p1278
g0
(g1
g2
Ntp1279
Rp1280
(dp1281
g6
Nsg8
g9
sg10
Nsg17
NsbsS'dozens'
p1282
g0
(g1
g2
Ntp1283
Rp1284
(dp1285
g6
Nsg8
g9
sg10
Nsg17
NsbsS'pro'
p1286
g0
(g1
g2
Ntp1287
Rp1288
(dp1289
g6
Nsg8
g16
sg10
Nsg17
NsbsS'exhibition'
p1290
g0
(g1
g2
Ntp1291
Rp1292
(dp1293
g6
Nsg8
g16
sg10
Nsg17
NsbsS'website'
p1294
g0
(g1
g2
Ntp1295
Rp1296
(dp1297
g6
Nsg8
g16
sg10
Nsg17
NsbsS'life'
p1298
g0
(g1
g2
Ntp1299
Rp1300
(dp1301
g6
Nsg8
g9
sg10
Nsg17
NsbsS'eastern'
p1302
g0
(g1
g2
Ntp1303
Rp1304
(dp1305
g6
Nsg8
g9
sg10
Nsg17
NsbsS'drugs'
p1306
g0
(g1
g2
Ntp1307
Rp1308
(dp1309
g6
Nsg8
g16
sg10
Nsg17
NsbsS'transatlantic'
p1310
g0
(g1
g2
Ntp1311
Rp1312
(dp1313
g6
Nsg8
g16
sg10
Nsg17
NsbsS'kids'
p1314
g0
(g1
g2
Ntp1315
Rp1316
(dp1317
g6
Nsg8
g9
sg10
Nsg17
NsbsS'chile'
p1318
g0
(g1
g2
Ntp1319
Rp1320
(dp1321
g6
Nsg8
g9
sg10
Nsg17
NsbsS'child'
p1322
g0
(g1
g2
Ntp1323
Rp1324
(dp1325
g6
Nsg8
g16
sg10
Nsg17
NsbsS'carbuyer'
p1326
g0
(g1
g2
Ntp1327
Rp1328
(dp1329
g6
Nsg8
g9
sg10
Nsg17
NsbsS'launches'
p1330
g0
(g1
g2
Ntp1331
Rp1332
(dp1333
g6
Nsg8
g16
sg10
Nsg17
NsbsS'air'
p1334
g0
(g1
g2
Ntp1335
Rp1336
(dp1337
g6
Nsg8
g9
sg10
Nsg17
NsbsS'radiohalterung'
p1338
g0
(g1
g2
Ntp1339
Rp1340
(dp1341
g6
Nsg8
g16
sg10
Nsg17
NsbsS'aid'
p1342
g0
(g1
g2
Ntp1343
Rp1344
(dp1345
g6
Nsg8
g9
sg10
Nsg17
NsbsS'property'
p1346
g0
(g1
g2
Ntp1347
Rp1348
(dp1349
g6
Nsg8
g16
sg10
Nsg17
NsbsS'flooding'
p1350
g0
(g1
g2
Ntp1351
Rp1352
(dp1353
g6
Nsg8
g9
sg10
Nsg17
NsbsS'elaborate'
p1354
g0
(g1
g2
Ntp1355
Rp1356
(dp1357
g6
Nsg8
g16
sg10
Nsg17
NsbsS'release'
p1358
g0
(g1
g2
Ntp1359
Rp1360
(dp1361
g6
Nsg8
g16
sg10
Nsg17
NsbsS'hunan'
p1362
g0
(g1
g2
Ntp1363
Rp1364
(dp1365
g6
Nsg8
g9
sg10
Nsg17
NsbsS'mexico'
p1366
g0
(g1
g2
Ntp1367
Rp1368
(dp1369
g6
Nsg8
g9
sg10
Nsg17
NsbsS'player'
p1370
g0
(g1
g2
Ntp1371
Rp1372
(dp1373
g6
Nsg8
g16
sg10
Nsg17
NsbsS'experts'
p1374
g0
(g1
g2
Ntp1375
Rp1376
(dp1377
g6
Nsg8
g9
sg10
Nsg17
NsbsS'id'
p1378
g0
(g1
g2
Ntp1379
Rp1380
(dp1381
g6
Nsg8
g16
sg10
Nsg17
NsbsS'disappear'
p1382
g0
(g1
g2
Ntp1383
Rp1384
(dp1385
g6
Nsg8
g16
sg10
Nsg17
NsbsS'hong'
p1386
g0
(g1
g2
Ntp1387
Rp1388
(dp1389
g6
Nsg8
g16
sg10
Nsg17
NsbsS'credit'
p1390
g0
(g1
g2
Ntp1391
Rp1392
(dp1393
g6
Nsg8
g16
sg10
Nsg17
NsbsS'make'
p1394
g0
(g1
g2
Ntp1395
Rp1396
(dp1397
g6
Nsg8
g9
sg10
Nsg17
NsbsS'vegetable'
p1398
g0
(g1
g2
Ntp1399
Rp1400
(dp1401
g6
Nsg8
g9
sg10
Nsg17
NsbsS'bid'
p1402
g0
(g1
g2
Ntp1403
Rp1404
(dp1405
g6
Nsg8
g16
sg10
Nsg17
NsbsS'european'
p1406
g0
(g1
g2
Ntp1407
Rp1408
(dp1409
g6
Nsg8
g16
sg10
Nsg17
NsbsS'satellite'
p1410
g0
(g1
g2
Ntp1411
Rp1412
(dp1413
g6
Nsg8
g9
sg10
Nsg17
NsbsS'rain'
p1414
g0
(g1
g2
Ntp1415
Rp1416
(dp1417
g6
Nsg8
g9
sg10
Nsg17
NsbsS'characters'
p1418
g0
(g1
g2
Ntp1419
Rp1420
(dp1421
g6
Nsg8
g16
sg10
Nsg17
NsbsS'programs'
p1422
g0
(g1
g2
Ntp1423
Rp1424
(dp1425
g6
Nsg8
g16
sg10
Nsg17
NsbsS'failing'
p1426
g0
(g1
g2
Ntp1427
Rp1428
(dp1429
g6
Nsg8
g16
sg10
Nsg17
NsbsS'materials'
p1430
g0
(g1
g2
Ntp1431
Rp1432
(dp1433
g6
Nsg8
g16
sg10
Nsg17
NsbsS'claims'
p1434
g0
(g1
g2
Ntp1435
Rp1436
(dp1437
g6
Nsg8
g9
sg10
Nsg17
NsbsS'settimeout'
p1438
g0
(g1
g2
Ntp1439
Rp1440
(dp1441
g6
Nsg8
g16
sg10
Nsg17
NsbsS'corporate'
p1442
g0
(g1
g2
Ntp1443
Rp1444
(dp1445
g6
Nsg8
g9
sg10
Nsg17
NsbsS'investments'
p1446
g0
(g1
g2
Ntp1447
Rp1448
(dp1449
g6
Nsg8
g16
sg10
Nsg17
NsbsS'left'
p1450
g0
(g1
g2
Ntp1451
Rp1452
(dp1453
g6
Nsg8
g9
sg10
Nsg17
NsbsS'opinions'
p1454
g0
(g1
g2
Ntp1455
Rp1456
(dp1457
g6
Nsg8
g16
sg10
Nsg17
NsbsS'agency'
p1458
g0
(g1
g2
Ntp1459
Rp1460
(dp1461
g6
Nsg8
g9
sg10
Nsg17
NsbsS'photo'
p1462
g0
(g1
g2
Ntp1463
Rp1464
(dp1465
g6
Nsg8
g16
sg10
Nsg17
NsbsS'warmest'
p1466
g0
(g1
g2
Ntp1467
Rp1468
(dp1469
g6
Nsg8
g9
sg10
Nsg17
NsbsS'distribute'
p1470
g0
(g1
g2
Ntp1471
Rp1472
(dp1473
g6
Nsg8
g16
sg10
Nsg17
NsbsS'xihai'
p1474
g0
(g1
g2
Ntp1475
Rp1476
(dp1477
g6
Nsg8
g9
sg10
Nsg17
NsbsS'govt'
p1478
g0
(g1
g2
Ntp1479
Rp1480
(dp1481
g6
Nsg8
g9
sg10
Nsg17
NsbsS'fighters'
p1482
g0
(g1
g2
Ntp1483
Rp1484
(dp1485
g6
Nsg8
g16
sg10
Nsg17
NsbsS'identify'
p1486
g0
(g1
g2
Ntp1487
Rp1488
(dp1489
g6
Nsg8
g16
sg10
Nsg17
NsbsS'human'
p1490
g0
(g1
g2
Ntp1491
Rp1492
(dp1493
g6
Nsg8
g16
sg10
Nsg17
NsbsS'rushing'
p1494
g0
(g1
g2
Ntp1495
Rp1496
(dp1497
g6
Nsg8
g9
sg10
Nsg17
NsbsS'previous'
p1498
g0
(g1
g2
Ntp1499
Rp1500
(dp1501
g6
Nsg8
g9
sg10
Nsg17
NsbsS'swahili'
p1502
g0
(g1
g2
Ntp1503
Rp1504
(dp1505
g6
Nsg8
g16
sg10
Nsg17
NsbsS'adding'
p1506
g0
(g1
g2
Ntp1507
Rp1508
(dp1509
g6
Nsg8
g9
sg10
Nsg17
NsbsS'designers'
p1510
g0
(g1
g2
Ntp1511
Rp1512
(dp1513
g6
Nsg8
g16
sg10
Nsg17
NsbsS'songhua'
p1514
g0
(g1
g2
Ntp1515
Rp1516
(dp1517
g6
Nsg8
g9
sg10
Nsg17
NsbsS'endangered'
p1518
g0
(g1
g2
Ntp1519
Rp1520
(dp1521
g6
Nsg8
g9
sg10
Nsg17
NsbsS'kingdomvenezuelayemen'
p1522
g0
(g1
g2
Ntp1523
Rp1524
(dp1525
g6
Nsg8
g9
sg10
Nsg17
NsbsS'spread'
p1526
g0
(g1
g2
Ntp1527
Rp1528
(dp1529
g6
Nsg8
g9
sg10
Nsg17
NsbsS'board'
p1530
g0
(g1
g2
Ntp1531
Rp1532
(dp1533
g6
Nsg8
g16
sg10
Nsg17
NsbsS'contestant'
p1534
g0
(g1
g2
Ntp1535
Rp1536
(dp1537
g6
Nsg8
g16
sg10
Nsg17
NsbsS'save'
p1538
g0
(g1
g2
Ntp1539
Rp1540
(dp1541
g6
Nsg8
g9
sg10
Nsg17
NsbsS'meteorologic'
p1542
g0
(g1
g2
Ntp1543
Rp1544
(dp1545
g6
Nsg8
g9
sg10
Nsg17
NsbsS'municipal'
p1546
g0
(g1
g2
Ntp1547
Rp1548
(dp1549
g6
Nsg8
g9
sg10
Nsg17
NsbsS'celebrates'
p1550
g0
(g1
g2
Ntp1551
Rp1552
(dp1553
g6
Nsg8
g16
sg10
Nsg17
NsbsS'judge'
p1554
g0
(g1
g2
Ntp1555
Rp1556
(dp1557
g6
Nsg8
g9
sg10
Nsg17
NsbsS'cape'
p1558
g0
(g1
g2
Ntp1559
Rp1560
(dp1561
g6
Nsg8
g16
sg10
Nsg17
NsbsS'unique'
p1562
g0
(g1
g2
Ntp1563
Rp1564
(dp1565
g6
Nsg8
g16
sg10
Nsg17
NsbsS'brought'
p1566
g0
(g1
g2
Ntp1567
Rp1568
(dp1569
g6
Nsg8
g9
sg10
Nsg17
NsbsS'alimta'
p1570
g0
(g1
g2
Ntp1571
Rp1572
(dp1573
g6
Nsg8
g16
sg10
Nsg17
NsbsS'mansions'
p1574
g0
(g1
g2
Ntp1575
Rp1576
(dp1577
g6
Nsg8
g16
sg10
Nsg17
NsbsS'specific'
p1578
g0
(g1
g2
Ntp1579
Rp1580
(dp1581
g6
Nsg8
g16
sg10
Nsg17
NsbsS'security'
p1582
g0
(g1
g2
Ntp1583
Rp1584
(dp1585
g6
Nsg8
g9
sg10
Nsg17
NsbsS'biofuels'
p1586
g0
(g1
g2
Ntp1587
Rp1588
(dp1589
g6
Nsg8
g16
sg10
Nsg17
NsbsS'jazeera'
p1590
g0
(g1
g2
Ntp1591
Rp1592
(dp1593
g6
Nsg8
g9
sg10
Nsg17
NsbsS'deal'
p1594
g0
(g1
g2
Ntp1595
Rp1596
(dp1597
g6
Nsg8
g9
sg10
Nsg17
NsbsS'dead'
p1598
g0
(g1
g2
Ntp1599
Rp1600
(dp1601
g6
Nsg8
g9
sg10
Nsg17
NsbsS'meters'
p1602
g0
(g1
g2
Ntp1603
Rp1604
(dp1605
g6
Nsg8
g9
sg10
Nsg17
NsbsS'pain'
p1606
g0
(g1
g2
Ntp1607
Rp1608
(dp1609
g6
Nsg8
g16
sg10
Nsg17
NsbsS'advertise'
p1610
g0
(g1
g2
Ntp1611
Rp1612
(dp1613
g6
Nsg8
g9
sg10
Nsg17
NsbsS'contests'
p1614
g0
(g1
g2
Ntp1615
Rp1616
(dp1617
g6
Nsg8
g16
sg10
Nsg17
NsbsS'comments'
p1618
g0
(g1
g2
Ntp1619
Rp1620
(dp1621
g6
Nsg8
g9
sg10
Nsg17
NsbsS'creative'
p1622
g0
(g1
g2
Ntp1623
Rp1624
(dp1625
g6
Nsg8
g16
sg10
Nsg17
NsbsS'yujiang'
p1626
g0
(g1
g2
Ntp1627
Rp1628
(dp1629
g6
Nsg8
g9
sg10
Nsg17
NsbsS'arrest'
p1630
g0
(g1
g2
Ntp1631
Rp1632
(dp1633
g6
Nsg8
g9
sg10
Nsg17
NsbsS'icp'
p1634
g0
(g1
g2
Ntp1635
Rp1636
(dp1637
g6
Nsg8
g9
sg10
Nsg17
NsbsS'taiwans'
p1638
g0
(g1
g2
Ntp1639
Rp1640
(dp1641
g6
Nsg8
g16
sg10
Nsg17
NsbsS'proactivediv'
p1642
g0
(g1
g2
Ntp1643
Rp1644
(dp1645
g6
Nsg8
g16
sg10
Nsg17
NsbsS'marketing'
p1646
g0
(g1
g2
Ntp1647
Rp1648
(dp1649
g6
Nsg8
g16
sg10
Nsg17
NsbsS'dental'
p1650
g0
(g1
g2
Ntp1651
Rp1652
(dp1653
g6
Nsg8
g16
sg10
Nsg17
NsbsS'hubei'
p1654
g0
(g1
g2
Ntp1655
Rp1656
(dp1657
g6
Nsg8
g9
sg10
Nsg17
NsbsS'metastatic'
p1658
g0
(g1
g2
Ntp1659
Rp1660
(dp1661
g6
Nsg8
g16
sg10
Nsg17
NsbsS'confrontation'
p1662
g0
(g1
g2
Ntp1663
Rp1664
(dp1665
g6
Nsg8
g16
sg10
Nsg17
NsbsS'wujiang'
p1666
g0
(g1
g2
Ntp1667
Rp1668
(dp1669
g6
Nsg8
g9
sg10
Nsg17
NsbsS'losing'
p1670
g0
(g1
g2
Ntp1671
Rp1672
(dp1673
g6
Nsg8
g16
sg10
Nsg17
NsbsS'post'
p1674
g0
(g1
g2
Ntp1675
Rp1676
(dp1677
g6
Nsg8
g16
sg10
Nsg17
NsbsS'manufacturing'
p1678
g0
(g1
g2
Ntp1679
Rp1680
(dp1681
g6
Nsg8
g16
sg10
Nsg17
NsbsS'super'
p1682
g0
(g1
g2
Ntp1683
Rp1684
(dp1685
g6
Nsg8
g9
sg10
Nsg17
NsbsS'tyres'
p1686
g0
(g1
g2
Ntp1687
Rp1688
(dp1689
g6
Nsg8
g16
sg10
Nsg17
NsbsS'chilean'
p1690
g0
(g1
g2
Ntp1691
Rp1692
(dp1693
g6
Nsg8
g9
sg10
Nsg17
NsbsS'attacks'
p1694
g0
(g1
g2
Ntp1695
Rp1696
(dp1697
g6
Nsg8
g16
sg10
Nsg17
NsbsS'dollars'
p1698
g0
(g1
g2
Ntp1699
Rp1700
(dp1701
g6
Nsg8
g9
sg10
Nsg17
NsbsS'uranium'
p1702
g0
(g1
g2
Ntp1703
Rp1704
(dp1705
g6
Nsg8
g9
sg10
Nsg17
NsbsS'afternoon'
p1706
g0
(g1
g2
Ntp1707
Rp1708
(dp1709
g6
Nsg8
g9
sg10
Nsg17
NsbsS'islands'
p1710
g0
(g1
g2
Ntp1711
Rp1712
(dp1713
g6
Nsg8
g9
sg10
Nsg17
NsbsS'efforts'
p1714
g0
(g1
g2
Ntp1715
Rp1716
(dp1717
g6
Nsg8
g9
sg10
Nsg17
NsbsS'xu'
p1718
g0
(g1
g2
Ntp1719
Rp1720
(dp1721
g6
Nsg8
g9
sg10
Nsg17
NsbsS'facility'
p1722
g0
(g1
g2
Ntp1723
Rp1724
(dp1725
g6
Nsg8
g16
sg10
Nsg17
NsbsS'civil'
p1726
g0
(g1
g2
Ntp1727
Rp1728
(dp1729
g6
Nsg8
g9
sg10
Nsg17
NsbsS'refines'
p1730
g0
(g1
g2
Ntp1731
Rp1732
(dp1733
g6
Nsg8
g9
sg10
Nsg17
NsbsS'intellectual'
p1734
g0
(g1
g2
Ntp1735
Rp1736
(dp1737
g6
Nsg8
g16
sg10
Nsg17
NsbsS'tribune'
p1738
g0
(g1
g2
Ntp1739
Rp1740
(dp1741
g6
Nsg8
g16
sg10
Nsg17
NsbsS'raises'
p1742
g0
(g1
g2
Ntp1743
Rp1744
(dp1745
g6
Nsg8
g16
sg10
Nsg17
NsbsS'ezchip'
p1746
g0
(g1
g2
Ntp1747
Rp1748
(dp1749
g6
Nsg8
g16
sg10
Nsg17
NsbsS'lashes'
p1750
g0
(g1
g2
Ntp1751
Rp1752
(dp1753
g6
Nsg8
g16
sg10
Nsg17
NsbsS'support'
p1754
g0
(g1
g2
Ntp1755
Rp1756
(dp1757
g6
Nsg8
g16
sg10
Nsg17
NsbsS'pages'
p1758
g0
(g1
g2
Ntp1759
Rp1760
(dp1761
g6
Nsg8
g16
sg10
Nsg17
NsbsS'clinical'
p1762
g0
(g1
g2
Ntp1763
Rp1764
(dp1765
g6
Nsg8
g16
sg10
Nsg17
NsbsS'editor'
p1766
g0
(g1
g2
Ntp1767
Rp1768
(dp1769
g6
Nsg8
g16
sg10
Nsg17
NsbsS'war'
p1770
g0
(g1
g2
Ntp1771
Rp1772
(dp1773
g6
Nsg8
g16
sg10
Nsg17
NsbsS'wireless'
p1774
g0
(g1
g2
Ntp1775
Rp1776
(dp1777
g6
Nsg8
g16
sg10
Nsg17
NsbsS'lows'
p1778
g0
(g1
g2
Ntp1779
Rp1780
(dp1781
g6
Nsg8
g16
sg10
Nsg17
NsbsS'solar'
p1782
g0
(g1
g2
Ntp1783
Rp1784
(dp1785
g6
Nsg8
g9
sg10
Nsg17
NsbsS'indiana'
p1786
g0
(g1
g2
Ntp1787
Rp1788
(dp1789
g6
Nsg8
g16
sg10
Nsg17
NsbsS'removed'
p1790
g0
(g1
g2
Ntp1791
Rp1792
(dp1793
g6
Nsg8
g9
sg10
Nsg17
NsbsS'type'
p1794
g0
(g1
g2
Ntp1795
Rp1796
(dp1797
g6
Nsg8
g16
sg10
Nsg17
NsbsS'inside'
p1798
g0
(g1
g2
Ntp1799
Rp1800
(dp1801
g6
Nsg8
g16
sg10
Nsg17
NsbsS'average'
p1802
g0
(g1
g2
Ntp1803
Rp1804
(dp1805
g6
Nsg8
g9
sg10
Nsg17
NsbsS'extrasslideshowdata'
p1806
g0
(g1
g2
Ntp1807
Rp1808
(dp1809
g6
Nsg8
g9
sg10
Nsg17
NsbsS'agodana'
p1810
g0
(g1
g2
Ntp1811
Rp1812
(dp1813
g6
Nsg8
g16
sg10
Nsg17
NsbsS'archive'
p1814
g0
(g1
g2
Ntp1815
Rp1816
(dp1817
g6
Nsg8
g16
sg10
Nsg17
NsbsS'ni'
p1818
g0
(g1
g2
Ntp1819
Rp1820
(dp1821
g6
Nsg8
g16
sg10
Nsg17
NsbsS'pollthe'
p1822
g0
(g1
g2
Ntp1823
Rp1824
(dp1825
g6
Nsg8
g16
sg10
Nsg17
NsbsS'alerts'
p1826
g0
(g1
g2
Ntp1827
Rp1828
(dp1829
g6
Nsg8
g9
sg10
Nsg17
NsbsS'ne'
p1830
g0
(g1
g2
Ntp1831
Rp1832
(dp1833
g6
Nsg8
g9
sg10
Nsg17
NsbsS'actor'
p1834
g0
(g1
g2
Ntp1835
Rp1836
(dp1837
g6
Nsg8
g16
sg10
Nsg17
NsbsS'flood'
p1838
g0
(g1
g2
Ntp1839
Rp1840
(dp1841
g6
Nsg8
g9
sg10
Nsg17
NsbsS'setting'
p1842
g0
(g1
g2
Ntp1843
Rp1844
(dp1845
g6
Nsg8
g16
sg10
Nsg17
NsbsS'republic'
p1846
g0
(g1
g2
Ntp1847
Rp1848
(dp1849
g6
Nsg8
g16
sg10
Nsg17
NsbsS'digital'
p1850
g0
(g1
g2
Ntp1851
Rp1852
(dp1853
g6
Nsg8
g16
sg10
Nsg17
NsbsS'test'
p1854
g0
(g1
g2
Ntp1855
Rp1856
(dp1857
g6
Nsg8
g16
sg10
Nsg17
NsbsS'developers'
p1858
g0
(g1
g2
Ntp1859
Rp1860
(dp1861
g6
Nsg8
g9
sg10
Nsg17
NsbsS'picture'
p1862
g0
(g1
g2
Ntp1863
Rp1864
(dp1865
g6
Nsg8
g16
sg10
Nsg17
NsbsS'nutrastar'
p1866
g0
(g1
g2
Ntp1867
Rp1868
(dp1869
g6
Nsg8
g16
sg10
Nsg17
NsbsS'update'
p1870
g0
(g1
g2
Ntp1871
Rp1872
(dp1873
g6
Nsg8
g16
sg10
Nsg17
NsbsS'authorities'
p1874
g0
(g1
g2
Ntp1875
Rp1876
(dp1877
g6
Nsg8
g9
sg10
Nsg17
NsbsS'contacted'
p1878
g0
(g1
g2
Ntp1879
Rp1880
(dp1881
g6
Nsg8
g16
sg10
Nsg17
NsbsS'weekend'
p1882
g0
(g1
g2
Ntp1883
Rp1884
(dp1885
g6
Nsg8
g9
sg10
Nsg17
NsbsS'billion'
p1886
g0
(g1
g2
Ntp1887
Rp1888
(dp1889
g6
Nsg8
g16
sg10
Nsg17
NsbsS'qiongzhou'
p1890
g0
(g1
g2
Ntp1891
Rp1892
(dp1893
g6
Nsg8
g9
sg10
Nsg17
NsbsS'twitterplease'
p1894
g0
(g1
g2
Ntp1895
Rp1896
(dp1897
g6
Nsg8
g16
sg10
Nsg17
NsbsS'time'
p1898
g0
(g1
g2
Ntp1899
Rp1900
(dp1901
g6
Nsg8
g16
sg10
Nsg17
NsbsS'push'
p1902
g0
(g1
g2
Ntp1903
Rp1904
(dp1905
g6
Nsg8
g9
sg10
Nsg17
NsbsS'irrigation'
p1906
g0
(g1
g2
Ntp1907
Rp1908
(dp1909
g6
Nsg8
g9
sg10
Nsg17
NsbsS'concept'
p1910
g0
(g1
g2
Ntp1911
Rp1912
(dp1913
g6
Nsg8
g16
sg10
Nsg17
NsbsS'skip'
p1914
g0
(g1
g2
Ntp1915
Rp1916
(dp1917
g6
Nsg8
g9
sg10
Nsg17
NsbsS'global'
p1918
g0
(g1
g2
Ntp1919
Rp1920
(dp1921
g6
Nsg8
g16
sg10
Nsg17
NsbsS'aptn'
p1922
g0
(g1
g2
Ntp1923
Rp1924
(dp1925
g6
Nsg8
g9
sg10
Nsg17
NsbsS'leads'
p1926
g0
(g1
g2
Ntp1927
Rp1928
(dp1929
g6
Nsg8
g16
sg10
Nsg17
NsbsS'crocodile'
p1930
g0
(g1
g2
Ntp1931
Rp1932
(dp1933
g6
Nsg8
g9
sg10
Nsg17
NsbsS'liangyu'
p1934
g0
(g1
g2
Ntp1935
Rp1936
(dp1937
g6
Nsg8
g9
sg10
Nsg17
NsbsS'skin'
p1938
g0
(g1
g2
Ntp1939
Rp1940
(dp1941
g6
Nsg8
g16
sg10
Nsg17
NsbsS'boluo'
p1942
g0
(g1
g2
Ntp1943
Rp1944
(dp1945
g6
Nsg8
g9
sg10
Nsg17
NsbsS'row'
p1946
g0
(g1
g2
Ntp1947
Rp1948
(dp1949
g6
Nsg8
g16
sg10
Nsg17
NsbsS'zone'
p1950
g0
(g1
g2
Ntp1951
Rp1952
(dp1953
g6
Nsg8
g16
sg10
Nsg17
NsbsS'graph'
p1954
g0
(g1
g2
Ntp1955
Rp1956
(dp1957
g6
Nsg8
g16
sg10
Nsg17
NsbsS'flash'
p1958
g0
(g1
g2
Ntp1959
Rp1960
(dp1961
g6
Nsg8
g16
sg10
Nsg17
NsbsS'editors'
p1962
g0
(g1
g2
Ntp1963
Rp1964
(dp1965
g6
Nsg8
g16
sg10
Nsg17
NsbsS'environment'
p1966
g0
(g1
g2
Ntp1967
Rp1968
(dp1969
g6
Nsg8
g9
sg10
Nsg17
NsbsS'charge'
p1970
g0
(g1
g2
Ntp1971
Rp1972
(dp1973
g6
Nsg8
g16
sg10
Nsg17
NsbsS'reptiles'
p1974
g0
(g1
g2
Ntp1975
Rp1976
(dp1977
g6
Nsg8
g9
sg10
Nsg17
NsbsS'marks'
p1978
g0
(g1
g2
Ntp1979
Rp1980
(dp1981
g6
Nsg8
g16
sg10
Nsg17
NsbsS'terror'
p1982
g0
(g1
g2
Ntp1983
Rp1984
(dp1985
g6
Nsg8
g16
sg10
Nsg17
NsbsS'suffered'
p1986
g0
(g1
g2
Ntp1987
Rp1988
(dp1989
g6
Nsg8
g9
sg10
Nsg17
NsbsS'goodyear'
p1990
g0
(g1
g2
Ntp1991
Rp1992
(dp1993
g6
Nsg8
g16
sg10
Nsg17
NsbsS'southwest'
p1994
g0
(g1
g2
Ntp1995
Rp1996
(dp1997
g6
Nsg8
g9
sg10
Nsg17
NsbsS'paychecks'
p1998
g0
(g1
g2
Ntp1999
Rp2000
(dp2001
g6
Nsg8
g16
sg10
Nsg17
NsbsS'federation'
p2002
g0
(g1
g2
Ntp2003
Rp2004
(dp2005
g6
Nsg8
g16
sg10
Nsg17
NsbsS'beibei'
p2006
g0
(g1
g2
Ntp2007
Rp2008
(dp2009
g6
Nsg8
g9
sg10
Nsg17
NsbsS'zhang'
p2010
g0
(g1
g2
Ntp2011
Rp2012
(dp2013
g6
Nsg8
g16
sg10
Nsg17
NsbsS'cook'
p2014
g0
(g1
g2
Ntp2015
Rp2016
(dp2017
g6
Nsg8
g9
sg10
Nsg17
NsbsS'blast'
p2018
g0
(g1
g2
Ntp2019
Rp2020
(dp2021
g6
Nsg8
g9
sg10
Nsg17
NsbsS'governments'
p2022
g0
(g1
g2
Ntp2023
Rp2024
(dp2025
g6
Nsg8
g16
sg10
Nsg17
NsbsS'aggressively'
p2026
g0
(g1
g2
Ntp2027
Rp2028
(dp2029
g6
Nsg8
g16
sg10
Nsg17
NsbsS'din'
p2030
g0
(g1
g2
Ntp2031
Rp2032
(dp2033
g6
Nsg8
g16
sg10
Nsg17
NsbsS'clouds'
p2034
g0
(g1
g2
Ntp2035
Rp2036
(dp2037
g6
Nsg8
g16
sg10
Nsg17
NsbsS'staples'
p2038
g0
(g1
g2
Ntp2039
Rp2040
(dp2041
g6
Nsg8
g9
sg10
Nsg17
NsbsS'level'
p2042
g0
(g1
g2
Ntp2043
Rp2044
(dp2045
g6
Nsg8
g9
sg10
Nsg17
NsbsS'die'
p2046
g0
(g1
g2
Ntp2047
Rp2048
(dp2049
g6
Nsg8
g16
sg10
Nsg17
NsbsS'steeply'
p2050
g0
(g1
g2
Ntp2051
Rp2052
(dp2053
g6
Nsg8
g9
sg10
Nsg17
NsbsS'posts'
p2054
g0
(g1
g2
Ntp2055
Rp2056
(dp2057
g6
Nsg8
g16
sg10
Nsg17
NsbsS'keepers'
p2058
g0
(g1
g2
Ntp2059
Rp2060
(dp2061
g6
Nsg8
g16
sg10
Nsg17
NsbsS'standards'
p2062
g0
(g1
g2
Ntp2063
Rp2064
(dp2065
g6
Nsg8
g16
sg10
Nsg17
NsbsS'bikers'
p2066
g0
(g1
g2
Ntp2067
Rp2068
(dp2069
g6
Nsg8
g16
sg10
Nsg17
NsbsS'denounces'
p2070
g0
(g1
g2
Ntp2071
Rp2072
(dp2073
g6
Nsg8
g16
sg10
Nsg17
NsbsS'defaults'
p2074
g0
(g1
g2
Ntp2075
Rp2076
(dp2077
g6
Nsg8
g16
sg10
Nsg17
NsbsS'team'
p2078
g0
(g1
g2
Ntp2079
Rp2080
(dp2081
g6
Nsg8
g16
sg10
Nsg17
NsbsS'quick'
p2082
g0
(g1
g2
Ntp2083
Rp2084
(dp2085
g6
Nsg8
g16
sg10
Nsg17
NsbsS'fujian'
p2086
g0
(g1
g2
Ntp2087
Rp2088
(dp2089
g6
Nsg8
g9
sg10
Nsg17
NsbsS'upper'
p2090
g0
(g1
g2
Ntp2091
Rp2092
(dp2093
g6
Nsg8
g9
sg10
Nsg17
NsbsS'alfa'
p2094
g0
(g1
g2
Ntp2095
Rp2096
(dp2097
g6
Nsg8
g16
sg10
Nsg17
NsbsS'tougher'
p2098
g0
(g1
g2
Ntp2099
Rp2100
(dp2101
g6
Nsg8
g16
sg10
Nsg17
NsbsS'sign'
p2102
g0
(g1
g2
Ntp2103
Rp2104
(dp2105
g6
Nsg8
g9
sg10
Nsg17
NsbsS'cost'
p2106
g0
(g1
g2
Ntp2107
Rp2108
(dp2109
g6
Nsg8
g9
sg10
Nsg17
NsbsS'crescent'
p2110
g0
(g1
g2
Ntp2111
Rp2112
(dp2113
g6
Nsg8
g16
sg10
Nsg17
NsbsS'corner'
p2114
g0
(g1
g2
Ntp2115
Rp2116
(dp2117
g6
Nsg8
g16
sg10
Nsg17
NsbsS'documentwidth'
p2118
g0
(g1
g2
Ntp2119
Rp2120
(dp2121
g6
Nsg8
g16
sg10
Nsg17
NsbsS'afghanistan'
p2122
g0
(g1
g2
Ntp2123
Rp2124
(dp2125
g6
Nsg8
g16
sg10
Nsg17
NsbsS'havoc'
p2126
g0
(g1
g2
Ntp2127
Rp2128
(dp2129
g6
Nsg8
g9
sg10
Nsg17
NsbsS'landslides'
p2130
g0
(g1
g2
Ntp2131
Rp2132
(dp2133
g6
Nsg8
g9
sg10
Nsg17
NsbsS'lhasa'
p2134
g0
(g1
g2
Ntp2135
Rp2136
(dp2137
g6
Nsg8
g9
sg10
Nsg17
NsbsS'international'
p2138
g0
(g1
g2
Ntp2139
Rp2140
(dp2141
g6
Nsg8
g9
sg10
Nsg17
NsbsS'falling'
p2142
g0
(g1
g2
Ntp2143
Rp2144
(dp2145
g6
Nsg8
g9
sg10
Nsg17
NsbsS'appeal'
p2146
g0
(g1
g2
Ntp2147
Rp2148
(dp2149
g6
Nsg8
g16
sg10
Nsg17
NsbsS'badge'
p2150
g0
(g1
g2
Ntp2151
Rp2152
(dp2153
g6
Nsg8
g16
sg10
Nsg17
NsbsS'corn'
p2154
g0
(g1
g2
Ntp2155
Rp2156
(dp2157
g6
Nsg8
g16
sg10
Nsg17
NsbsS'hairy'
p2158
g0
(g1
g2
Ntp2159
Rp2160
(dp2161
g6
Nsg8
g16
sg10
Nsg17
NsbsS'guangzhou'
p2162
g0
(g1
g2
Ntp2163
Rp2164
(dp2165
g6
Nsg8
g16
sg10
Nsg17
NsbsS'water'
p2166
g0
(g1
g2
Ntp2167
Rp2168
(dp2169
g6
Nsg8
g9
sg10
Nsg17
NsbsS'groups'
p2170
g0
(g1
g2
Ntp2171
Rp2172
(dp2173
g6
Nsg8
g16
sg10
Nsg17
NsbsS'address'
p2174
g0
(g1
g2
Ntp2175
Rp2176
(dp2177
g6
Nsg8
g16
sg10
Nsg17
NsbsS'apache'
p2178
g0
(g1
g2
Ntp2179
Rp2180
(dp2181
g6
Nsg8
g16
sg10
Nsg17
NsbsS'toolbar'
p2182
g0
(g1
g2
Ntp2183
Rp2184
(dp2185
g6
Nsg8
g16
sg10
Nsg17
NsbsS'box'
p2186
g0
(g1
g2
Ntp2187
Rp2188
(dp2189
g6
Nsg8
g16
sg10
Nsg17
NsbsS'boy'
p2190
g0
(g1
g2
Ntp2191
Rp2192
(dp2193
g6
Nsg8
g16
sg10
Nsg17
NsbsS'plunges'
p2194
g0
(g1
g2
Ntp2195
Rp2196
(dp2197
g6
Nsg8
g16
sg10
Nsg17
NsbsS'canadian'
p2198
g0
(g1
g2
Ntp2199
Rp2200
(dp2201
g6
Nsg8
g16
sg10
Nsg17
NsbsS'healthy'
p2202
g0
(g1
g2
Ntp2203
Rp2204
(dp2205
g6
Nsg8
g16
sg10
Nsg17
NsbsS'replycharacters'
p2206
g0
(g1
g2
Ntp2207
Rp2208
(dp2209
g6
Nsg8
g16
sg10
Nsg17
NsbsS'navigation'
p2210
g0
(g1
g2
Ntp2211
Rp2212
(dp2213
g6
Nsg8
g9
sg10
Nsg17
NsbsS'taipei'
p2214
g0
(g1
g2
Ntp2215
Rp2216
(dp2217
g6
Nsg8
g9
sg10
Nsg17
NsbsS'teenage'
p2218
g0
(g1
g2
Ntp2219
Rp2220
(dp2221
g6
Nsg8
g16
sg10
Nsg17
NsbsS'ipd'
p2222
g0
(g1
g2
Ntp2223
Rp2224
(dp2225
g6
Nsg8
g16
sg10
Nsg17
NsbsS'extra'
p2226
g0
(g1
g2
Ntp2227
Rp2228
(dp2229
g6
Nsg8
g16
sg10
Nsg17
NsbsS'ethiopian'
p2230
g0
(g1
g2
Ntp2231
Rp2232
(dp2233
g6
Nsg8
g16
sg10
Nsg17
NsbsS'ipo'
p2234
g0
(g1
g2
Ntp2235
Rp2236
(dp2237
g6
Nsg8
g16
sg10
Nsg17
NsbsS'kayak'
p2238
g0
(g1
g2
Ntp2239
Rp2240
(dp2241
g6
Nsg8
g16
sg10
Nsg17
NsbsS'ians'
p2242
g0
(g1
g2
Ntp2243
Rp2244
(dp2245
g6
Nsg8
g9
sg10
Nsg17
NsbsS'crisis'
p2246
g0
(g1
g2
Ntp2247
Rp2248
(dp2249
g6
Nsg8
g16
sg10
Nsg17
NsbsS'market'
p2250
g0
(g1
g2
Ntp2251
Rp2252
(dp2253
g6
Nsg8
g16
sg10
Nsg17
NsbsS'argentinas'
p2254
g0
(g1
g2
Ntp2255
Rp2256
(dp2257
g6
Nsg8
g9
sg10
Nsg17
NsbsS'troops'
p2258
g0
(g1
g2
Ntp2259
Rp2260
(dp2261
g6
Nsg8
g9
sg10
Nsg17
NsbsS'working'
p2262
g0
(g1
g2
Ntp2263
Rp2264
(dp2265
g6
Nsg8
g9
sg10
Nsg17
NsbsS'allget'
p2266
g0
(g1
g2
Ntp2267
Rp2268
(dp2269
g6
Nsg8
g16
sg10
Nsg17
NsbsS'angry'
p2270
g0
(g1
g2
Ntp2271
Rp2272
(dp2273
g6
Nsg8
g16
sg10
Nsg17
NsbsS'visit'
p2274
g0
(g1
g2
Ntp2275
Rp2276
(dp2277
g6
Nsg8
g9
sg10
Nsg17
NsbsS'angela'
p2278
g0
(g1
g2
Ntp2279
Rp2280
(dp2281
g6
Nsg8
g16
sg10
Nsg17
NsbsS'sports'
p2282
g0
(g1
g2
Ntp2283
Rp2284
(dp2285
g6
Nsg8
g16
sg10
Nsg17
NsbsS'live'
p2286
g0
(g1
g2
Ntp2287
Rp2288
(dp2289
g6
Nsg8
g16
sg10
Nsg17
NsbsS'https'
p2290
g0
(g1
g2
Ntp2291
Rp2292
(dp2293
g6
Nsg8
g16
sg10
Nsg17
NsbsS'rainfall'
p2294
g0
(g1
g2
Ntp2295
Rp2296
(dp2297
g6
Nsg8
g9
sg10
Nsg17
NsbsS'commissioner'
p2298
g0
(g1
g2
Ntp2299
Rp2300
(dp2301
g6
Nsg8
g9
sg10
Nsg17
NsbsS'club'
p2302
g0
(g1
g2
Ntp2303
Rp2304
(dp2305
g6
Nsg8
g9
sg10
Nsg17
NsbsS'fuel'
p2306
g0
(g1
g2
Ntp2307
Rp2308
(dp2309
g6
Nsg8
g9
sg10
Nsg17
NsbsS'cases'
p2310
g0
(g1
g2
Ntp2311
Rp2312
(dp2313
g6
Nsg8
g16
sg10
Nsg17
NsbsS'effort'
p2314
g0
(g1
g2
Ntp2315
Rp2316
(dp2317
g6
Nsg8
g16
sg10
Nsg17
NsbsS'fly'
p2318
g0
(g1
g2
Ntp2319
Rp2320
(dp2321
g6
Nsg8
g16
sg10
Nsg17
NsbsS'tokyo'
p2322
g0
(g1
g2
Ntp2323
Rp2324
(dp2325
g6
Nsg8
g16
sg10
Nsg17
NsbsS'alterra'
p2326
g0
(g1
g2
Ntp2327
Rp2328
(dp2329
g6
Nsg8
g16
sg10
Nsg17
NsbsS'thousands'
p2330
g0
(g1
g2
Ntp2331
Rp2332
(dp2333
g6
Nsg8
g9
sg10
Nsg17
NsbsS'facilitating'
p2334
g0
(g1
g2
Ntp2335
Rp2336
(dp2337
g6
Nsg8
g16
sg10
Nsg17
NsbsS'flu'
p2338
g0
(g1
g2
Ntp2339
Rp2340
(dp2341
g6
Nsg8
g16
sg10
Nsg17
NsbsS'cai'
p2342
g0
(g1
g2
Ntp2343
Rp2344
(dp2345
g6
Nsg8
g9
sg10
Nsg17
NsbsS'cam'
p2346
g0
(g1
g2
Ntp2347
Rp2348
(dp2349
g6
Nsg8
g16
sg10
Nsg17
NsbsS'growing'
p2350
g0
(g1
g2
Ntp2351
Rp2352
(dp2353
g6
Nsg8
g9
sg10
Nsg17
NsbsS'ferry'
p2354
g0
(g1
g2
Ntp2355
Rp2356
(dp2357
g6
Nsg8
g9
sg10
Nsg17
NsbsS'claim'
p2358
g0
(g1
g2
Ntp2359
Rp2360
(dp2361
g6
Nsg8
g16
sg10
Nsg17
NsbsS'monday'
p2362
g0
(g1
g2
Ntp2363
Rp2364
(dp2365
g6
Nsg8
g9
sg10
Nsg17
NsbsS'stream'
p2366
g0
(g1
g2
Ntp2367
Rp2368
(dp2369
g6
Nsg8
g16
sg10
Nsg17
NsbsS'subsidies'
p2370
g0
(g1
g2
Ntp2371
Rp2372
(dp2373
g6
Nsg8
g9
sg10
Nsg17
NsbsS'newsletters'
p2374
g0
(g1
g2
Ntp2375
Rp2376
(dp2377
g6
Nsg8
g16
sg10
Nsg17
NsbsS'topic'
p2378
g0
(g1
g2
Ntp2379
Rp2380
(dp2381
g6
Nsg8
g16
sg10
Nsg17
NsbsS'stroke'
p2382
g0
(g1
g2
Ntp2383
Rp2384
(dp2385
g6
Nsg8
g16
sg10
Nsg17
NsbsS'battered'
p2386
g0
(g1
g2
Ntp2387
Rp2388
(dp2389
g6
Nsg8
g9
sg10
Nsg17
NsbsS'council'
p2390
g0
(g1
g2
Ntp2391
Rp2392
(dp2393
g6
Nsg8
g9
sg10
Nsg17
NsbsS'allowed'
p2394
g0
(g1
g2
Ntp2395
Rp2396
(dp2397
g6
Nsg8
g16
sg10
Nsg17
NsbsS'dennis'
p2398
g0
(g1
g2
Ntp2399
Rp2400
(dp2401
g6
Nsg8
g9
sg10
Nsg17
NsbsS'occur'
p2402
g0
(g1
g2
Ntp2403
Rp2404
(dp2405
g6
Nsg8
g9
sg10
Nsg17
NsbsS'pink'
p2406
g0
(g1
g2
Ntp2407
Rp2408
(dp2409
g6
Nsg8
g16
sg10
Nsg17
NsbsS'monitoring'
p2410
g0
(g1
g2
Ntp2411
Rp2412
(dp2413
g6
Nsg8
g16
sg10
Nsg17
NsbsS'winter'
p2414
g0
(g1
g2
Ntp2415
Rp2416
(dp2417
g6
Nsg8
g16
sg10
Nsg17
NsbsS'till'
p2418
g0
(g1
g2
Ntp2419
Rp2420
(dp2421
g6
Nsg8
g9
sg10
Nsg17
NsbsS'sunday'
p2422
g0
(g1
g2
Ntp2423
Rp2424
(dp2425
g6
Nsg8
g9
sg10
Nsg17
NsbsS'economy'
p2426
g0
(g1
g2
Ntp2427
Rp2428
(dp2429
g6
Nsg8
g16
sg10
Nsg17
NsbsS'mar'
p2430
g0
(g1
g2
Ntp2431
Rp2432
(dp2433
g6
Nsg8
g16
sg10
Nsg17
NsbsS'huge'
p2434
g0
(g1
g2
Ntp2435
Rp2436
(dp2437
g6
Nsg8
g16
sg10
Nsg17
NsbsS'aol'
p2438
g0
(g1
g2
Ntp2439
Rp2440
(dp2441
g6
Nsg8
g16
sg10
Nsg17
NsbsS'southern'
p2442
g0
(g1
g2
Ntp2443
Rp2444
(dp2445
g6
Nsg8
g16
sg10
Nsg17
NsbsS'mac'
p2446
g0
(g1
g2
Ntp2447
Rp2448
(dp2449
g6
Nsg8
g16
sg10
Nsg17
NsbsS'produce'
p2450
g0
(g1
g2
Ntp2451
Rp2452
(dp2453
g6
Nsg8
g16
sg10
Nsg17
NsbsS'mai'
p2454
g0
(g1
g2
Ntp2455
Rp2456
(dp2457
g6
Nsg8
g9
sg10
Nsg17
NsbsS'drastic'
p2458
g0
(g1
g2
Ntp2459
Rp2460
(dp2461
g6
Nsg8
g16
sg10
Nsg17
NsbsS'mak'
p2462
g0
(g1
g2
Ntp2463
Rp2464
(dp2465
g6
Nsg8
g16
sg10
Nsg17
NsbsS'data'
p2466
g0
(g1
g2
Ntp2467
Rp2468
(dp2469
g6
Nsg8
g16
sg10
Nsg17
NsbsS'mao'
p2470
g0
(g1
g2
Ntp2471
Rp2472
(dp2473
g6
Nsg8
g9
sg10
Nsg17
NsbsS'man'
p2474
g0
(g1
g2
Ntp2475
Rp2476
(dp2477
g6
Nsg8
g16
sg10
Nsg17
NsbsS'gorges'
p2478
g0
(g1
g2
Ntp2479
Rp2480
(dp2481
g6
Nsg8
g9
sg10
Nsg17
NsbsS'permalink'
p2482
g0
(g1
g2
Ntp2483
Rp2484
(dp2485
g6
Nsg8
g9
sg10
Nsg17
NsbsS'natural'
p2486
g0
(g1
g2
Ntp2487
Rp2488
(dp2489
g6
Nsg8
g16
sg10
Nsg17
NsbsS'thissign'
p2490
g0
(g1
g2
Ntp2491
Rp2492
(dp2493
g6
Nsg8
g16
sg10
Nsg17
NsbsS'mango'
p2494
g0
(g1
g2
Ntp2495
Rp2496
(dp2497
g6
Nsg8
g16
sg10
Nsg17
NsbsS'truck'
p2498
g0
(g1
g2
Ntp2499
Rp2500
(dp2501
g6
Nsg8
g16
sg10
Nsg17
NsbsS'african'
p2502
g0
(g1
g2
Ntp2503
Rp2504
(dp2505
g6
Nsg8
g16
sg10
Nsg17
NsbsS'embassies'
p2506
g0
(g1
g2
Ntp2507
Rp2508
(dp2509
g6
Nsg8
g9
sg10
Nsg17
NsbsS'ulan'
p2510
g0
(g1
g2
Ntp2511
Rp2512
(dp2513
g6
Nsg8
g16
sg10
Nsg17
NsbsS'foreclosure'
p2514
g0
(g1
g2
Ntp2515
Rp2516
(dp2517
g6
Nsg8
g16
sg10
Nsg17
NsbsS'blocker'
p2518
g0
(g1
g2
Ntp2519
Rp2520
(dp2521
g6
Nsg8
g16
sg10
Nsg17
NsbsS'anthrazit'
p2522
g0
(g1
g2
Ntp2523
Rp2524
(dp2525
g6
Nsg8
g16
sg10
Nsg17
NsbsS'reaffirms'
p2526
g0
(g1
g2
Ntp2527
Rp2528
(dp2529
g6
Nsg8
g16
sg10
Nsg17
NsbsS'thomson'
p2530
g0
(g1
g2
Ntp2531
Rp2532
(dp2533
g6
Nsg8
g9
sg10
Nsg17
NsbsS'nbsp'
p2534
g0
(g1
g2
Ntp2535
Rp2536
(dp2537
g6
Nsg8
g9
sg10
Nsg17
NsbsS'cuts'
p2538
g0
(g1
g2
Ntp2539
Rp2540
(dp2541
g6
Nsg8
g16
sg10
Nsg17
NsbsS'kanye'
p2542
g0
(g1
g2
Ntp2543
Rp2544
(dp2545
g6
Nsg8
g16
sg10
Nsg17
NsbsS'cold'
p2546
g0
(g1
g2
Ntp2547
Rp2548
(dp2549
g6
Nsg8
g9
sg10
Nsg17
NsbsS'birds'
p2550
g0
(g1
g2
Ntp2551
Rp2552
(dp2553
g6
Nsg8
g16
sg10
Nsg17
NsbsS'police'
p2554
g0
(g1
g2
Ntp2555
Rp2556
(dp2557
g6
Nsg8
g16
sg10
Nsg17
NsbsS'acknowledge'
p2558
g0
(g1
g2
Ntp2559
Rp2560
(dp2561
g6
Nsg8
g16
sg10
Nsg17
NsbsS'jim'
p2562
g0
(g1
g2
Ntp2563
Rp2564
(dp2565
g6
Nsg8
g16
sg10
Nsg17
NsbsS'platform'
p2566
g0
(g1
g2
Ntp2567
Rp2568
(dp2569
g6
Nsg8
g16
sg10
Nsg17
NsbsS'osorno'
p2570
g0
(g1
g2
Ntp2571
Rp2572
(dp2573
g6
Nsg8
g9
sg10
Nsg17
NsbsS'farmer'
p2574
g0
(g1
g2
Ntp2575
Rp2576
(dp2577
g6
Nsg8
g16
sg10
Nsg17
NsbsS'policy'
p2578
g0
(g1
g2
Ntp2579
Rp2580
(dp2581
g6
Nsg8
g16
sg10
Nsg17
NsbsS'mail'
p2582
g0
(g1
g2
Ntp2583
Rp2584
(dp2585
g6
Nsg8
g9
sg10
Nsg17
NsbsS'areas'
p2586
g0
(g1
g2
Ntp2587
Rp2588
(dp2589
g6
Nsg8
g9
sg10
Nsg17
NsbsS'texas'
p2590
g0
(g1
g2
Ntp2591
Rp2592
(dp2593
g6
Nsg8
g16
sg10
Nsg17
NsbsS'noi'
p2594
g0
(g1
g2
Ntp2595
Rp2596
(dp2597
g6
Nsg8
g16
sg10
Nsg17
NsbsS'views'
p2598
g0
(g1
g2
Ntp2599
Rp2600
(dp2601
g6
Nsg8
g9
sg10
Nsg17
NsbsS'evacuation'
p2602
g0
(g1
g2
Ntp2603
Rp2604
(dp2605
g6
Nsg8
g9
sg10
Nsg17
NsbsS'nation'
p2606
g0
(g1
g2
Ntp2607
Rp2608
(dp2609
g6
Nsg8
g9
sg10
Nsg17
NsbsS'records'
p2610
g0
(g1
g2
Ntp2611
Rp2612
(dp2613
g6
Nsg8
g9
sg10
Nsg17
NsbsS'taliban'
p2614
g0
(g1
g2
Ntp2615
Rp2616
(dp2617
g6
Nsg8
g16
sg10
Nsg17
NsbsS'drilling'
p2618
g0
(g1
g2
Ntp2619
Rp2620
(dp2621
g6
Nsg8
g16
sg10
Nsg17
NsbsS'subscribers'
p2622
g0
(g1
g2
Ntp2623
Rp2624
(dp2625
g6
Nsg8
g16
sg10
Nsg17
NsbsS'half'
p2626
g0
(g1
g2
Ntp2627
Rp2628
(dp2629
g6
Nsg8
g9
sg10
Nsg17
NsbsS'fushun'
p2630
g0
(g1
g2
Ntp2631
Rp2632
(dp2633
g6
Nsg8
g9
sg10
Nsg17
NsbsS'discuss'
p2634
g0
(g1
g2
Ntp2635
Rp2636
(dp2637
g6
Nsg8
g16
sg10
Nsg17
NsbsS'developments'
p2638
g0
(g1
g2
Ntp2639
Rp2640
(dp2641
g6
Nsg8
g9
sg10
Nsg17
NsbsS'permissions'
p2642
g0
(g1
g2
Ntp2643
Rp2644
(dp2645
g6
Nsg8
g16
sg10
Nsg17
NsbsS'taishan'
p2646
g0
(g1
g2
Ntp2647
Rp2648
(dp2649
g6
Nsg8
g16
sg10
Nsg17
NsbsS'latinovoices'
p2650
g0
(g1
g2
Ntp2651
Rp2652
(dp2653
g6
Nsg8
g16
sg10
Nsg17
NsbsS'newsfeeds'
p2654
g0
(g1
g2
Ntp2655
Rp2656
(dp2657
g6
Nsg8
g16
sg10
Nsg17
NsbsS'drop'
p2658
g0
(g1
g2
Ntp2659
Rp2660
(dp2661
g6
Nsg8
g9
sg10
Nsg17
NsbsS'quarter'
p2662
g0
(g1
g2
Ntp2663
Rp2664
(dp2665
g6
Nsg8
g16
sg10
Nsg17
NsbsS'el'
p2666
g0
(g1
g2
Ntp2667
Rp2668
(dp2669
g6
Nsg8
g9
sg10
Nsg17
NsbsS'fired'
p2670
g0
(g1
g2
Ntp2671
Rp2672
(dp2673
g6
Nsg8
g16
sg10
Nsg17
NsbsS'revised'
p2674
g0
(g1
g2
Ntp2675
Rp2676
(dp2677
g6
Nsg8
g16
sg10
Nsg17
NsbsS'fr'
p2678
g0
(g1
g2
Ntp2679
Rp2680
(dp2681
g6
Nsg8
g16
sg10
Nsg17
NsbsS'year'
p2682
g0
(g1
g2
Ntp2683
Rp2684
(dp2685
g6
Nsg8
g9
sg10
Nsg17
NsbsS'eu'
p2686
g0
(g1
g2
Ntp2687
Rp2688
(dp2689
g6
Nsg8
g9
sg10
Nsg17
NsbsS'reprints'
p2690
g0
(g1
g2
Ntp2691
Rp2692
(dp2693
g6
Nsg8
g9
sg10
Nsg17
NsbsS'disasters'
p2694
g0
(g1
g2
Ntp2695
Rp2696
(dp2697
g6
Nsg8
g9
sg10
Nsg17
NsbsS'lai'
p2698
g0
(g1
g2
Ntp2699
Rp2700
(dp2701
g6
Nsg8
g9
sg10
Nsg17
NsbsS'canada'
p2702
g0
(g1
g2
Ntp2703
Rp2704
(dp2705
g6
Nsg8
g16
sg10
Nsg17
NsbsS'living'
p2706
g0
(g1
g2
Ntp2707
Rp2708
(dp2709
g6
Nsg8
g16
sg10
Nsg17
NsbsS'guangdong'
p2710
g0
(g1
g2
Ntp2711
Rp2712
(dp2713
g6
Nsg8
g9
sg10
Nsg17
NsbsS'jackson'
p2714
g0
(g1
g2
Ntp2715
Rp2716
(dp2717
g6
Nsg8
g16
sg10
Nsg17
NsbsS'webcasts'
p2718
g0
(g1
g2
Ntp2719
Rp2720
(dp2721
g6
Nsg8
g16
sg10
Nsg17
NsbsS'space'
p2722
g0
(g1
g2
Ntp2723
Rp2724
(dp2725
g6
Nsg8
g16
sg10
Nsg17
NsbsS'oklahoma'
p2726
g0
(g1
g2
Ntp2727
Rp2728
(dp2729
g6
Nsg8
g16
sg10
Nsg17
NsbsS'increase'
p2730
g0
(g1
g2
Ntp2731
Rp2732
(dp2733
g6
Nsg8
g16
sg10
Nsg17
NsbsS'internet'
p2734
g0
(g1
g2
Ntp2735
Rp2736
(dp2737
g6
Nsg8
g16
sg10
Nsg17
NsbsS'shows'
p2738
g0
(g1
g2
Ntp2739
Rp2740
(dp2741
g6
Nsg8
g16
sg10
Nsg17
NsbsS'state'
p2742
g0
(g1
g2
Ntp2743
Rp2744
(dp2745
g6
Nsg8
g16
sg10
Nsg17
NsbsS'cars'
p2746
g0
(g1
g2
Ntp2747
Rp2748
(dp2749
g6
Nsg8
g16
sg10
Nsg17
NsbsS'million'
p2750
g0
(g1
g2
Ntp2751
Rp2752
(dp2753
g6
Nsg8
g9
sg10
Nsg17
NsbsS'pumping'
p2754
g0
(g1
g2
Ntp2755
Rp2756
(dp2757
g6
Nsg8
g9
sg10
Nsg17
NsbsS'california'
p2758
g0
(g1
g2
Ntp2759
Rp2760
(dp2761
g6
Nsg8
g16
sg10
Nsg17
NsbsS'rebel'
p2762
g0
(g1
g2
Ntp2763
Rp2764
(dp2765
g6
Nsg8
g16
sg10
Nsg17
NsbsS'trademarks'
p2766
g0
(g1
g2
Ntp2767
Rp2768
(dp2769
g6
Nsg8
g9
sg10
Nsg17
NsbsS'care'
p2770
g0
(g1
g2
Ntp2771
Rp2772
(dp2773
g6
Nsg8
g16
sg10
Nsg17
NsbsS'language'
p2774
g0
(g1
g2
Ntp2775
Rp2776
(dp2777
g6
Nsg8
g16
sg10
Nsg17
NsbsS'ministry'
p2778
g0
(g1
g2
Ntp2779
Rp2780
(dp2781
g6
Nsg8
g9
sg10
Nsg17
NsbsS'british'
p2782
g0
(g1
g2
Ntp2783
Rp2784
(dp2785
g6
Nsg8
g16
sg10
Nsg17
NsbsS'initiate'
p2786
g0
(g1
g2
Ntp2787
Rp2788
(dp2789
g6
Nsg8
g16
sg10
Nsg17
NsbsS'palaces'
p2790
g0
(g1
g2
Ntp2791
Rp2792
(dp2793
g6
Nsg8
g16
sg10
Nsg17
NsbsS'closethe'
p2794
g0
(g1
g2
Ntp2795
Rp2796
(dp2797
g6
Nsg8
g16
sg10
Nsg17
NsbsS'revenue'
p2798
g0
(g1
g2
Ntp2799
Rp2800
(dp2801
g6
Nsg8
g16
sg10
Nsg17
NsbsS'municipality'
p2802
g0
(g1
g2
Ntp2803
Rp2804
(dp2805
g6
Nsg8
g9
sg10
Nsg17
NsbsS'americans'
p2806
g0
(g1
g2
Ntp2807
Rp2808
(dp2809
g6
Nsg8
g16
sg10
Nsg17
NsbsS'vote'
p2810
g0
(g1
g2
Ntp2811
Rp2812
(dp2813
g6
Nsg8
g9
sg10
Nsg17
NsbsS'message'
p2814
g0
(g1
g2
Ntp2815
Rp2816
(dp2817
g6
Nsg8
g16
sg10
Nsg17
NsbsS'open'
p2818
g0
(g1
g2
Ntp2819
Rp2820
(dp2821
g6
Nsg8
g16
sg10
Nsg17
NsbsS'engineer'
p2822
g0
(g1
g2
Ntp2823
Rp2824
(dp2825
g6
Nsg8
g16
sg10
Nsg17
NsbsS'city'
p2826
g0
(g1
g2
Ntp2827
Rp2828
(dp2829
g6
Nsg8
g9
sg10
Nsg17
NsbsS'district'
p2830
g0
(g1
g2
Ntp2831
Rp2832
(dp2833
g6
Nsg8
g9
sg10
Nsg17
NsbsS'bite'
p2834
g0
(g1
g2
Ntp2835
Rp2836
(dp2837
g6
Nsg8
g16
sg10
Nsg17
NsbsS'plains'
p2838
g0
(g1
g2
Ntp2839
Rp2840
(dp2841
g6
Nsg8
g9
sg10
Nsg17
NsbsS'checker'
p2842
g0
(g1
g2
Ntp2843
Rp2844
(dp2845
g6
Nsg8
g16
sg10
Nsg17
NsbsS'walid'
p2846
g0
(g1
g2
Ntp2847
Rp2848
(dp2849
g6
Nsg8
g16
sg10
Nsg17
NsbsS'friend'
p2850
g0
(g1
g2
Ntp2851
Rp2852
(dp2853
g6
Nsg8
g16
sg10
Nsg17
NsbsS'mining'
p2854
g0
(g1
g2
Ntp2855
Rp2856
(dp2857
g6
Nsg8
g16
sg10
Nsg17
NsbsS'releases'
p2858
g0
(g1
g2
Ntp2859
Rp2860
(dp2861
g6
Nsg8
g16
sg10
Nsg17
NsbsS'season'
p2862
g0
(g1
g2
Ntp2863
Rp2864
(dp2865
g6
Nsg8
g9
sg10
Nsg17
NsbsS'released'
p2866
g0
(g1
g2
Ntp2867
Rp2868
(dp2869
g6
Nsg8
g9
sg10
Nsg17
NsbsS'short'
p2870
g0
(g1
g2
Ntp2871
Rp2872
(dp2873
g6
Nsg8
g16
sg10
Nsg17
NsbsS'flexituff'
p2874
g0
(g1
g2
Ntp2875
Rp2876
(dp2877
g6
Nsg8
g16
sg10
Nsg17
NsbsS'copy'
p2878
g0
(g1
g2
Ntp2879
Rp2880
(dp2881
g6
Nsg8
g16
sg10
Nsg17
NsbsS'fhfa'
p2882
g0
(g1
g2
Ntp2883
Rp2884
(dp2885
g6
Nsg8
g16
sg10
Nsg17
NsbsS'connections'
p2886
g0
(g1
g2
Ntp2887
Rp2888
(dp2889
g6
Nsg8
g16
sg10
Nsg17
NsbsS'future'
p2890
g0
(g1
g2
Ntp2891
Rp2892
(dp2893
g6
Nsg8
g16
sg10
Nsg17
NsbsS'accountorfill'
p2894
g0
(g1
g2
Ntp2895
Rp2896
(dp2897
g6
Nsg8
g16
sg10
Nsg17
NsbsS'fruits'
p2898
g0
(g1
g2
Ntp2899
Rp2900
(dp2901
g6
Nsg8
g16
sg10
Nsg17
NsbsS'college'
p2902
g0
(g1
g2
Ntp2903
Rp2904
(dp2905
g6
Nsg8
g16
sg10
Nsg17
NsbsS'browser'
p2906
g0
(g1
g2
Ntp2907
Rp2908
(dp2909
g6
Nsg8
g16
sg10
Nsg17
NsbsS'talim'
p2910
g0
(g1
g2
Ntp2911
Rp2912
(dp2913
g6
Nsg8
g9
sg10
Nsg17
NsbsS'cellulosic'
p2914
g0
(g1
g2
Ntp2915
Rp2916
(dp2917
g6
Nsg8
g16
sg10
Nsg17
NsbsS'investors'
p2918
g0
(g1
g2
Ntp2919
Rp2920
(dp2921
g6
Nsg8
g16
sg10
Nsg17
NsbsS'topics'
p2922
g0
(g1
g2
Ntp2923
Rp2924
(dp2925
g6
Nsg8
g16
sg10
Nsg17
NsbsS'nazi'
p2926
g0
(g1
g2
Ntp2927
Rp2928
(dp2929
g6
Nsg8
g16
sg10
Nsg17
NsbsS'surgery'
p2930
g0
(g1
g2
Ntp2931
Rp2932
(dp2933
g6
Nsg8
g16
sg10
Nsg17
NsbsS'pageinsightserror'
p2934
g0
(g1
g2
Ntp2935
Rp2936
(dp2937
g6
Nsg8
g16
sg10
Nsg17
NsbsS'dailymotionaboutpressjobsall'
p2938
g0
(g1
g2
Ntp2939
Rp2940
(dp2941
g6
Nsg8
g9
sg10
Nsg17
NsbsS'efficient'
p2942
g0
(g1
g2
Ntp2943
Rp2944
(dp2945
g6
Nsg8
g16
sg10
Nsg17
NsbsS'shocked'
p2946
g0
(g1
g2
Ntp2947
Rp2948
(dp2949
g6
Nsg8
g16
sg10
Nsg17
NsbsS'sciences'
p2950
g0
(g1
g2
Ntp2951
Rp2952
(dp2953
g6
Nsg8
g16
sg10
Nsg17
NsbsS'online'
p2954
g0
(g1
g2
Ntp2955
Rp2956
(dp2957
g6
Nsg8
g16
sg10
Nsg17
NsbsS'channel'
p2958
g0
(g1
g2
Ntp2959
Rp2960
(dp2961
g6
Nsg8
g9
sg10
Nsg17
NsbsS'santiago'
p2962
g0
(g1
g2
Ntp2963
Rp2964
(dp2965
g6
Nsg8
g9
sg10
Nsg17
NsbsS'multiple'
p2966
g0
(g1
g2
Ntp2967
Rp2968
(dp2969
g6
Nsg8
g16
sg10
Nsg17
NsbsS'price'
p2970
g0
(g1
g2
Ntp2971
Rp2972
(dp2973
g6
Nsg8
g16
sg10
Nsg17
NsbsS'hometown'
p2974
g0
(g1
g2
Ntp2975
Rp2976
(dp2977
g6
Nsg8
g16
sg10
Nsg17
NsbsS'visitors'
p2978
g0
(g1
g2
Ntp2979
Rp2980
(dp2981
g6
Nsg8
g16
sg10
Nsg17
NsbsS'donation'
p2982
g0
(g1
g2
Ntp2983
Rp2984
(dp2985
g6
Nsg8
g16
sg10
Nsg17
NsbsS'highertorrential'
p2986
g0
(g1
g2
Ntp2987
Rp2988
(dp2989
g6
Nsg8
g9
sg10
Nsg17
NsbsS'registering'
p2990
g0
(g1
g2
Ntp2991
Rp2992
(dp2993
g6
Nsg8
g16
sg10
Nsg17
NsbsS'seafood'
p2994
g0
(g1
g2
Ntp2995
Rp2996
(dp2997
g6
Nsg8
g16
sg10
Nsg17
NsbsS'sale'
p2998
g0
(g1
g2
Ntp2999
Rp3000
(dp3001
g6
Nsg8
g16
sg10
Nsg17
NsbsS'atlantic'
p3002
g0
(g1
g2
Ntp3003
Rp3004
(dp3005
g6
Nsg8
g9
sg10
Nsg17
NsbsS'filing'
p3006
g0
(g1
g2
Ntp3007
Rp3008
(dp3009
g6
Nsg8
g16
sg10
Nsg17
NsbsS'jiangxi'
p3010
g0
(g1
g2
Ntp3011
Rp3012
(dp3013
g6
Nsg8
g9
sg10
Nsg17
NsbsS'rating'
p3014
g0
(g1
g2
Ntp3015
Rp3016
(dp3017
g6
Nsg8
g9
sg10
Nsg17
NsbsS'autoradioblende'
p3018
g0
(g1
g2
Ntp3019
Rp3020
(dp3021
g6
Nsg8
g16
sg10
Nsg17
NsbsS'shot'
p3022
g0
(g1
g2
Ntp3023
Rp3024
(dp3025
g6
Nsg8
g16
sg10
Nsg17
NsbsS'show'
p3026
g0
(g1
g2
Ntp3027
Rp3028
(dp3029
g6
Nsg8
g16
sg10
Nsg17
NsbsS'fifty'
p3030
g0
(g1
g2
Ntp3031
Rp3032
(dp3033
g6
Nsg8
g9
sg10
Nsg17
NsbsS'downpours'
p3034
g0
(g1
g2
Ntp3035
Rp3036
(dp3037
g6
Nsg8
g9
sg10
Nsg17
NsbsS'troy'
p3038
g0
(g1
g2
Ntp3039
Rp3040
(dp3041
g6
Nsg8
g16
sg10
Nsg17
NsbsS'colombo'
p3042
g0
(g1
g2
Ntp3043
Rp3044
(dp3045
g6
Nsg8
g16
sg10
Nsg17
NsbsS'southwestern'
p3046
g0
(g1
g2
Ntp3047
Rp3048
(dp3049
g6
Nsg8
g9
sg10
Nsg17
NsbsS'anticyclone'
p3050
g0
(g1
g2
Ntp3051
Rp3052
(dp3053
g6
Nsg8
g9
sg10
Nsg17
NsbsS'ground'
p3054
g0
(g1
g2
Ntp3055
Rp3056
(dp3057
g6
Nsg8
g9
sg10
Nsg17
NsbsS'feng'
p3058
g0
(g1
g2
Ntp3059
Rp3060
(dp3061
g6
Nsg8
g9
sg10
Nsg17
NsbsS'upgrade'
p3062
g0
(g1
g2
Ntp3063
Rp3064
(dp3065
g6
Nsg8
g9
sg10
Nsg17
NsbsS'moshan'
p3066
g0
(g1
g2
Ntp3067
Rp3068
(dp3069
g6
Nsg8
g9
sg10
Nsg17
NsbsS'gulf'
p3070
g0
(g1
g2
Ntp3071
Rp3072
(dp3073
g6
Nsg8
g16
sg10
Nsg17
NsbsS'title'
p3074
g0
(g1
g2
Ntp3075
Rp3076
(dp3077
g6
Nsg8
g9
sg10
Nsg17
NsbsS'storms'
p3078
g0
(g1
g2
Ntp3079
Rp3080
(dp3081
g6
Nsg8
g9
sg10
Nsg17
NsbsS'skits'
p3082
g0
(g1
g2
Ntp3083
Rp3084
(dp3085
g6
Nsg8
g16
sg10
Nsg17
NsbsS'crime'
p3086
g0
(g1
g2
Ntp3087
Rp3088
(dp3089
g6
Nsg8
g16
sg10
Nsg17
NsbsS'september'
p3090
g0
(g1
g2
Ntp3091
Rp3092
(dp3093
g6
Nsg8
g9
sg10
Nsg17
NsbsS'xunjiang'
p3094
g0
(g1
g2
Ntp3095
Rp3096
(dp3097
g6
Nsg8
g9
sg10
Nsg17
NsbsS'awareness'
p3098
g0
(g1
g2
Ntp3099
Rp3100
(dp3101
g6
Nsg8
g16
sg10
Nsg17
NsbsS'carolina'
p3102
g0
(g1
g2
Ntp3103
Rp3104
(dp3105
g6
Nsg8
g16
sg10
Nsg17
NsbsS'tuojiang'
p3106
g0
(g1
g2
Ntp3107
Rp3108
(dp3109
g6
Nsg8
g9
sg10
Nsg17
NsbsS'contracts'
p3110
g0
(g1
g2
Ntp3111
Rp3112
(dp3113
g6
Nsg8
g16
sg10
Nsg17
NsbsS'sst'
p3114
g0
(g1
g2
Ntp3115
Rp3116
(dp3117
g6
Nsg8
g9
sg10
Nsg17
NsbsS'merkel'
p3118
g0
(g1
g2
Ntp3119
Rp3120
(dp3121
g6
Nsg8
g16
sg10
Nsg17
NsbsS'conjunction'
p3122
g0
(g1
g2
Ntp3123
Rp3124
(dp3125
g6
Nsg8
g16
sg10
Nsg17
NsbsS'jiamusi'
p3126
g0
(g1
g2
Ntp3127
Rp3128
(dp3129
g6
Nsg8
g9
sg10
Nsg17
NsbsS'prime'
p3130
g0
(g1
g2
Ntp3131
Rp3132
(dp3133
g6
Nsg8
g16
sg10
Nsg17
NsbsS'floods'
p3134
g0
(g1
g2
Ntp3135
Rp3136
(dp3137
g6
Nsg8
g9
sg10
Nsg17
NsbsS'morning'
p3138
g0
(g1
g2
Ntp3139
Rp3140
(dp3141
g6
Nsg8
g16
sg10
Nsg17
NsbsS'naked'
p3142
g0
(g1
g2
Ntp3143
Rp3144
(dp3145
g6
Nsg8
g16
sg10
Nsg17
NsbsS'hangzhou'
p3146
g0
(g1
g2
Ntp3147
Rp3148
(dp3149
g6
Nsg8
g9
sg10
Nsg17
NsbsS'miles'
p3150
g0
(g1
g2
Ntp3151
Rp3152
(dp3153
g6
Nsg8
g16
sg10
Nsg17
NsbsS'inforgot'
p3154
g0
(g1
g2
Ntp3155
Rp3156
(dp3157
g6
Nsg8
g9
sg10
Nsg17
NsbsS'discussing'
p3158
g0
(g1
g2
Ntp3159
Rp3160
(dp3161
g6
Nsg8
g16
sg10
Nsg17
NsbsS'village'
p3162
g0
(g1
g2
Ntp3163
Rp3164
(dp3165
g6
Nsg8
g9
sg10
Nsg17
NsbsS'bulgaria'
p3166
g0
(g1
g2
Ntp3167
Rp3168
(dp3169
g6
Nsg8
g16
sg10
Nsg17
NsbsS'reveals'
p3170
g0
(g1
g2
Ntp3171
Rp3172
(dp3173
g6
Nsg8
g16
sg10
Nsg17
NsbsS'committee'
p3174
g0
(g1
g2
Ntp3175
Rp3176
(dp3177
g6
Nsg8
g16
sg10
Nsg17
NsbsS'seat'
p3178
g0
(g1
g2
Ntp3179
Rp3180
(dp3181
g6
Nsg8
g16
sg10
Nsg17
NsbsS'rmb'
p3182
g0
(g1
g2
Ntp3183
Rp3184
(dp3185
g6
Nsg8
g16
sg10
Nsg17
NsbsS'elected'
p3186
g0
(g1
g2
Ntp3187
Rp3188
(dp3189
g6
Nsg8
g16
sg10
Nsg17
NsbsS'milsatcom'
p3190
g0
(g1
g2
Ntp3191
Rp3192
(dp3193
g6
Nsg8
g16
sg10
Nsg17
NsbsS'declares'
p3194
g0
(g1
g2
Ntp3195
Rp3196
(dp3197
g6
Nsg8
g9
sg10
Nsg17
NsbsS'puyehue'
p3198
g0
(g1
g2
Ntp3199
Rp3200
(dp3201
g6
Nsg8
g9
sg10
Nsg17
NsbsS'lng'
p3202
g0
(g1
g2
Ntp3203
Rp3204
(dp3205
g6
Nsg8
g16
sg10
Nsg17
NsbsS'sport'
p3206
g0
(g1
g2
Ntp3207
Rp3208
(dp3209
g6
Nsg8
g16
sg10
Nsg17
NsbsS'fails'
p3210
g0
(g1
g2
Ntp3211
Rp3212
(dp3213
g6
Nsg8
g9
sg10
Nsg17
NsbsS'mortgage'
p3214
g0
(g1
g2
Ntp3215
Rp3216
(dp3217
g6
Nsg8
g16
sg10
Nsg17
NsbsS'farmers'
p3218
g0
(g1
g2
Ntp3219
Rp3220
(dp3221
g6
Nsg8
g9
sg10
Nsg17
NsbsS'federal'
p3222
g0
(g1
g2
Ntp3223
Rp3224
(dp3225
g6
Nsg8
g16
sg10
Nsg17
NsbsS'review'
p3226
g0
(g1
g2
Ntp3227
Rp3228
(dp3229
g6
Nsg8
g9
sg10
Nsg17
NsbsS'sites'
p3230
g0
(g1
g2
Ntp3231
Rp3232
(dp3233
g6
Nsg8
g16
sg10
Nsg17
NsbsS'forecast'
p3234
g0
(g1
g2
Ntp3235
Rp3236
(dp3237
g6
Nsg8
g9
sg10
Nsg17
NsbsS'bureau'
p3238
g0
(g1
g2
Ntp3239
Rp3240
(dp3241
g6
Nsg8
g9
sg10
Nsg17
NsbsS'import'
p3242
g0
(g1
g2
Ntp3243
Rp3244
(dp3245
g6
Nsg8
g16
sg10
Nsg17
NsbsS'reading'
p3246
g0
(g1
g2
Ntp3247
Rp3248
(dp3249
g6
Nsg8
g9
sg10
Nsg17
NsbsS'contentcopyright'
p3250
g0
(g1
g2
Ntp3251
Rp3252
(dp3253
g6
Nsg8
g16
sg10
Nsg17
NsbsS'infrastructure'
p3254
g0
(g1
g2
Ntp3255
Rp3256
(dp3257
g6
Nsg8
g16
sg10
Nsg17
NsbsS'jobs'
p3258
g0
(g1
g2
Ntp3259
Rp3260
(dp3261
g6
Nsg8
g16
sg10
Nsg17
NsbsS'august'
p3262
g0
(g1
g2
Ntp3263
Rp3264
(dp3265
g6
Nsg8
g16
sg10
Nsg17
NsbsS'killing'
p3266
g0
(g1
g2
Ntp3267
Rp3268
(dp3269
g6
Nsg8
g9
sg10
Nsg17
NsbsS'twitterwill'
p3270
g0
(g1
g2
Ntp3271
Rp3272
(dp3273
g6
Nsg8
g16
sg10
Nsg17
NsbsS'volcker'
p3274
g0
(g1
g2
Ntp3275
Rp3276
(dp3277
g6
Nsg8
g16
sg10
Nsg17
NsbsS'article'
p3278
g0
(g1
g2
Ntp3279
Rp3280
(dp3281
g6
Nsg8
g9
sg10
Nsg17
NsbsS'cities'
p3282
g0
(g1
g2
Ntp3283
Rp3284
(dp3285
g6
Nsg8
g16
sg10
Nsg17
NsbsS'libya'
p3286
g0
(g1
g2
Ntp3287
Rp3288
(dp3289
g6
Nsg8
g16
sg10
Nsg17
NsbsS'trader'
p3290
g0
(g1
g2
Ntp3291
Rp3292
(dp3293
g6
Nsg8
g16
sg10
Nsg17
NsbsS'tour'
p3294
g0
(g1
g2
Ntp3295
Rp3296
(dp3297
g6
Nsg8
g9
sg10
Nsg17
NsbsS'berry'
p3298
g0
(g1
g2
Ntp3299
Rp3300
(dp3301
g6
Nsg8
g16
sg10
Nsg17
NsbsS'torrential'
p3302
g0
(g1
g2
Ntp3303
Rp3304
(dp3305
g6
Nsg8
g9
sg10
Nsg17
NsbsS'pakistan'
p3306
g0
(g1
g2
Ntp3307
Rp3308
(dp3309
g6
Nsg8
g9
sg10
Nsg17
NsbsS'onemillion'
p3310
g0
(g1
g2
Ntp3311
Rp3312
(dp3313
g6
Nsg8
g9
sg10
Nsg17
NsbsS'googlebot'
p3314
g0
(g1
g2
Ntp3315
Rp3316
(dp3317
g6
Nsg8
g16
sg10
Nsg17
NsbsS'innovations'
p3318
g0
(g1
g2
Ntp3319
Rp3320
(dp3321
g6
Nsg8
g16
sg10
Nsg17
NsbsS'learning'
p3322
g0
(g1
g2
Ntp3323
Rp3324
(dp3325
g6
Nsg8
g16
sg10
Nsg17
NsbsS'poll'
p3326
g0
(g1
g2
Ntp3327
Rp3328
(dp3329
g6
Nsg8
g16
sg10
Nsg17
NsbsS'boat'
p3330
g0
(g1
g2
Ntp3331
Rp3332
(dp3333
g6
Nsg8
g9
sg10
Nsg17
NsbsS'survivors'
p3334
g0
(g1
g2
Ntp3335
Rp3336
(dp3337
g6
Nsg8
g9
sg10
Nsg17
NsbsS'arts'
p3338
g0
(g1
g2
Ntp3339
Rp3340
(dp3341
g6
Nsg8
g9
sg10
Nsg17
NsbsS'west'
p3342
g0
(g1
g2
Ntp3343
Rp3344
(dp3345
g6
Nsg8
g16
sg10
Nsg17
NsbsS'carey'
p3346
g0
(g1
g2
Ntp3347
Rp3348
(dp3349
g6
Nsg8
g16
sg10
Nsg17
NsbsS'mark'
p3350
g0
(g1
g2
Ntp3351
Rp3352
(dp3353
g6
Nsg8
g16
sg10
Nsg17
NsbsS'tropical'
p3354
g0
(g1
g2
Ntp3355
Rp3356
(dp3357
g6
Nsg8
g9
sg10
Nsg17
NsbsS'wobble'
p3358
g0
(g1
g2
Ntp3359
Rp3360
(dp3361
g6
Nsg8
g16
sg10
Nsg17
NsbsS'enable'
p3362
g0
(g1
g2
Ntp3363
Rp3364
(dp3365
g6
Nsg8
g9
sg10
Nsg17
NsbsS'photos'
p3366
g0
(g1
g2
Ntp3367
Rp3368
(dp3369
g6
Nsg8
g16
sg10
Nsg17
NsbsS'geothermal'
p3370
g0
(g1
g2
Ntp3371
Rp3372
(dp3373
g6
Nsg8
g16
sg10
Nsg17
NsbsS'bmw'
p3374
g0
(g1
g2
Ntp3375
Rp3376
(dp3377
g6
Nsg8
g16
sg10
Nsg17
NsbsS'case'
p3378
g0
(g1
g2
Ntp3379
Rp3380
(dp3381
g6
Nsg8
g16
sg10
Nsg17
NsbsS'washington'
p3382
g0
(g1
g2
Ntp3383
Rp3384
(dp3385
g6
Nsg8
g16
sg10
Nsg17
NsbsS'valero'
p3386
g0
(g1
g2
Ntp3387
Rp3388
(dp3389
g6
Nsg8
g16
sg10
Nsg17
NsbsS'cree'
p3390
g0
(g1
g2
Ntp3391
Rp3392
(dp3393
g6
Nsg8
g16
sg10
Nsg17
NsbsS'offbeat'
p3394
g0
(g1
g2
Ntp3395
Rp3396
(dp3397
g6
Nsg8
g16
sg10
Nsg17
NsbsS'shear'
p3398
g0
(g1
g2
Ntp3399
Rp3400
(dp3401
g6
Nsg8
g9
sg10
Nsg17
NsbsS'voanews'
p3402
g0
(g1
g2
Ntp3403
Rp3404
(dp3405
g6
Nsg8
g16
sg10
Nsg17
NsbsS'landslide'
p3406
g0
(g1
g2
Ntp3407
Rp3408
(dp3409
g6
Nsg8
g9
sg10
Nsg17
NsbsS'region'
p3410
g0
(g1
g2
Ntp3411
Rp3412
(dp3413
g6
Nsg8
g9
sg10
Nsg17
NsbsS'conferences'
p3414
g0
(g1
g2
Ntp3415
Rp3416
(dp3417
g6
Nsg8
g16
sg10
Nsg17
NsbsS'strait'
p3418
g0
(g1
g2
Ntp3419
Rp3420
(dp3421
g6
Nsg8
g9
sg10
Nsg17
NsbsS'commentcharacters'
p3422
g0
(g1
g2
Ntp3423
Rp3424
(dp3425
g6
Nsg8
g16
sg10
Nsg17
NsbsS'middle'
p3426
g0
(g1
g2
Ntp3427
Rp3428
(dp3429
g6
Nsg8
g16
sg10
Nsg17
NsbsS'iowa'
p3430
g0
(g1
g2
Ntp3431
Rp3432
(dp3433
g6
Nsg8
g16
sg10
Nsg17
NsbsS'technology'
p3434
g0
(g1
g2
Ntp3435
Rp3436
(dp3437
g6
Nsg8
g16
sg10
Nsg17
NsbsS'author'
p3438
g0
(g1
g2
Ntp3439
Rp3440
(dp3441
g6
Nsg8
g9
sg10
Nsg17
NsbsS'toembedreport'
p3442
g0
(g1
g2
Ntp3443
Rp3444
(dp3445
g6
Nsg8
g9
sg10
Nsg17
NsbsS'check'
p3446
g0
(g1
g2
Ntp3447
Rp3448
(dp3449
g6
Nsg8
g16
sg10
Nsg17
NsbsS'ceo'
p3450
g0
(g1
g2
Ntp3451
Rp3452
(dp3453
g6
Nsg8
g16
sg10
Nsg17
NsbsS'speech'
p3454
g0
(g1
g2
Ntp3455
Rp3456
(dp3457
g6
Nsg8
g16
sg10
Nsg17
NsbsS'pak'
p3458
g0
(g1
g2
Ntp3459
Rp3460
(dp3461
g6
Nsg8
g16
sg10
Nsg17
NsbsS'events'
p3462
g0
(g1
g2
Ntp3463
Rp3464
(dp3465
g6
Nsg8
g16
sg10
Nsg17
NsbsS'breakdown'
p3466
g0
(g1
g2
Ntp3467
Rp3468
(dp3469
g6
Nsg8
g16
sg10
Nsg17
NsbsS'oil'
p3470
g0
(g1
g2
Ntp3471
Rp3472
(dp3473
g6
Nsg8
g16
sg10
Nsg17
NsbsS'driver'
p3474
g0
(g1
g2
Ntp3475
Rp3476
(dp3477
g6
Nsg8
g16
sg10
Nsg17
NsbsS'drives'
p3478
g0
(g1
g2
Ntp3479
Rp3480
(dp3481
g6
Nsg8
g16
sg10
Nsg17
NsbsS'director'
p3482
g0
(g1
g2
Ntp3483
Rp3484
(dp3485
g6
Nsg8
g9
sg10
Nsg17
NsbsS'advertisement'
p3486
g0
(g1
g2
Ntp3487
Rp3488
(dp3489
g6
Nsg8
g9
sg10
Nsg17
NsbsS'intended'
p3490
g0
(g1
g2
Ntp3491
Rp3492
(dp3493
g6
Nsg8
g16
sg10
Nsg17
NsbsS'changing'
p3494
g0
(g1
g2
Ntp3495
Rp3496
(dp3497
g6
Nsg8
g16
sg10
Nsg17
NsbsS'renewable'
p3498
g0
(g1
g2
Ntp3499
Rp3500
(dp3501
g6
Nsg8
g16
sg10
Nsg17
NsbsS'customized'
p3502
g0
(g1
g2
Ntp3503
Rp3504
(dp3505
g6
Nsg8
g16
sg10
Nsg17
NsbsS'severe'
p3506
g0
(g1
g2
Ntp3507
Rp3508
(dp3509
g6
Nsg8
g9
sg10
Nsg17
NsbsS'relief'
p3510
g0
(g1
g2
Ntp3511
Rp3512
(dp3513
g6
Nsg8
g9
sg10
Nsg17
NsbsS'bodies'
p3514
g0
(g1
g2
Ntp3515
Rp3516
(dp3517
g6
Nsg8
g9
sg10
Nsg17
NsbsS'summer'
p3518
g0
(g1
g2
Ntp3519
Rp3520
(dp3521
g6
Nsg8
g9
sg10
Nsg17
NsbsS'peace'
p3522
g0
(g1
g2
Ntp3523
Rp3524
(dp3525
g6
Nsg8
g16
sg10
Nsg17
NsbsS'brisbane'
p3526
g0
(g1
g2
Ntp3527
Rp3528
(dp3529
g6
Nsg8
g16
sg10
Nsg17
NsbsS'money'
p3530
g0
(g1
g2
Ntp3531
Rp3532
(dp3533
g6
Nsg8
g9
sg10
Nsg17
NsbsS'sights'
p3534
g0
(g1
g2
Ntp3535
Rp3536
(dp3537
g6
Nsg8
g16
sg10
Nsg17
NsbsS'gavin'
p3538
g0
(g1
g2
Ntp3539
Rp3540
(dp3541
g6
Nsg8
g16
sg10
Nsg17
NsbsS'kill'
p3542
g0
(g1
g2
Ntp3543
Rp3544
(dp3545
g6
Nsg8
g9
sg10
Nsg17
NsbsS'tools'
p3546
g0
(g1
g2
Ntp3547
Rp3548
(dp3549
g6
Nsg8
g16
sg10
Nsg17
NsbsS'touch'
p3550
g0
(g1
g2
Ntp3551
Rp3552
(dp3553
g6
Nsg8
g9
sg10
Nsg17
NsbsS'incurring'
p3554
g0
(g1
g2
Ntp3555
Rp3556
(dp3557
g6
Nsg8
g9
sg10
Nsg17
NsbsS'weekly'
p3558
g0
(g1
g2
Ntp3559
Rp3560
(dp3561
g6
Nsg8
g9
sg10
Nsg17
NsbsS'depthtoday'
p3562
g0
(g1
g2
Ntp3563
Rp3564
(dp3565
g6
Nsg8
g9
sg10
Nsg17
NsbsS'zhengzhou'
p3566
g0
(g1
g2
Ntp3567
Rp3568
(dp3569
g6
Nsg8
g16
sg10
Nsg17
NsbsS'death'
p3570
g0
(g1
g2
Ntp3571
Rp3572
(dp3573
g6
Nsg8
g9
sg10
Nsg17
NsbsS'bollywood'
p3574
g0
(g1
g2
Ntp3575
Rp3576
(dp3577
g6
Nsg8
g16
sg10
Nsg17
NsbsS'geological'
p3578
g0
(g1
g2
Ntp3579
Rp3580
(dp3581
g6
Nsg8
g16
sg10
Nsg17
NsbsS'improvement'
p3582
g0
(g1
g2
Ntp3583
Rp3584
(dp3585
g6
Nsg8
g9
sg10
Nsg17
NsbsS'blog'
p3586
g0
(g1
g2
Ntp3587
Rp3588
(dp3589
g6
Nsg8
g16
sg10
Nsg17
NsbsS'crocodiles'
p3590
g0
(g1
g2
Ntp3591
Rp3592
(dp3593
g6
Nsg8
g9
sg10
Nsg17
NsbsS'bioenergy'
p3594
g0
(g1
g2
Ntp3595
Rp3596
(dp3597
g6
Nsg8
g16
sg10
Nsg17
NsbsS'perth'
p3598
g0
(g1
g2
Ntp3599
Rp3600
(dp3601
g6
Nsg8
g16
sg10
Nsg17
NsbsS'treatment'
p3602
g0
(g1
g2
Ntp3603
Rp3604
(dp3605
g6
Nsg8
g9
sg10
Nsg17
NsbsS'struck'
p3606
g0
(g1
g2
Ntp3607
Rp3608
(dp3609
g6
Nsg8
g9
sg10
Nsg17
NsbsS'careers'
p3610
g0
(g1
g2
Ntp3611
Rp3612
(dp3613
g6
Nsg8
g9
sg10
Nsg17
NsbsS'real'
p3614
g0
(g1
g2
Ntp3615
Rp3616
(dp3617
g6
Nsg8
g16
sg10
Nsg17
NsbsS'kills'
p3618
g0
(g1
g2
Ntp3619
Rp3620
(dp3621
g6
Nsg8
g9
sg10
Nsg17
NsbsS'code'
p3622
g0
(g1
g2
Ntp3623
Rp3624
(dp3625
g6
Nsg8
g9
sg10
Nsg17
NsbsS'rules'
p3626
g0
(g1
g2
Ntp3627
Rp3628
(dp3629
g6
Nsg8
g16
sg10
Nsg17
NsbsS'delhi'
p3630
g0
(g1
g2
Ntp3631
Rp3632
(dp3633
g6
Nsg8
g16
sg10
Nsg17
NsbsS'early'
p3634
g0
(g1
g2
Ntp3635
Rp3636
(dp3637
g6
Nsg8
g16
sg10
Nsg17
NsbsS'dari'
p3638
g0
(g1
g2
Ntp3639
Rp3640
(dp3641
g6
Nsg8
g16
sg10
Nsg17
NsbsS'huffpost'
p3642
g0
(g1
g2
Ntp3643
Rp3644
(dp3645
g6
Nsg8
g16
sg10
Nsg17
NsbsS'schedules'
p3646
g0
(g1
g2
Ntp3647
Rp3648
(dp3649
g6
Nsg8
g16
sg10
Nsg17
NsbsS'execution'
p3650
g0
(g1
g2
Ntp3651
Rp3652
(dp3653
g6
Nsg8
g16
sg10
Nsg17
NsbsS'lady'
p3654
g0
(g1
g2
Ntp3655
Rp3656
(dp3657
g6
Nsg8
g16
sg10
Nsg17
NsbsS'daewoo'
p3658
g0
(g1
g2
Ntp3659
Rp3660
(dp3661
g6
Nsg8
g16
sg10
Nsg17
NsbsS'mudslide'
p3662
g0
(g1
g2
Ntp3663
Rp3664
(dp3665
g6
Nsg8
g9
sg10
Nsg17
NsbsS'ns'
p3666
g0
(g1
g2
Ntp3667
Rp3668
(dp3669
g6
Nsg8
g16
sg10
Nsg17
NsbsS'pounds'
p3670
g0
(g1
g2
Ntp3671
Rp3672
(dp3673
g6
Nsg8
g9
sg10
Nsg17
NsbsS'nissan'
p3674
g0
(g1
g2
Ntp3675
Rp3676
(dp3677
g6
Nsg8
g16
sg10
Nsg17
NsbsS'audience'
p3678
g0
(g1
g2
Ntp3679
Rp3680
(dp3681
g6
Nsg8
g16
sg10
Nsg17
NsbsS'maker'
p3682
g0
(g1
g2
Ntp3683
Rp3684
(dp3685
g6
Nsg8
g16
sg10
Nsg17
NsbsS'clay'
p3686
g0
(g1
g2
Ntp3687
Rp3688
(dp3689
g6
Nsg8
g16
sg10
Nsg17
NsbsS'output'
p3690
g0
(g1
g2
Ntp3691
Rp3692
(dp3693
g6
Nsg8
g16
sg10
Nsg17
NsbsS'shirky'
p3694
g0
(g1
g2
Ntp3695
Rp3696
(dp3697
g6
Nsg8
g16
sg10
Nsg17
NsbsS'pacific'
p3698
g0
(g1
g2
Ntp3699
Rp3700
(dp3701
g6
Nsg8
g9
sg10
Nsg17
NsbsS'cyberport'
p3702
g0
(g1
g2
Ntp3703
Rp3704
(dp3705
g6
Nsg8
g9
sg10
Nsg17
NsbsS'act'
p3706
g0
(g1
g2
Ntp3707
Rp3708
(dp3709
g6
Nsg8
g9
sg10
Nsg17
NsbsS'images'
p3710
g0
(g1
g2
Ntp3711
Rp3712
(dp3713
g6
Nsg8
g9
sg10
Nsg17
NsbsS'pakistanis'
p3714
g0
(g1
g2
Ntp3715
Rp3716
(dp3717
g6
Nsg8
g9
sg10
Nsg17
NsbsS'provided'
p3718
g0
(g1
g2
Ntp3719
Rp3720
(dp3721
g6
Nsg8
g16
sg10
Nsg17
NsbsS'ashes'
p3722
g0
(g1
g2
Ntp3723
Rp3724
(dp3725
g6
Nsg8
g9
sg10
Nsg17
NsbsS'recorded'
p3726
g0
(g1
g2
Ntp3727
Rp3728
(dp3729
g6
Nsg8
g9
sg10
Nsg17
NsbsS'legal'
p3730
g0
(g1
g2
Ntp3731
Rp3732
(dp3733
g6
Nsg8
g16
sg10
Nsg17
NsbsS'deficit'
p3734
g0
(g1
g2
Ntp3735
Rp3736
(dp3737
g6
Nsg8
g16
sg10
Nsg17
NsbsS'provider'
p3738
g0
(g1
g2
Ntp3739
Rp3740
(dp3741
g6
Nsg8
g16
sg10
Nsg17
NsbsS'drenches'
p3742
g0
(g1
g2
Ntp3743
Rp3744
(dp3745
g6
Nsg8
g9
sg10
Nsg17
NsbsS'assembly'
p3746
g0
(g1
g2
Ntp3747
Rp3748
(dp3749
g6
Nsg8
g16
sg10
Nsg17
NsbsS'seconds'
p3750
g0
(g1
g2
Ntp3751
Rp3752
(dp3753
g6
Nsg8
g9
sg10
Nsg17
NsbsS'sixth'
p3754
g0
(g1
g2
Ntp3755
Rp3756
(dp3757
g6
Nsg8
g16
sg10
Nsg17
NsbsS'dictators'
p3758
g0
(g1
g2
Ntp3759
Rp3760
(dp3761
g6
Nsg8
g16
sg10
Nsg17
NsbsS'utilities'
p3762
g0
(g1
g2
Ntp3763
Rp3764
(dp3765
g6
Nsg8
g16
sg10
Nsg17
NsbsS'trials'
p3766
g0
(g1
g2
Ntp3767
Rp3768
(dp3769
g6
Nsg8
g16
sg10
Nsg17
NsbsS'usadvertiseterms'
p3770
g0
(g1
g2
Ntp3771
Rp3772
(dp3773
g6
Nsg8
g9
sg10
Nsg17
NsbsS'baffled'
p3774
g0
(g1
g2
Ntp3775
Rp3776
(dp3777
g6
Nsg8
g16
sg10
Nsg17
NsbsS'stations'
p3778
g0
(g1
g2
Ntp3779
Rp3780
(dp3781
g6
Nsg8
g9
sg10
Nsg17
NsbsS'island'
p3782
g0
(g1
g2
Ntp3783
Rp3784
(dp3785
g6
Nsg8
g9
sg10
Nsg17
NsbsS'violence'
p3786
g0
(g1
g2
Ntp3787
Rp3788
(dp3789
g6
Nsg8
g9
sg10
Nsg17
NsbsS'barry'
p3790
g0
(g1
g2
Ntp3791
Rp3792
(dp3793
g6
Nsg8
g9
sg10
Nsg17
NsbsS'tributary'
p3794
g0
(g1
g2
Ntp3795
Rp3796
(dp3797
g6
Nsg8
g9
sg10
Nsg17
NsbsS'newsworld'
p3798
g0
(g1
g2
Ntp3799
Rp3800
(dp3801
g6
Nsg8
g16
sg10
Nsg17
NsbsS'outlook'
p3802
g0
(g1
g2
Ntp3803
Rp3804
(dp3805
g6
Nsg8
g16
sg10
Nsg17
NsbsS'burning'
p3806
g0
(g1
g2
Ntp3807
Rp3808
(dp3809
g6
Nsg8
g16
sg10
Nsg17
NsbsS'communication'
p3810
g0
(g1
g2
Ntp3811
Rp3812
(dp3813
g6
Nsg8
g16
sg10
Nsg17
NsbsS'image'
p3814
g0
(g1
g2
Ntp3815
Rp3816
(dp3817
g6
Nsg8
g16
sg10
Nsg17
NsbsS'subscriber'
p3818
g0
(g1
g2
Ntp3819
Rp3820
(dp3821
g6
Nsg8
g16
sg10
Nsg17
NsbsS'prepares'
p3822
g0
(g1
g2
Ntp3823
Rp3824
(dp3825
g6
Nsg8
g16
sg10
Nsg17
NsbsS'homeless'
p3826
g0
(g1
g2
Ntp3827
Rp3828
(dp3829
g6
Nsg8
g9
sg10
Nsg17
NsbsS'parties'
p3830
g0
(g1
g2
Ntp3831
Rp3832
(dp3833
g6
Nsg8
g16
sg10
Nsg17
NsbsS'pirates'
p3834
g0
(g1
g2
Ntp3835
Rp3836
(dp3837
g6
Nsg8
g16
sg10
Nsg17
NsbsS'pharmaceutical'
p3838
g0
(g1
g2
Ntp3839
Rp3840
(dp3841
g6
Nsg8
g16
sg10
Nsg17
NsbsS'log'
p3842
g0
(g1
g2
Ntp3843
Rp3844
(dp3845
g6
Nsg8
g16
sg10
Nsg17
NsbsS'area'
p3846
g0
(g1
g2
Ntp3847
Rp3848
(dp3849
g6
Nsg8
g9
sg10
Nsg17
NsbsS'alleged'
p3850
g0
(g1
g2
Ntp3851
Rp3852
(dp3853
g6
Nsg8
g16
sg10
Nsg17
NsbsS'start'
p3854
g0
(g1
g2
Ntp3855
Rp3856
(dp3857
g6
Nsg8
g9
sg10
Nsg17
NsbsS'low'
p3858
g0
(g1
g2
Ntp3859
Rp3860
(dp3861
g6
Nsg8
g16
sg10
Nsg17
NsbsS'brazilian'
p3862
g0
(g1
g2
Ntp3863
Rp3864
(dp3865
g6
Nsg8
g16
sg10
Nsg17
NsbsS'autoradios'
p3866
g0
(g1
g2
Ntp3867
Rp3868
(dp3869
g6
Nsg8
g16
sg10
Nsg17
NsbsS'tycoon'
p3870
g0
(g1
g2
Ntp3871
Rp3872
(dp3873
g6
Nsg8
g16
sg10
Nsg17
NsbsS'complete'
p3874
g0
(g1
g2
Ntp3875
Rp3876
(dp3877
g6
Nsg8
g16
sg10
Nsg17
NsbsS'pericom'
p3878
g0
(g1
g2
Ntp3879
Rp3880
(dp3881
g6
Nsg8
g16
sg10
Nsg17
NsbsS'mwst'
p3882
g0
(g1
g2
Ntp3883
Rp3884
(dp3885
g6
Nsg8
g16
sg10
Nsg17
NsbsS'podcast'
p3886
g0
(g1
g2
Ntp3887
Rp3888
(dp3889
g6
Nsg8
g16
sg10
Nsg17
NsbsS'fraud'
p3890
g0
(g1
g2
Ntp3891
Rp3892
(dp3893
g6
Nsg8
g16
sg10
Nsg17
NsbsS'emissions'
p3894
g0
(g1
g2
Ntp3895
Rp3896
(dp3897
g6
Nsg8
g16
sg10
Nsg17
NsbsS'chidambaram'
p3898
g0
(g1
g2
Ntp3899
Rp3900
(dp3901
g6
Nsg8
g16
sg10
Nsg17
NsbsS'agree'
p3902
g0
(g1
g2
Ntp3903
Rp3904
(dp3905
g6
Nsg8
g16
sg10
Nsg17
NsbsS'cbc'
p3906
g0
(g1
g2
Ntp3907
Rp3908
(dp3909
g6
Nsg8
g9
sg10
Nsg17
NsbsS'ab'
p3910
g0
(g1
g2
Ntp3911
Rp3912
(dp3913
g6
Nsg8
g16
sg10
Nsg17
NsbsS'ad'
p3914
g0
(g1
g2
Ntp3915
Rp3916
(dp3917
g6
Nsg8
g16
sg10
Nsg17
NsbsS'videos'
p3918
g0
(g1
g2
Ntp3919
Rp3920
(dp3921
g6
Nsg8
g16
sg10
Nsg17
NsbsS'youtube'
p3922
g0
(g1
g2
Ntp3923
Rp3924
(dp3925
g6
Nsg8
g16
sg10
Nsg17
NsbsS'htmllink'
p3926
g0
(g1
g2
Ntp3927
Rp3928
(dp3929
g6
Nsg8
g16
sg10
Nsg17
NsbsS'moved'
p3930
g0
(g1
g2
Ntp3931
Rp3932
(dp3933
g6
Nsg8
g9
sg10
Nsg17
NsbsS'sales'
p3934
g0
(g1
g2
Ntp3935
Rp3936
(dp3937
g6
Nsg8
g16
sg10
Nsg17
NsbsS'general'
p3938
g0
(g1
g2
Ntp3939
Rp3940
(dp3941
g6
Nsg8
g16
sg10
Nsg17
NsbsS'ap'
p3942
g0
(g1
g2
Ntp3943
Rp3944
(dp3945
g6
Nsg8
g16
sg10
Nsg17
NsbsS'britain'
p3946
g0
(g1
g2
Ntp3947
Rp3948
(dp3949
g6
Nsg8
g9
sg10
Nsg17
NsbsS'file'
p3950
g0
(g1
g2
Ntp3951
Rp3952
(dp3953
g6
Nsg8
g16
sg10
Nsg17
NsbsS'hospitals'
p3954
g0
(g1
g2
Ntp3955
Rp3956
(dp3957
g6
Nsg8
g16
sg10
Nsg17
NsbsS'veracruz'
p3958
g0
(g1
g2
Ntp3959
Rp3960
(dp3961
g6
Nsg8
g16
sg10
Nsg17
NsbsS'film'
p3962
g0
(g1
g2
Ntp3963
Rp3964
(dp3965
g6
Nsg8
g16
sg10
Nsg17
NsbsS'blinded'
p3966
g0
(g1
g2
Ntp3967
Rp3968
(dp3969
g6
Nsg8
g16
sg10
Nsg17
NsbsS'field'
p3970
g0
(g1
g2
Ntp3971
Rp3972
(dp3973
g6
Nsg8
g9
sg10
Nsg17
NsbsS'shenzhen'
p3974
g0
(g1
g2
Ntp3975
Rp3976
(dp3977
g6
Nsg8
g9
sg10
Nsg17
NsbsS'congress'
p3978
g0
(g1
g2
Ntp3979
Rp3980
(dp3981
g6
Nsg8
g16
sg10
Nsg17
NsbsS'separate'
p3982
g0
(g1
g2
Ntp3983
Rp3984
(dp3985
g6
Nsg8
g16
sg10
Nsg17
NsbsS'students'
p3986
g0
(g1
g2
Ntp3987
Rp3988
(dp3989
g6
Nsg8
g9
sg10
Nsg17
NsbsS'bombed'
p3990
g0
(g1
g2
Ntp3991
Rp3992
(dp3993
g6
Nsg8
g9
sg10
Nsg17
NsbsS'peak'
p3994
g0
(g1
g2
Ntp3995
Rp3996
(dp3997
g6
Nsg8
g9
sg10
Nsg17
NsbsS'coverage'
p3998
g0
(g1
g2
Ntp3999
Rp4000
(dp4001
g6
Nsg8
g16
sg10
Nsg17
NsbsS'stocks'
p4002
g0
(g1
g2
Ntp4003
Rp4004
(dp4005
g6
Nsg8
g16
sg10
Nsg17
NsbsS'invest'
p4006
g0
(g1
g2
Ntp4007
Rp4008
(dp4009
g6
Nsg8
g16
sg10
Nsg17
NsbsS'cpc'
p4010
g0
(g1
g2
Ntp4011
Rp4012
(dp4013
g6
Nsg8
g16
sg10
Nsg17
NsbsS'websites'
p4014
g0
(g1
g2
Ntp4015
Rp4016
(dp4017
g6
Nsg8
g16
sg10
Nsg17
NsbsS'directory'
p4018
g0
(g1
g2
Ntp4019
Rp4020
(dp4021
g6
Nsg8
g9
sg10
Nsg17
NsbsS'minister'
p4022
g0
(g1
g2
Ntp4023
Rp4024
(dp4025
g6
Nsg8
g16
sg10
Nsg17
NsbsS'swirls'
p4026
g0
(g1
g2
Ntp4027
Rp4028
(dp4029
g6
Nsg8
g9
sg10
Nsg17
NsbsS'influenza'
p4030
g0
(g1
g2
Ntp4031
Rp4032
(dp4033
g6
Nsg8
g16
sg10
Nsg17
NsbsS'forget'
p4034
g0
(g1
g2
Ntp4035
Rp4036
(dp4037
g6
Nsg8
g16
sg10
Nsg17
NsbsS'founder'
p4038
g0
(g1
g2
Ntp4039
Rp4040
(dp4041
g6
Nsg8
g16
sg10
Nsg17
NsbsS'caused'
p4042
g0
(g1
g2
Ntp4043
Rp4044
(dp4045
g6
Nsg8
g9
sg10
Nsg17
NsbsS'pte'
p4046
g0
(g1
g2
Ntp4047
Rp4048
(dp4049
g6
Nsg8
g9
sg10
Nsg17
NsbsS'dollar'
p4050
g0
(g1
g2
Ntp4051
Rp4052
(dp4053
g6
Nsg8
g16
sg10
Nsg17
NsbsS'month'
p4054
g0
(g1
g2
Ntp4055
Rp4056
(dp4057
g6
Nsg8
g9
sg10
Nsg17
NsbsS'browsers'
p4058
g0
(g1
g2
Ntp4059
Rp4060
(dp4061
g6
Nsg8
g16
sg10
Nsg17
NsbsS'pty'
p4062
g0
(g1
g2
Ntp4063
Rp4064
(dp4065
g6
Nsg8
g16
sg10
Nsg17
NsbsS'smoking'
p4066
g0
(g1
g2
Ntp4067
Rp4068
(dp4069
g6
Nsg8
g16
sg10
Nsg17
NsbsS'talks'
p4070
g0
(g1
g2
Ntp4071
Rp4072
(dp4073
g6
Nsg8
g16
sg10
Nsg17
NsbsS'follow'
p4074
g0
(g1
g2
Ntp4075
Rp4076
(dp4077
g6
Nsg8
g16
sg10
Nsg17
NsbsS'religious'
p4078
g0
(g1
g2
Ntp4079
Rp4080
(dp4081
g6
Nsg8
g16
sg10
Nsg17
NsbsS'children'
p4082
g0
(g1
g2
Ntp4083
Rp4084
(dp4085
g6
Nsg8
g16
sg10
Nsg17
NsbsS'kutcher'
p4086
g0
(g1
g2
Ntp4087
Rp4088
(dp4089
g6
Nsg8
g16
sg10
Nsg17
NsbsS'content'
p4090
g0
(g1
g2
Ntp4091
Rp4092
(dp4093
g6
Nsg8
g9
sg10
Nsg17
NsbsS'tx'
p4094
g0
(g1
g2
Ntp4095
Rp4096
(dp4097
g6
Nsg8
g9
sg10
Nsg17
NsbsS'auckland'
p4098
g0
(g1
g2
Ntp4099
Rp4100
(dp4101
g6
Nsg8
g16
sg10
Nsg17
NsbsS'tv'
p4102
g0
(g1
g2
Ntp4103
Rp4104
(dp4105
g6
Nsg8
g16
sg10
Nsg17
NsbsS'hulan'
p4106
g0
(g1
g2
Ntp4107
Rp4108
(dp4109
g6
Nsg8
g9
sg10
Nsg17
NsbsS'thursday'
p4110
g0
(g1
g2
Ntp4111
Rp4112
(dp4113
g6
Nsg8
g9
sg10
Nsg17
NsbsS'removal'
p4114
g0
(g1
g2
Ntp4115
Rp4116
(dp4117
g6
Nsg8
g16
sg10
Nsg17
NsbsS'multiview'
p4118
g0
(g1
g2
Ntp4119
Rp4120
(dp4121
g6
Nsg8
g16
sg10
Nsg17
NsbsS'program'
p4122
g0
(g1
g2
Ntp4123
Rp4124
(dp4125
g6
Nsg8
g16
sg10
Nsg17
NsbsS'alberta'
p4126
g0
(g1
g2
Ntp4127
Rp4128
(dp4129
g6
Nsg8
g9
sg10
Nsg17
NsbsS'smile'
p4130
g0
(g1
g2
Ntp4131
Rp4132
(dp4133
g6
Nsg8
g16
sg10
Nsg17
NsbsS'crest'
p4134
g0
(g1
g2
Ntp4135
Rp4136
(dp4137
g6
Nsg8
g16
sg10
Nsg17
NsbsS'mandela'
p4138
g0
(g1
g2
Ntp4139
Rp4140
(dp4141
g6
Nsg8
g16
sg10
Nsg17
NsbsS'activities'
p4142
g0
(g1
g2
Ntp4143
Rp4144
(dp4145
g6
Nsg8
g16
sg10
Nsg17
NsbsS'khmer'
p4146
g0
(g1
g2
Ntp4147
Rp4148
(dp4149
g6
Nsg8
g16
sg10
Nsg17
NsbsS'woman'
p4150
g0
(g1
g2
Ntp4151
Rp4152
(dp4153
g6
Nsg8
g9
sg10
Nsg17
NsbsS'returned'
p4154
g0
(g1
g2
Ntp4155
Rp4156
(dp4157
g6
Nsg8
g16
sg10
Nsg17
NsbsS'song'
p4158
g0
(g1
g2
Ntp4159
Rp4160
(dp4161
g6
Nsg8
g16
sg10
Nsg17
NsbsS'fav'
p4162
g0
(g1
g2
Ntp4163
Rp4164
(dp4165
g6
Nsg8
g9
sg10
Nsg17
NsbsS'focus'
p4166
g0
(g1
g2
Ntp4167
Rp4168
(dp4169
g6
Nsg8
g9
sg10
Nsg17
NsbsS'rogue'
p4170
g0
(g1
g2
Ntp4171
Rp4172
(dp4173
g6
Nsg8
g16
sg10
Nsg17
NsbsS'worst'
p4174
g0
(g1
g2
Ntp4175
Rp4176
(dp4177
g6
Nsg8
g9
sg10
Nsg17
NsbsS'mps'
p4178
g0
(g1
g2
Ntp4179
Rp4180
(dp4181
g6
Nsg8
g16
sg10
Nsg17
NsbsS'fall'
p4182
g0
(g1
g2
Ntp4183
Rp4184
(dp4185
g6
Nsg8
g16
sg10
Nsg17
NsbsS'ticker'
p4186
g0
(g1
g2
Ntp4187
Rp4188
(dp4189
g6
Nsg8
g16
sg10
Nsg17
NsbsS'alma'
p4190
g0
(g1
g2
Ntp4191
Rp4192
(dp4193
g6
Nsg8
g16
sg10
Nsg17
NsbsS'stimulus'
p4194
g0
(g1
g2
Ntp4195
Rp4196
(dp4197
g6
Nsg8
g16
sg10
Nsg17
NsbsS'celebrity'
p4198
g0
(g1
g2
Ntp4199
Rp4200
(dp4201
g6
Nsg8
g16
sg10
Nsg17
NsbsS'list'
p4202
g0
(g1
g2
Ntp4203
Rp4204
(dp4205
g6
Nsg8
g16
sg10
Nsg17
NsbsS'manager'
p4206
g0
(g1
g2
Ntp4207
Rp4208
(dp4209
g6
Nsg8
g9
sg10
Nsg17
NsbsS'sliding'
p4210
g0
(g1
g2
Ntp4211
Rp4212
(dp4213
g6
Nsg8
g16
sg10
Nsg17
NsbsS'saudi'
p4214
g0
(g1
g2
Ntp4215
Rp4216
(dp4217
g6
Nsg8
g16
sg10
Nsg17
NsbsS'small'
p4218
g0
(g1
g2
Ntp4219
Rp4220
(dp4221
g6
Nsg8
g16
sg10
Nsg17
NsbsS'programme'
p4222
g0
(g1
g2
Ntp4223
Rp4224
(dp4225
g6
Nsg8
g9
sg10
Nsg17
NsbsS'cookies'
p4226
g0
(g1
g2
Ntp4227
Rp4228
(dp4229
g6
Nsg8
g16
sg10
Nsg17
NsbsS'tel'
p4230
g0
(g1
g2
Ntp4231
Rp4232
(dp4233
g6
Nsg8
g9
sg10
Nsg17
NsbsS'ten'
p4234
g0
(g1
g2
Ntp4235
Rp4236
(dp4237
g6
Nsg8
g9
sg10
Nsg17
NsbsS'tea'
p4238
g0
(g1
g2
Ntp4239
Rp4240
(dp4241
g6
Nsg8
g16
sg10
Nsg17
NsbsS'streets'
p4242
g0
(g1
g2
Ntp4243
Rp4244
(dp4245
g6
Nsg8
g9
sg10
Nsg17
NsbsS'todayinternational'
p4246
g0
(g1
g2
Ntp4247
Rp4248
(dp4249
g6
Nsg8
g16
sg10
Nsg17
NsbsS'commentadmin'
p4250
g0
(g1
g2
Ntp4251
Rp4252
(dp4253
g6
Nsg8
g16
sg10
Nsg17
NsbsS'rate'
p4254
g0
(g1
g2
Ntp4255
Rp4256
(dp4257
g6
Nsg8
g16
sg10
Nsg17
NsbsS'design'
p4258
g0
(g1
g2
Ntp4259
Rp4260
(dp4261
g6
Nsg8
g16
sg10
Nsg17
NsbsS'lawyer'
p4262
g0
(g1
g2
Ntp4263
Rp4264
(dp4265
g6
Nsg8
g16
sg10
Nsg17
NsbsS'investment'
p4266
g0
(g1
g2
Ntp4267
Rp4268
(dp4269
g6
Nsg8
g16
sg10
Nsg17
NsbsS'sue'
p4270
g0
(g1
g2
Ntp4271
Rp4272
(dp4273
g6
Nsg8
g16
sg10
Nsg17
NsbsS'abc'
p4274
g0
(g1
g2
Ntp4275
Rp4276
(dp4277
g6
Nsg8
g9
sg10
Nsg17
NsbsS'bridgestone'
p4278
g0
(g1
g2
Ntp4279
Rp4280
(dp4281
g6
Nsg8
g16
sg10
Nsg17
NsbsS'investing'
p4282
g0
(g1
g2
Ntp4283
Rp4284
(dp4285
g6
Nsg8
g16
sg10
Nsg17
NsbsS'anniversary'
p4286
g0
(g1
g2
Ntp4287
Rp4288
(dp4289
g6
Nsg8
g16
sg10
Nsg17
NsbsS'abu'
p4290
g0
(g1
g2
Ntp4291
Rp4292
(dp4293
g6
Nsg8
g16
sg10
Nsg17
NsbsS'public'
p4294
g0
(g1
g2
Ntp4295
Rp4296
(dp4297
g6
Nsg8
g16
sg10
Nsg17
NsbsS'full'
p4298
g0
(g1
g2
Ntp4299
Rp4300
(dp4301
g6
Nsg8
g9
sg10
Nsg17
NsbsS'christian'
p4302
g0
(g1
g2
Ntp4303
Rp4304
(dp4305
g6
Nsg8
g9
sg10
Nsg17
NsbsS'tags'
p4306
g0
(g1
g2
Ntp4307
Rp4308
(dp4309
g6
Nsg8
g9
sg10
Nsg17
NsbsS'wuhan'
p4310
g0
(g1
g2
Ntp4311
Rp4312
(dp4313
g6
Nsg8
g9
sg10
Nsg17
NsbsS'operating'
p4314
g0
(g1
g2
Ntp4315
Rp4316
(dp4317
g6
Nsg8
g16
sg10
Nsg17
NsbsS'palin'
p4318
g0
(g1
g2
Ntp4319
Rp4320
(dp4321
g6
Nsg8
g16
sg10
Nsg17
NsbsS'strong'
p4322
g0
(g1
g2
Ntp4323
Rp4324
(dp4325
g6
Nsg8
g9
sg10
Nsg17
NsbsS'valu'
p4326
g0
(g1
g2
Ntp4327
Rp4328
(dp4329
g6
Nsg8
g16
sg10
Nsg17
NsbsS'chongqing'
p4330
g0
(g1
g2
Ntp4331
Rp4332
(dp4333
g6
Nsg8
g9
sg10
Nsg17
NsbsS'search'
p4334
g0
(g1
g2
Ntp4335
Rp4336
(dp4337
g6
Nsg8
g16
sg10
Nsg17
NsbsS'bible'
p4338
g0
(g1
g2
Ntp4339
Rp4340
(dp4341
g6
Nsg8
g9
sg10
Nsg17
NsbsS'siamese'
p4342
g0
(g1
g2
Ntp4343
Rp4344
(dp4345
g6
Nsg8
g9
sg10
Nsg17
NsbsS'pics'
p4346
g0
(g1
g2
Ntp4347
Rp4348
(dp4349
g6
Nsg8
g16
sg10
Nsg17
NsbsS'advertising'
p4350
g0
(g1
g2
Ntp4351
Rp4352
(dp4353
g6
Nsg8
g16
sg10
Nsg17
NsbsS'social'
p4354
g0
(g1
g2
Ntp4355
Rp4356
(dp4357
g6
Nsg8
g16
sg10
Nsg17
NsbsS'action'
p4358
g0
(g1
g2
Ntp4359
Rp4360
(dp4361
g6
Nsg8
g9
sg10
Nsg17
NsbsS'options'
p4362
g0
(g1
g2
Ntp4363
Rp4364
(dp4365
g6
Nsg8
g16
sg10
Nsg17
NsbsS'shanghai'
p4366
g0
(g1
g2
Ntp4367
Rp4368
(dp4369
g6
Nsg8
g16
sg10
Nsg17
NsbsS'family'
p4370
g0
(g1
g2
Ntp4371
Rp4372
(dp4373
g6
Nsg8
g16
sg10
Nsg17
NsbsS'semiconductors'
p4374
g0
(g1
g2
Ntp4375
Rp4376
(dp4377
g6
Nsg8
g16
sg10
Nsg17
NsbsS'select'
p4378
g0
(g1
g2
Ntp4379
Rp4380
(dp4381
g6
Nsg8
g16
sg10
Nsg17
NsbsS'shareholders'
p4382
g0
(g1
g2
Ntp4383
Rp4384
(dp4385
g6
Nsg8
g16
sg10
Nsg17
NsbsS'sanjay'
p4386
g0
(g1
g2
Ntp4387
Rp4388
(dp4389
g6
Nsg8
g16
sg10
Nsg17
NsbsS'petroleum'
p4390
g0
(g1
g2
Ntp4391
Rp4392
(dp4393
g6
Nsg8
g16
sg10
Nsg17
NsbsS'oecd'
p4394
g0
(g1
g2
Ntp4395
Rp4396
(dp4397
g6
Nsg8
g9
sg10
Nsg17
NsbsS'archives'
p4398
g0
(g1
g2
Ntp4399
Rp4400
(dp4401
g6
Nsg8
g9
sg10
Nsg17
NsbsS'glaxo'
p4402
g0
(g1
g2
Ntp4403
Rp4404
(dp4405
g6
Nsg8
g16
sg10
Nsg17
NsbsS'zzgl'
p4406
g0
(g1
g2
Ntp4407
Rp4408
(dp4409
g6
Nsg8
g16
sg10
Nsg17
NsbsS'injury'
p4410
g0
(g1
g2
Ntp4411
Rp4412
(dp4413
g6
Nsg8
g16
sg10
Nsg17
NsbsS'markets'
p4414
g0
(g1
g2
Ntp4415
Rp4416
(dp4417
g6
Nsg8
g16
sg10
Nsg17
NsbsS'minor'
p4418
g0
(g1
g2
Ntp4419
Rp4420
(dp4421
g6
Nsg8
g16
sg10
Nsg17
NsbsS'teen'
p4422
g0
(g1
g2
Ntp4423
Rp4424
(dp4425
g6
Nsg8
g16
sg10
Nsg17
NsbsS'hydrometric'
p4426
g0
(g1
g2
Ntp4427
Rp4428
(dp4429
g6
Nsg8
g9
sg10
Nsg17
NsbsS'strange'
p4430
g0
(g1
g2
Ntp4431
Rp4432
(dp4433
g6
Nsg8
g16
sg10
Nsg17
NsbsS'company'
p4434
g0
(g1
g2
Ntp4435
Rp4436
(dp4437
g6
Nsg8
g16
sg10
Nsg17
NsbsS'emission'
p4438
g0
(g1
g2
Ntp4439
Rp4440
(dp4441
g6
Nsg8
g16
sg10
Nsg17
NsbsS'flag'
p4442
g0
(g1
g2
Ntp4443
Rp4444
(dp4445
g6
Nsg8
g16
sg10
Nsg17
NsbsS'hardware'
p4446
g0
(g1
g2
Ntp4447
Rp4448
(dp4449
g6
Nsg8
g16
sg10
Nsg17
NsbsS'lilly'
p4450
g0
(g1
g2
Ntp4451
Rp4452
(dp4453
g6
Nsg8
g16
sg10
Nsg17
NsbsS'displayedplease'
p4454
g0
(g1
g2
Ntp4455
Rp4456
(dp4457
g6
Nsg8
g16
sg10
Nsg17
NsbsS'hour'
p4458
g0
(g1
g2
Ntp4459
Rp4460
(dp4461
g6
Nsg8
g16
sg10
Nsg17
NsbsS'science'
p4462
g0
(g1
g2
Ntp4463
Rp4464
(dp4465
g6
Nsg8
g9
sg10
Nsg17
NsbsS'scarlett'
p4466
g0
(g1
g2
Ntp4467
Rp4468
(dp4469
g6
Nsg8
g16
sg10
Nsg17
NsbsS'dec'
p4470
g0
(g1
g2
Ntp4471
Rp4472
(dp4473
g6
Nsg8
g16
sg10
Nsg17
NsbsS'history'
p4474
g0
(g1
g2
Ntp4475
Rp4476
(dp4477
g6
Nsg8
g9
sg10
Nsg17
NsbsS'scam'
p4478
g0
(g1
g2
Ntp4479
Rp4480
(dp4481
g6
Nsg8
g16
sg10
Nsg17
NsbsS'prompting'
p4482
g0
(g1
g2
Ntp4483
Rp4484
(dp4485
g6
Nsg8
g9
sg10
Nsg17
NsbsS'share'
p4486
g0
(g1
g2
Ntp4487
Rp4488
(dp4489
g6
Nsg8
g9
sg10
Nsg17
NsbsS'autumn'
p4490
g0
(g1
g2
Ntp4491
Rp4492
(dp4493
g6
Nsg8
g9
sg10
Nsg17
NsbsS'collision'
p4494
g0
(g1
g2
Ntp4495
Rp4496
(dp4497
g6
Nsg8
g16
sg10
Nsg17
NsbsS'rainstorm'
p4498
g0
(g1
g2
Ntp4499
Rp4500
(dp4501
g6
Nsg8
g9
sg10
Nsg17
NsbsS'numbers'
p4502
g0
(g1
g2
Ntp4503
Rp4504
(dp4505
g6
Nsg8
g16
sg10
Nsg17
NsbsS'information'
p4506
g0
(g1
g2
Ntp4507
Rp4508
(dp4509
g6
Nsg8
g16
sg10
Nsg17
NsbsS'court'
p4510
g0
(g1
g2
Ntp4511
Rp4512
(dp4513
g6
Nsg8
g16
sg10
Nsg17
NsbsS'breaking'
p4514
g0
(g1
g2
Ntp4515
Rp4516
(dp4517
g6
Nsg8
g16
sg10
Nsg17
NsbsS'magpie'
p4518
g0
(g1
g2
Ntp4519
Rp4520
(dp4521
g6
Nsg8
g16
sg10
Nsg17
NsbsS'badgenominate'
p4522
g0
(g1
g2
Ntp4523
Rp4524
(dp4525
g6
Nsg8
g16
sg10
Nsg17
NsbsS'dailymotionvideoscategoriescommunitycontestsfamily'
p4526
g0
(g1
g2
Ntp4527
Rp4528
(dp4529
g6
Nsg8
g9
sg10
Nsg17
NsbsS'plant'
p4530
g0
(g1
g2
Ntp4531
Rp4532
(dp4533
g6
Nsg8
g16
sg10
Nsg17
NsbsS'plans'
p4534
g0
(g1
g2
Ntp4535
Rp4536
(dp4537
g6
Nsg8
g16
sg10
Nsg17
NsbsS'alibaba'
p4538
g0
(g1
g2
Ntp4539
Rp4540
(dp4541
g6
Nsg8
g9
sg10
Nsg17
NsbsS'piaohe'
p4542
g0
(g1
g2
Ntp4543
Rp4544
(dp4545
g6
Nsg8
g9
sg10
Nsg17
NsbsS'blood'
p4546
g0
(g1
g2
Ntp4547
Rp4548
(dp4549
g6
Nsg8
g16
sg10
Nsg17
NsbsS'response'
p4550
g0
(g1
g2
Ntp4551
Rp4552
(dp4553
g6
Nsg8
g16
sg10
Nsg17
NsbsS'alertnet'
p4554
g0
(g1
g2
Ntp4555
Rp4556
(dp4557
g6
Nsg8
g9
sg10
Nsg17
NsbsS'nvidia'
p4558
g0
(g1
g2
Ntp4559
Rp4560
(dp4561
g6
Nsg8
g16
sg10
Nsg17
NsbsS'banks'
p4562
g0
(g1
g2
Ntp4563
Rp4564
(dp4565
g6
Nsg8
g16
sg10
Nsg17
NsbsS'facebook'
p4566
g0
(g1
g2
Ntp4567
Rp4568
(dp4569
g6
Nsg8
g16
sg10
Nsg17
NsbsS'redirecting'
p4570
g0
(g1
g2
Ntp4571
Rp4572
(dp4573
g6
Nsg8
g16
sg10
Nsg17
NsbsS'mexican'
p4574
g0
(g1
g2
Ntp4575
Rp4576
(dp4577
g6
Nsg8
g16
sg10
Nsg17
NsbsS'photoshot'
p4578
g0
(g1
g2
Ntp4579
Rp4580
(dp4581
g6
Nsg8
g9
sg10
Nsg17
NsbsS'reservoir'
p4582
g0
(g1
g2
Ntp4583
Rp4584
(dp4585
g6
Nsg8
g9
sg10
Nsg17
NsbsS'swamped'
p4586
g0
(g1
g2
Ntp4587
Rp4588
(dp4589
g6
Nsg8
g9
sg10
Nsg17
NsbsS'developed'
p4590
g0
(g1
g2
Ntp4591
Rp4592
(dp4593
g6
Nsg8
g16
sg10
Nsg17
NsbsS'azerbaijan'
p4594
g0
(g1
g2
Ntp4595
Rp4596
(dp4597
g6
Nsg8
g16
sg10
Nsg17
NsbsS'indiaindiatimes'
p4598
g0
(g1
g2
Ntp4599
Rp4600
(dp4601
g6
Nsg8
g16
sg10
Nsg17
NsbsS'held'
p4602
g0
(g1
g2
Ntp4603
Rp4604
(dp4605
g6
Nsg8
g9
sg10
Nsg17
NsbsS'thermal'
p4606
g0
(g1
g2
Ntp4607
Rp4608
(dp4609
g6
Nsg8
g16
sg10
Nsg17
NsbsS'embassy'
p4610
g0
(g1
g2
Ntp4611
Rp4612
(dp4613
g6
Nsg8
g16
sg10
Nsg17
NsbsS'lasers'
p4614
g0
(g1
g2
Ntp4615
Rp4616
(dp4617
g6
Nsg8
g16
sg10
Nsg17
NsbsS'replies'
p4618
g0
(g1
g2
Ntp4619
Rp4620
(dp4621
g6
Nsg8
g9
sg10
Nsg17
NsbsS'urdu'
p4622
g0
(g1
g2
Ntp4623
Rp4624
(dp4625
g6
Nsg8
g16
sg10
Nsg17
NsbsS'hell'
p4626
g0
(g1
g2
Ntp4627
Rp4628
(dp4629
g6
Nsg8
g9
sg10
Nsg17
NsbsS'turbine'
p4630
g0
(g1
g2
Ntp4631
Rp4632
(dp4633
g6
Nsg8
g16
sg10
Nsg17
NsbsS'developer'
p4634
g0
(g1
g2
Ntp4635
Rp4636
(dp4637
g6
Nsg8
g16
sg10
Nsg17
NsbsS'style'
p4638
g0
(g1
g2
Ntp4639
Rp4640
(dp4641
g6
Nsg8
g16
sg10
Nsg17
NsbsS'rapidly'
p4642
g0
(g1
g2
Ntp4643
Rp4644
(dp4645
g6
Nsg8
g9
sg10
Nsg17
NsbsS'fined'
p4646
g0
(g1
g2
Ntp4647
Rp4648
(dp4649
g6
Nsg8
g9
sg10
Nsg17
NsbsS'bangla'
p4650
g0
(g1
g2
Ntp4651
Rp4652
(dp4653
g6
Nsg8
g16
sg10
Nsg17
NsbsS'pct'
p4654
g0
(g1
g2
Ntp4655
Rp4656
(dp4657
g6
Nsg8
g16
sg10
Nsg17
NsbsS'late'
p4658
g0
(g1
g2
Ntp4659
Rp4660
(dp4661
g6
Nsg8
g9
sg10
Nsg17
NsbsS'usersubscribe'
p4662
g0
(g1
g2
Ntp4663
Rp4664
(dp4665
g6
Nsg8
g16
sg10
Nsg17
NsbsS'reuters'
p4666
g0
(g1
g2
Ntp4667
Rp4668
(dp4669
g6
Nsg8
g9
sg10
Nsg17
NsbsS'systems'
p4670
g0
(g1
g2
Ntp4671
Rp4672
(dp4673
g6
Nsg8
g16
sg10
Nsg17
NsbsS'peanuts'
p4674
g0
(g1
g2
Ntp4675
Rp4676
(dp4677
g6
Nsg8
g9
sg10
Nsg17
NsbsS'argentina'
p4678
g0
(g1
g2
Ntp4679
Rp4680
(dp4681
g6
Nsg8
g9
sg10
Nsg17
NsbsS'evening'
p4682
g0
(g1
g2
Ntp4683
Rp4684
(dp4685
g6
Nsg8
g9
sg10
Nsg17
NsbsS'lijin'
p4686
g0
(g1
g2
Ntp4687
Rp4688
(dp4689
g6
Nsg8
g9
sg10
Nsg17
NsbsS'policyhelpcontact'
p4690
g0
(g1
g2
Ntp4691
Rp4692
(dp4693
g6
Nsg8
g9
sg10
Nsg17
NsbsS'largest'
p4694
g0
(g1
g2
Ntp4695
Rp4696
(dp4697
g6
Nsg8
g16
sg10
Nsg17
NsbsS'geopolitical'
p4698
g0
(g1
g2
Ntp4699
Rp4700
(dp4701
g6
Nsg8
g16
sg10
Nsg17
NsbsS'starbucks'
p4702
g0
(g1
g2
Ntp4703
Rp4704
(dp4705
g6
Nsg8
g16
sg10
Nsg17
NsbsS'sanvu'
p4706
g0
(g1
g2
Ntp4707
Rp4708
(dp4709
g6
Nsg8
g9
sg10
Nsg17
NsbsS'association'
p4710
g0
(g1
g2
Ntp4711
Rp4712
(dp4713
g6
Nsg8
g16
sg10
Nsg17
NsbsS'occasions'
p4714
g0
(g1
g2
Ntp4715
Rp4716
(dp4717
g6
Nsg8
g9
sg10
Nsg17
NsbsS'stiff'
p4718
g0
(g1
g2
Ntp4719
Rp4720
(dp4721
g6
Nsg8
g16
sg10
Nsg17
NsbsS'micro'
p4722
g0
(g1
g2
Ntp4723
Rp4724
(dp4725
g6
Nsg8
g9
sg10
Nsg17
NsbsS'token'
p4726
g0
(g1
g2
Ntp4727
Rp4728
(dp4729
g6
Nsg8
g16
sg10
Nsg17
NsbsS'turns'
p4730
g0
(g1
g2
Ntp4731
Rp4732
(dp4733
g6
Nsg8
g9
sg10
Nsg17
NsbsS'monsoon'
p4734
g0
(g1
g2
Ntp4735
Rp4736
(dp4737
g6
Nsg8
g16
sg10
Nsg17
NsbsS'found'
p4738
g0
(g1
g2
Ntp4739
Rp4740
(dp4741
g6
Nsg8
g16
sg10
Nsg17
NsbsS'heavy'
p4742
g0
(g1
g2
Ntp4743
Rp4744
(dp4745
g6
Nsg8
g9
sg10
Nsg17
NsbsS'week'
p4746
g0
(g1
g2
Ntp4747
Rp4748
(dp4749
g6
Nsg8
g16
sg10
Nsg17
NsbsS'england'
p4750
g0
(g1
g2
Ntp4751
Rp4752
(dp4753
g6
Nsg8
g16
sg10
Nsg17
NsbsS'chevron'
p4754
g0
(g1
g2
Ntp4755
Rp4756
(dp4757
g6
Nsg8
g16
sg10
Nsg17
NsbsS'generation'
p4758
g0
(g1
g2
Ntp4759
Rp4760
(dp4761
g6
Nsg8
g16
sg10
Nsg17
NsbsS'house'
p4762
g0
(g1
g2
Ntp4763
Rp4764
(dp4765
g6
Nsg8
g9
sg10
Nsg17
NsbsS'fish'
p4766
g0
(g1
g2
Ntp4767
Rp4768
(dp4769
g6
Nsg8
g16
sg10
Nsg17
NsbsS'reduce'
p4770
g0
(g1
g2
Ntp4771
Rp4772
(dp4773
g6
Nsg8
g16
sg10
Nsg17
NsbsS'roke'
p4774
g0
(g1
g2
Ntp4775
Rp4776
(dp4777
g6
Nsg8
g9
sg10
Nsg17
NsbsS'connect'
p4778
g0
(g1
g2
Ntp4779
Rp4780
(dp4781
g6
Nsg8
g9
sg10
Nsg17
NsbsS'advertisers'
p4782
g0
(g1
g2
Ntp4783
Rp4784
(dp4785
g6
Nsg8
g16
sg10
Nsg17
NsbsS'operation'
p4786
g0
(g1
g2
Ntp4787
Rp4788
(dp4789
g6
Nsg8
g9
sg10
Nsg17
NsbsS'event'
p4790
g0
(g1
g2
Ntp4791
Rp4792
(dp4793
g6
Nsg8
g16
sg10
Nsg17
NsbsS'leave'
p4794
g0
(g1
g2
Ntp4795
Rp4796
(dp4797
g6
Nsg8
g9
sg10
Nsg17
NsbsS'perry'
p4798
g0
(g1
g2
Ntp4799
Rp4800
(dp4801
g6
Nsg8
g16
sg10
Nsg17
NsbsS'funding'
p4802
g0
(g1
g2
Ntp4803
Rp4804
(dp4805
g6
Nsg8
g9
sg10
Nsg17
NsbsS'research'
p4806
g0
(g1
g2
Ntp4807
Rp4808
(dp4809
g6
Nsg8
g16
sg10
Nsg17
NsbsS'health'
p4810
g0
(g1
g2
Ntp4811
Rp4812
(dp4813
g6
Nsg8
g16
sg10
Nsg17
NsbsS'print'
p4814
g0
(g1
g2
Ntp4815
Rp4816
(dp4817
g6
Nsg8
g9
sg10
Nsg17
NsbsS'caucasian'
p4818
g0
(g1
g2
Ntp4819
Rp4820
(dp4821
g6
Nsg8
g16
sg10
Nsg17
NsbsS'rabbani'
p4822
g0
(g1
g2
Ntp4823
Rp4824
(dp4825
g6
Nsg8
g16
sg10
Nsg17
NsbsS'friday'
p4826
g0
(g1
g2
Ntp4827
Rp4828
(dp4829
g6
Nsg8
g9
sg10
Nsg17
NsbsS'houses'
p4830
g0
(g1
g2
Ntp4831
Rp4832
(dp4833
g6
Nsg8
g16
sg10
Nsg17
NsbsS'ash'
p4834
g0
(g1
g2
Ntp4835
Rp4836
(dp4837
g6
Nsg8
g9
sg10
Nsg17
NsbsS'retained'
p4838
g0
(g1
g2
Ntp4839
Rp4840
(dp4841
g6
Nsg8
g16
sg10
Nsg17
NsbsS'launch'
p4842
g0
(g1
g2
Ntp4843
Rp4844
(dp4845
g6
Nsg8
g16
sg10
Nsg17
NsbsS'americas'
p4846
g0
(g1
g2
Ntp4847
Rp4848
(dp4849
g6
Nsg8
g16
sg10
Nsg17
NsbsS'american'
p4850
g0
(g1
g2
Ntp4851
Rp4852
(dp4853
g6
Nsg8
g16
sg10
Nsg17
NsbsS'hanjiang'
p4854
g0
(g1
g2
Ntp4855
Rp4856
(dp4857
g6
Nsg8
g9
sg10
Nsg17
NsbsS'feed'
p4858
g0
(g1
g2
Ntp4859
Rp4860
(dp4861
g6
Nsg8
g16
sg10
Nsg17
NsbsS'major'
p4862
g0
(g1
g2
Ntp4863
Rp4864
(dp4865
g6
Nsg8
g9
sg10
Nsg17
NsbsS'usda'
p4866
g0
(g1
g2
Ntp4867
Rp4868
(dp4869
g6
Nsg8
g9
sg10
Nsg17
NsbsS'encoding'
p4870
g0
(g1
g2
Ntp4871
Rp4872
(dp4873
g6
Nsg8
g16
sg10
Nsg17
NsbsS'number'
p4874
g0
(g1
g2
Ntp4875
Rp4876
(dp4877
g6
Nsg8
g16
sg10
Nsg17
NsbsS'passes'
p4878
g0
(g1
g2
Ntp4879
Rp4880
(dp4881
g6
Nsg8
g16
sg10
Nsg17
NsbsS'story'
p4882
g0
(g1
g2
Ntp4883
Rp4884
(dp4885
g6
Nsg8
g9
sg10
Nsg17
NsbsS'temperature'
p4886
g0
(g1
g2
Ntp4887
Rp4888
(dp4889
g6
Nsg8
g9
sg10
Nsg17
NsbsS'checkpoint'
p4890
g0
(g1
g2
Ntp4891
Rp4892
(dp4893
g6
Nsg8
g16
sg10
Nsg17
NsbsS'regulation'
p4894
g0
(g1
g2
Ntp4895
Rp4896
(dp4897
g6
Nsg8
g9
sg10
Nsg17
NsbsS'station'
p4898
g0
(g1
g2
Ntp4899
Rp4900
(dp4901
g6
Nsg8
g9
sg10
Nsg17
NsbsS'storm'
p4902
g0
(g1
g2
Ntp4903
Rp4904
(dp4905
g6
Nsg8
g9
sg10
Nsg17
NsbsS'scheme'
p4906
g0
(g1
g2
Ntp4907
Rp4908
(dp4909
g6
Nsg8
g9
sg10
Nsg17
NsbsS'larkin'
p4910
g0
(g1
g2
Ntp4911
Rp4912
(dp4913
g6
Nsg8
g16
sg10
Nsg17
NsbsS'erupted'
p4914
g0
(g1
g2
Ntp4915
Rp4916
(dp4917
g6
Nsg8
g9
sg10
Nsg17
NsbsS'extratropical'
p4918
g0
(g1
g2
Ntp4919
Rp4920
(dp4921
g6
Nsg8
g9
sg10
Nsg17
NsbsS'park'
p4922
g0
(g1
g2
Ntp4923
Rp4924
(dp4925
g6
Nsg8
g9
sg10
Nsg17
NsbsS'dentist'
p4926
g0
(g1
g2
Ntp4927
Rp4928
(dp4929
g6
Nsg8
g16
sg10
Nsg17
NsbsS'typhoon'
p4930
g0
(g1
g2
Ntp4931
Rp4932
(dp4933
g6
Nsg8
g9
sg10
Nsg17
NsbsS'newswire'
p4934
g0
(g1
g2
Ntp4935
Rp4936
(dp4937
g6
Nsg8
g16
sg10
Nsg17
NsbsS'presstv'
p4938
g0
(g1
g2
Ntp4939
Rp4940
(dp4941
g6
Nsg8
g9
sg10
Nsg17
NsbsS'jump'
p4942
g0
(g1
g2
Ntp4943
Rp4944
(dp4945
g6
Nsg8
g16
sg10
Nsg17
NsbsS'observatory'
p4946
g0
(g1
g2
Ntp4947
Rp4948
(dp4949
g6
Nsg8
g9
sg10
Nsg17
NsbsS'double'
p4950
g0
(g1
g2
Ntp4951
Rp4952
(dp4953
g6
Nsg8
g16
sg10
Nsg17
NsbsS'dikes'
p4954
g0
(g1
g2
Ntp4955
Rp4956
(dp4957
g6
Nsg8
g9
sg10
Nsg17
NsbsS'articlesend'
p4958
g0
(g1
g2
Ntp4959
Rp4960
(dp4961
g6
Nsg8
g9
sg10
Nsg17
NsbsS'marriage'
p4962
g0
(g1
g2
Ntp4963
Rp4964
(dp4965
g6
Nsg8
g16
sg10
Nsg17
NsbsS'ousted'
p4966
g0
(g1
g2
Ntp4967
Rp4968
(dp4969
g6
Nsg8
g9
sg10
Nsg17
NsbsS'biggest'
p4970
g0
(g1
g2
Ntp4971
Rp4972
(dp4973
g6
Nsg8
g9
sg10
Nsg17
NsbsS'macaulay'
p4974
g0
(g1
g2
Ntp4975
Rp4976
(dp4977
g6
Nsg8
g16
sg10
Nsg17
NsbsS'macao'
p4978
g0
(g1
g2
Ntp4979
Rp4980
(dp4981
g6
Nsg8
g16
sg10
Nsg17
NsbsS'orders'
p4982
g0
(g1
g2
Ntp4983
Rp4984
(dp4985
g6
Nsg8
g9
sg10
Nsg17
NsbsS'karl'
p4986
g0
(g1
g2
Ntp4987
Rp4988
(dp4989
g6
Nsg8
g9
sg10
Nsg17
NsbsS'mountain'
p4990
g0
(g1
g2
Ntp4991
Rp4992
(dp4993
g6
Nsg8
g16
sg10
Nsg17
NsbsS'lin'
p4994
g0
(g1
g2
Ntp4995
Rp4996
(dp4997
g6
Nsg8
g9
sg10
Nsg17
NsbsS'cave'
p4998
g0
(g1
g2
Ntp4999
Rp5000
(dp5001
g6
Nsg8
g16
sg10
Nsg17
NsbsS'click'
p5002
g0
(g1
g2
Ntp5003
Rp5004
(dp5005
g6
Nsg8
g16
sg10
Nsg17
NsbsS'liu'
p5006
g0
(g1
g2
Ntp5007
Rp5008
(dp5009
g6
Nsg8
g9
sg10
Nsg17
NsbsS'build'
p5010
g0
(g1
g2
Ntp5011
Rp5012
(dp5013
g6
Nsg8
g16
sg10
Nsg17
NsbsS'brace'
p5014
g0
(g1
g2
Ntp5015
Rp5016
(dp5017
g6
Nsg8
g9
sg10
Nsg17
NsbsS'province'
p5018
g0
(g1
g2
Ntp5019
Rp5020
(dp5021
g6
Nsg8
g9
sg10
Nsg17
NsbsS'electric'
p5022
g0
(g1
g2
Ntp5023
Rp5024
(dp5025
g6
Nsg8
g16
sg10
Nsg17
NsbsS'chars'
p5026
g0
(g1
g2
Ntp5027
Rp5028
(dp5029
g6
Nsg8
g9
sg10
Nsg17
NsbsS'english'
p5030
g0
(g1
g2
Ntp5031
Rp5032
(dp5033
g6
Nsg8
g16
sg10
Nsg17
NsbsS'reach'
p5034
g0
(g1
g2
Ntp5035
Rp5036
(dp5037
g6
Nsg8
g16
sg10
Nsg17
NsbsS'plan'
p5038
g0
(g1
g2
Ntp5039
Rp5040
(dp5041
g6
Nsg8
g16
sg10
Nsg17
NsbsS'prestige'
p5042
g0
(g1
g2
Ntp5043
Rp5044
(dp5045
g6
Nsg8
g16
sg10
Nsg17
NsbsS'mobile'
p5046
g0
(g1
g2
Ntp5047
Rp5048
(dp5049
g6
Nsg8
g16
sg10
Nsg17
NsbsS'clear'
p5050
g0
(g1
g2
Ntp5051
Rp5052
(dp5053
g6
Nsg8
g9
sg10
Nsg17
NsbsS'humanitarian'
p5054
g0
(g1
g2
Ntp5055
Rp5056
(dp5057
g6
Nsg8
g16
sg10
Nsg17
NsbsS'km'
p5058
g0
(g1
g2
Ntp5059
Rp5060
(dp5061
g6
Nsg8
g9
sg10
Nsg17
NsbsS'clean'
p5062
g0
(g1
g2
Ntp5063
Rp5064
(dp5065
g6
Nsg8
g16
sg10
Nsg17
NsbsS'jordan'
p5066
g0
(g1
g2
Ntp5067
Rp5068
(dp5069
g6
Nsg8
g16
sg10
Nsg17
NsbsS'microsoft'
p5070
g0
(g1
g2
Ntp5071
Rp5072
(dp5073
g6
Nsg8
g16
sg10
Nsg17
NsbsS'harbin'
p5074
g0
(g1
g2
Ntp5075
Rp5076
(dp5077
g6
Nsg8
g9
sg10
Nsg17
NsbsS'golf'
p5078
g0
(g1
g2
Ntp5079
Rp5080
(dp5081
g6
Nsg8
g16
sg10
Nsg17
NsbsS'gold'
p5082
g0
(g1
g2
Ntp5083
Rp5084
(dp5085
g6
Nsg8
g16
sg10
Nsg17
NsbsS'kosovo'
p5086
g0
(g1
g2
Ntp5087
Rp5088
(dp5089
g6
Nsg8
g9
sg10
Nsg17
NsbsS'businesses'
p5090
g0
(g1
g2
Ntp5091
Rp5092
(dp5093
g6
Nsg8
g16
sg10
Nsg17
NsbsS'shares'
p5094
g0
(g1
g2
Ntp5095
Rp5096
(dp5097
g6
Nsg8
g16
sg10
Nsg17
NsbsS'facebookpost'
p5098
g0
(g1
g2
Ntp5099
Rp5100
(dp5101
g6
Nsg8
g16
sg10
Nsg17
NsbsS'entity'
p5102
g0
(g1
g2
Ntp5103
Rp5104
(dp5105
g6
Nsg8
g16
sg10
Nsg17
NsbsS'headlines'
p5106
g0
(g1
g2
Ntp5107
Rp5108
(dp5109
g6
Nsg8
g16
sg10
Nsg17
NsbsS'font'
p5110
g0
(g1
g2
Ntp5111
Rp5112
(dp5113
g6
Nsg8
g9
sg10
Nsg17
NsbsS'find'
p5114
g0
(g1
g2
Ntp5115
Rp5116
(dp5117
g6
Nsg8
g9
sg10
Nsg17
NsbsS'unfuckable'
p5118
g0
(g1
g2
Ntp5119
Rp5120
(dp5121
g6
Nsg8
g16
sg10
Nsg17
NsbsS'impact'
p5122
g0
(g1
g2
Ntp5123
Rp5124
(dp5125
g6
Nsg8
g16
sg10
Nsg17
NsbsS'current'
p5126
g0
(g1
g2
Ntp5127
Rp5128
(dp5129
g6
Nsg8
g16
sg10
Nsg17
NsbsS'copyright'
p5130
g0
(g1
g2
Ntp5131
Rp5132
(dp5133
g6
Nsg8
g9
sg10
Nsg17
NsbsS'scooter'
p5134
g0
(g1
g2
Ntp5135
Rp5136
(dp5137
g6
Nsg8
g9
sg10
Nsg17
NsbsS'lightspeed'
p5138
g0
(g1
g2
Ntp5139
Rp5140
(dp5141
g6
Nsg8
g9
sg10
Nsg17
NsbsS'factor'
p5142
g0
(g1
g2
Ntp5143
Rp5144
(dp5145
g6
Nsg8
g16
sg10
Nsg17
NsbsS'insurance'
p5146
g0
(g1
g2
Ntp5147
Rp5148
(dp5149
g6
Nsg8
g16
sg10
Nsg17
NsbsS'columns'
p5150
g0
(g1
g2
Ntp5151
Rp5152
(dp5153
g6
Nsg8
g16
sg10
Nsg17
NsbsS'hit'
p5154
g0
(g1
g2
Ntp5155
Rp5156
(dp5157
g6
Nsg8
g9
sg10
Nsg17
NsbsS'gains'
p5158
g0
(g1
g2
Ntp5159
Rp5160
(dp5161
g6
Nsg8
g16
sg10
Nsg17
NsbsS'mercy'
p5162
g0
(g1
g2
Ntp5163
Rp5164
(dp5165
g6
Nsg8
g9
sg10
Nsg17
NsbsS'inregister'
p5166
g0
(g1
g2
Ntp5167
Rp5168
(dp5169
g6
Nsg8
g16
sg10
Nsg17
NsbsS'express'
p5170
g0
(g1
g2
Ntp5171
Rp5172
(dp5173
g6
Nsg8
g9
sg10
Nsg17
NsbsS'batter'
p5174
g0
(g1
g2
Ntp5175
Rp5176
(dp5177
g6
Nsg8
g9
sg10
Nsg17
NsbsS'breast'
p5178
g0
(g1
g2
Ntp5179
Rp5180
(dp5181
g6
Nsg8
g16
sg10
Nsg17
NsbsS'silk'
p5182
g0
(g1
g2
Ntp5183
Rp5184
(dp5185
g6
Nsg8
g16
sg10
Nsg17
NsbsS'intensify'
p5186
g0
(g1
g2
Ntp5187
Rp5188
(dp5189
g6
Nsg8
g9
sg10
Nsg17
NsbsS'xiamen'
p5190
g0
(g1
g2
Ntp5191
Rp5192
(dp5193
g6
Nsg8
g16
sg10
Nsg17
NsbsS'motorcycles'
p5194
g0
(g1
g2
Ntp5195
Rp5196
(dp5197
g6
Nsg8
g16
sg10
Nsg17
NsbsS'hukou'
p5198
g0
(g1
g2
Ntp5199
Rp5200
(dp5201
g6
Nsg8
g9
sg10
Nsg17
NsbsS'boost'
p5202
g0
(g1
g2
Ntp5203
Rp5204
(dp5205
g6
Nsg8
g16
sg10
Nsg17
NsbsS'banking'
p5206
g0
(g1
g2
Ntp5207
Rp5208
(dp5209
g6
Nsg8
g16
sg10
Nsg17
NsbsS'investigate'
p5210
g0
(g1
g2
Ntp5211
Rp5212
(dp5213
g6
Nsg8
g16
sg10
Nsg17
NsbsS'common'
p5214
g0
(g1
g2
Ntp5215
Rp5216
(dp5217
g6
Nsg8
g16
sg10
Nsg17
NsbsS'activity'
p5218
g0
(g1
g2
Ntp5219
Rp5220
(dp5221
g6
Nsg8
g16
sg10
Nsg17
NsbsS'river'
p5222
g0
(g1
g2
Ntp5223
Rp5224
(dp5225
g6
Nsg8
g9
sg10
Nsg17
NsbsS'set'
p5226
g0
(g1
g2
Ntp5227
Rp5228
(dp5229
g6
Nsg8
g16
sg10
Nsg17
NsbsS'art'
p5230
g0
(g1
g2
Ntp5231
Rp5232
(dp5233
g6
Nsg8
g16
sg10
Nsg17
NsbsS'backtrack'
p5234
g0
(g1
g2
Ntp5235
Rp5236
(dp5237
g6
Nsg8
g16
sg10
Nsg17
NsbsS'sex'
p5238
g0
(g1
g2
Ntp5239
Rp5240
(dp5241
g6
Nsg8
g16
sg10
Nsg17
NsbsS'individual'
p5242
g0
(g1
g2
Ntp5243
Rp5244
(dp5245
g6
Nsg8
g16
sg10
Nsg17
NsbsS'sea'
p5246
g0
(g1
g2
Ntp5247
Rp5248
(dp5249
g6
Nsg8
g16
sg10
Nsg17
NsbsS'close'
p5250
g0
(g1
g2
Ntp5251
Rp5252
(dp5253
g6
Nsg8
g16
sg10
Nsg17
NsbsS'autoradio'
p5254
g0
(g1
g2
Ntp5255
Rp5256
(dp5257
g6
Nsg8
g16
sg10
Nsg17
NsbsS'visiting'
p5258
g0
(g1
g2
Ntp5259
Rp5260
(dp5261
g6
Nsg8
g16
sg10
Nsg17
NsbsS'pictures'
p5262
g0
(g1
g2
Ntp5263
Rp5264
(dp5265
g6
Nsg8
g16
sg10
Nsg17
NsbsS'crossword'
p5266
g0
(g1
g2
Ntp5267
Rp5268
(dp5269
g6
Nsg8
g9
sg10
Nsg17
NsbsS'fans'
p5270
g0
(g1
g2
Ntp5271
Rp5272
(dp5273
g6
Nsg8
g9
sg10
Nsg17
NsbsS'captured'
p5274
g0
(g1
g2
Ntp5275
Rp5276
(dp5277
g6
Nsg8
g16
sg10
Nsg17
NsbsS'conditions'
p5278
g0
(g1
g2
Ntp5279
Rp5280
(dp5281
g6
Nsg8
g9
sg10
Nsg17
NsbsS'latin'
p5282
g0
(g1
g2
Ntp5283
Rp5284
(dp5285
g6
Nsg8
g16
sg10
Nsg17
NsbsS'missing'
p5286
g0
(g1
g2
Ntp5287
Rp5288
(dp5289
g6
Nsg8
g9
sg10
Nsg17
NsbsS'sole'
p5290
g0
(g1
g2
Ntp5291
Rp5292
(dp5293
g6
Nsg8
g16
sg10
Nsg17
NsbsS'disallow'
p5294
g0
(g1
g2
Ntp5295
Rp5296
(dp5297
g6
Nsg8
g16
sg10
Nsg17
NsbsS'incident'
p5298
g0
(g1
g2
Ntp5299
Rp5300
(dp5301
g6
Nsg8
g16
sg10
Nsg17
NsbsS'pepsi'
p5302
g0
(g1
g2
Ntp5303
Rp5304
(dp5305
g6
Nsg8
g16
sg10
Nsg17
NsbsS'sclc'
p5306
g0
(g1
g2
Ntp5307
Rp5308
(dp5309
g6
Nsg8
g16
sg10
Nsg17
NsbsS'restaurant'
p5310
g0
(g1
g2
Ntp5311
Rp5312
(dp5313
g6
Nsg8
g16
sg10
Nsg17
NsbsS'treated'
p5314
g0
(g1
g2
Ntp5315
Rp5316
(dp5317
g6
Nsg8
g16
sg10
Nsg17
NsbsS'annual'
p5318
g0
(g1
g2
Ntp5319
Rp5320
(dp5321
g6
Nsg8
g16
sg10
Nsg17
NsbsS'foreign'
p5322
g0
(g1
g2
Ntp5323
Rp5324
(dp5325
g6
Nsg8
g16
sg10
Nsg17
NsbsS'connection'
p5326
g0
(g1
g2
Ntp5327
Rp5328
(dp5329
g6
Nsg8
g16
sg10
Nsg17
NsbsS'rose'
p5330
g0
(g1
g2
Ntp5331
Rp5332
(dp5333
g6
Nsg8
g9
sg10
Nsg17
NsbsS'upgraded'
p5334
g0
(g1
g2
Ntp5335
Rp5336
(dp5337
g6
Nsg8
g9
sg10
Nsg17
NsbsS'guangxi'
p5338
g0
(g1
g2
Ntp5339
Rp5340
(dp5341
g6
Nsg8
g9
sg10
Nsg17
NsbsS'supply'
p5342
g0
(g1
g2
Ntp5343
Rp5344
(dp5345
g6
Nsg8
g16
sg10
Nsg17
NsbsS'simple'
p5346
g0
(g1
g2
Ntp5347
Rp5348
(dp5349
g6
Nsg8
g16
sg10
Nsg17
NsbsS'logged'
p5350
g0
(g1
g2
Ntp5351
Rp5352
(dp5353
g6
Nsg8
g9
sg10
Nsg17
NsbsS'kilometers'
p5354
g0
(g1
g2
Ntp5355
Rp5356
(dp5357
g6
Nsg8
g16
sg10
Nsg17
NsbsS'community'
p5358
g0
(g1
g2
Ntp5359
Rp5360
(dp5361
g6
Nsg8
g16
sg10
Nsg17
NsbsS'lake'
p5362
g0
(g1
g2
Ntp5363
Rp5364
(dp5365
g6
Nsg8
g9
sg10
Nsg17
NsbsS'improper'
p5366
g0
(g1
g2
Ntp5367
Rp5368
(dp5369
g6
Nsg8
g16
sg10
Nsg17
NsbsS'linux'
p5370
g0
(g1
g2
Ntp5371
Rp5372
(dp5373
g6
Nsg8
g16
sg10
Nsg17
NsbsS'ravaged'
p5374
g0
(g1
g2
Ntp5375
Rp5376
(dp5377
g6
Nsg8
g9
sg10
Nsg17
NsbsS'expensive'
p5378
g0
(g1
g2
Ntp5379
Rp5380
(dp5381
g6
Nsg8
g9
sg10
Nsg17
NsbsS'pr'
p5382
g0
(g1
g2
Ntp5383
Rp5384
(dp5385
g6
Nsg8
g16
sg10
Nsg17
NsbsS'decline'
p5386
g0
(g1
g2
Ntp5387
Rp5388
(dp5389
g6
Nsg8
g16
sg10
Nsg17
NsbsS'brics'
p5390
g0
(g1
g2
Ntp5391
Rp5392
(dp5393
g6
Nsg8
g16
sg10
Nsg17
NsbsS'jiuzhaigou'
p5394
g0
(g1
g2
Ntp5395
Rp5396
(dp5397
g6
Nsg8
g16
sg10
Nsg17
NsbsS'dams'
p5398
g0
(g1
g2
Ntp5399
Rp5400
(dp5401
g6
Nsg8
g9
sg10
Nsg17
NsbsS'create'
p5402
g0
(g1
g2
Ntp5403
Rp5404
(dp5405
g6
Nsg8
g16
sg10
Nsg17
NsbsS'political'
p5406
g0
(g1
g2
Ntp5407
Rp5408
(dp5409
g6
Nsg8
g16
sg10
Nsg17
NsbsS'due'
p5410
g0
(g1
g2
Ntp5411
Rp5412
(dp5413
g6
Nsg8
g9
sg10
Nsg17
NsbsS'pc'
p5414
g0
(g1
g2
Ntp5415
Rp5416
(dp5417
g6
Nsg8
g16
sg10
Nsg17
NsbsS'change'
p5418
g0
(g1
g2
Ntp5419
Rp5420
(dp5421
g6
Nsg8
g9
sg10
Nsg17
NsbsS'ireland'
p5422
g0
(g1
g2
Ntp5423
Rp5424
(dp5425
g6
Nsg8
g16
sg10
Nsg17
NsbsS'boston'
p5426
g0
(g1
g2
Ntp5427
Rp5428
(dp5429
g6
Nsg8
g16
sg10
Nsg17
NsbsS'pm'
p5430
g0
(g1
g2
Ntp5431
Rp5432
(dp5433
g6
Nsg8
g16
sg10
Nsg17
NsbsS'gay'
p5434
g0
(g1
g2
Ntp5435
Rp5436
(dp5437
g6
Nsg8
g16
sg10
Nsg17
NsbsS'gas'
p5438
g0
(g1
g2
Ntp5439
Rp5440
(dp5441
g6
Nsg8
g16
sg10
Nsg17
NsbsS'fund'
p5442
g0
(g1
g2
Ntp5443
Rp5444
(dp5445
g6
Nsg8
g16
sg10
Nsg17
NsbsS'understand'
p5446
g0
(g1
g2
Ntp5447
Rp5448
(dp5449
g6
Nsg8
g16
sg10
Nsg17
NsbsS'prices'
p5450
g0
(g1
g2
Ntp5451
Rp5452
(dp5453
g6
Nsg8
g9
sg10
Nsg17
NsbsS'towns'
p5454
g0
(g1
g2
Ntp5455
Rp5456
(dp5457
g6
Nsg8
g9
sg10
Nsg17
NsbsS'poised'
p5458
g0
(g1
g2
Ntp5459
Rp5460
(dp5461
g6
Nsg8
g16
sg10
Nsg17
NsbsS'plants'
p5462
g0
(g1
g2
Ntp5463
Rp5464
(dp5465
g6
Nsg8
g16
sg10
Nsg17
NsbsS'enrollment'
p5466
g0
(g1
g2
Ntp5467
Rp5468
(dp5469
g6
Nsg8
g16
sg10
Nsg17
NsbsS'bill'
p5470
g0
(g1
g2
Ntp5471
Rp5472
(dp5473
g6
Nsg8
g16
sg10
Nsg17
NsbsS'mln'
p5474
g0
(g1
g2
Ntp5475
Rp5476
(dp5477
g6
Nsg8
g9
sg10
Nsg17
NsbsS'match'
p5478
g0
(g1
g2
Ntp5479
Rp5480
(dp5481
g6
Nsg8
g16
sg10
Nsg17
NsbsS'fleet'
p5482
g0
(g1
g2
Ntp5483
Rp5484
(dp5485
g6
Nsg8
g16
sg10
Nsg17
NsbsS'kingdom'
p5486
g0
(g1
g2
Ntp5487
Rp5488
(dp5489
g6
Nsg8
g16
sg10
Nsg17
NsbsS'mailitimes'
p5490
g0
(g1
g2
Ntp5491
Rp5492
(dp5493
g6
Nsg8
g16
sg10
Nsg17
NsbsS'voa'
p5494
g0
(g1
g2
Ntp5495
Rp5496
(dp5497
g6
Nsg8
g16
sg10
Nsg17
NsbsS'century'
p5498
g0
(g1
g2
Ntp5499
Rp5500
(dp5501
g6
Nsg8
g9
sg10
Nsg17
NsbsS'motors'
p5502
g0
(g1
g2
Ntp5503
Rp5504
(dp5505
g6
Nsg8
g16
sg10
Nsg17
NsbsS'ready'
p5506
g0
(g1
g2
Ntp5507
Rp5508
(dp5509
g6
Nsg8
g16
sg10
Nsg17
NsbsS'emoticons'
p5510
g0
(g1
g2
Ntp5511
Rp5512
(dp5513
g6
Nsg8
g16
sg10
Nsg17
NsbsS'spears'
p5514
g0
(g1
g2
Ntp5515
Rp5516
(dp5517
g6
Nsg8
g16
sg10
Nsg17
NsbsS'resources'
p5518
g0
(g1
g2
Ntp5519
Rp5520
(dp5521
g6
Nsg8
g9
sg10
Nsg17
NsbsS'higher'
p5522
g0
(g1
g2
Ntp5523
Rp5524
(dp5525
g6
Nsg8
g9
sg10
Nsg17
NsbsS'development'
p5526
g0
(g1
g2
Ntp5527
Rp5528
(dp5529
g6
Nsg8
g16
sg10
Nsg17
NsbsS'dhabi'
p5530
g0
(g1
g2
Ntp5531
Rp5532
(dp5533
g6
Nsg8
g16
sg10
Nsg17
NsbsS'temporary'
p5534
g0
(g1
g2
Ntp5535
Rp5536
(dp5537
g6
Nsg8
g9
sg10
Nsg17
NsbsS'affairs'
p5538
g0
(g1
g2
Ntp5539
Rp5540
(dp5541
g6
Nsg8
g9
sg10
Nsg17
NsbsS'flooded'
p5542
g0
(g1
g2
Ntp5543
Rp5544
(dp5545
g6
Nsg8
g9
sg10
Nsg17
NsbsS'yesterday'
p5546
g0
(g1
g2
Ntp5547
Rp5548
(dp5549
g6
Nsg8
g9
sg10
Nsg17
NsbsS'levels'
p5550
g0
(g1
g2
Ntp5551
Rp5552
(dp5553
g6
Nsg8
g9
sg10
Nsg17
NsbsS'moving'
p5554
g0
(g1
g2
Ntp5555
Rp5556
(dp5557
g6
Nsg8
g9
sg10
Nsg17
NsbsS'user'
p5558
g0
(g1
g2
Ntp5559
Rp5560
(dp5561
g6
Nsg8
g9
sg10
Nsg17
NsbsS'yuan'
p5562
g0
(g1
g2
Ntp5563
Rp5564
(dp5565
g6
Nsg8
g9
sg10
Nsg17
NsbsS'recent'
p5566
g0
(g1
g2
Ntp5567
Rp5568
(dp5569
g6
Nsg8
g9
sg10
Nsg17
NsbsS'lower'
p5570
g0
(g1
g2
Ntp5571
Rp5572
(dp5573
g6
Nsg8
g9
sg10
Nsg17
NsbsS'picks'
p5574
g0
(g1
g2
Ntp5575
Rp5576
(dp5577
g6
Nsg8
g16
sg10
Nsg17
NsbsS'person'
p5578
g0
(g1
g2
Ntp5579
Rp5580
(dp5581
g6
Nsg8
g9
sg10
Nsg17
NsbsS'inflation'
p5582
g0
(g1
g2
Ntp5583
Rp5584
(dp5585
g6
Nsg8
g16
sg10
Nsg17
NsbsS'entry'
p5586
g0
(g1
g2
Ntp5587
Rp5588
(dp5589
g6
Nsg8
g16
sg10
Nsg17
NsbsS'gsk'
p5590
g0
(g1
g2
Ntp5591
Rp5592
(dp5593
g6
Nsg8
g16
sg10
Nsg17
NsbsS'brecher'
p5594
g0
(g1
g2
Ntp5595
Rp5596
(dp5597
g6
Nsg8
g9
sg10
Nsg17
NsbsS'shareswashington'
p5598
g0
(g1
g2
Ntp5599
Rp5600
(dp5601
g6
Nsg8
g16
sg10
Nsg17
NsbsS'macedonian'
p5602
g0
(g1
g2
Ntp5603
Rp5604
(dp5605
g6
Nsg8
g16
sg10
Nsg17
NsbsS'ganzhou'
p5606
g0
(g1
g2
Ntp5607
Rp5608
(dp5609
g6
Nsg8
g16
sg10
Nsg17
NsbsS'questions'
p5610
g0
(g1
g2
Ntp5611
Rp5612
(dp5613
g6
Nsg8
g16
sg10
Nsg17
NsbsS'alternative'
p5614
g0
(g1
g2
Ntp5615
Rp5616
(dp5617
g6
Nsg8
g16
sg10
Nsg17
NsbsS'continent'
p5618
g0
(g1
g2
Ntp5619
Rp5620
(dp5621
g6
Nsg8
g9
sg10
Nsg17
NsbsS'apple'
p5622
g0
(g1
g2
Ntp5623
Rp5624
(dp5625
g6
Nsg8
g16
sg10
Nsg17
NsbsS'loading'
p5626
g0
(g1
g2
Ntp5627
Rp5628
(dp5629
g6
Nsg8
g16
sg10
Nsg17
NsbsS'tablet'
p5630
g0
(g1
g2
Ntp5631
Rp5632
(dp5633
g6
Nsg8
g16
sg10
Nsg17
NsbsS'cup'
p5634
g0
(g1
g2
Ntp5635
Rp5636
(dp5637
g6
Nsg8
g16
sg10
Nsg17
NsbsS'recipient'
p5638
g0
(g1
g2
Ntp5639
Rp5640
(dp5641
g6
Nsg8
g16
sg10
Nsg17
NsbsS'workers'
p5642
g0
(g1
g2
Ntp5643
Rp5644
(dp5645
g6
Nsg8
g9
sg10
Nsg17
NsbsS'advertisements'
p5646
g0
(g1
g2
Ntp5647
Rp5648
(dp5649
g6
Nsg8
g16
sg10
Nsg17
NsbsS'anova'
p5650
g0
(g1
g2
Ntp5651
Rp5652
(dp5653
g6
Nsg8
g16
sg10
Nsg17
NsbsS'mof'
p5654
g0
(g1
g2
Ntp5655
Rp5656
(dp5657
g6
Nsg8
g9
sg10
Nsg17
NsbsS'signals'
p5658
g0
(g1
g2
Ntp5659
Rp5660
(dp5661
g6
Nsg8
g16
sg10
Nsg17
NsbsS'source'
p5662
g0
(g1
g2
Ntp5663
Rp5664
(dp5665
g6
Nsg8
g9
sg10
Nsg17
NsbsS'governmental'
p5666
g0
(g1
g2
Ntp5667
Rp5668
(dp5669
g6
Nsg8
g16
sg10
Nsg17
NsbsS'hyperlinks'
p5670
g0
(g1
g2
Ntp5671
Rp5672
(dp5673
g6
Nsg8
g16
sg10
Nsg17
NsbsS'parents'
p5674
g0
(g1
g2
Ntp5675
Rp5676
(dp5677
g6
Nsg8
g16
sg10
Nsg17
NsbsS'location'
p5678
g0
(g1
g2
Ntp5679
Rp5680
(dp5681
g6
Nsg8
g16
sg10
Nsg17
NsbsS'circumcision'
p5682
g0
(g1
g2
Ntp5683
Rp5684
(dp5685
g6
Nsg8
g9
sg10
Nsg17
NsbsS'submissions'
p5686
g0
(g1
g2
Ntp5687
Rp5688
(dp5689
g6
Nsg8
g16
sg10
Nsg17
NsbsS'remaining'
p5690
g0
(g1
g2
Ntp5691
Rp5692
(dp5693
g6
Nsg8
g16
sg10
Nsg17
NsbsS'customers'
p5694
g0
(g1
g2
Ntp5695
Rp5696
(dp5697
g6
Nsg8
g9
sg10
Nsg17
NsbsS'australia'
p5698
g0
(g1
g2
Ntp5699
Rp5700
(dp5701
g6
Nsg8
g16
sg10
Nsg17
NsbsS'emergency'
p5702
g0
(g1
g2
Ntp5703
Rp5704
(dp5705
g6
Nsg8
g9
sg10
Nsg17
NsbsS'format'
p5706
g0
(g1
g2
Ntp5707
Rp5708
(dp5709
g6
Nsg8
g16
sg10
Nsg17
NsbsS'big'
p5710
g0
(g1
g2
Ntp5711
Rp5712
(dp5713
g6
Nsg8
g16
sg10
Nsg17
NsbsS'showing'
p5714
g0
(g1
g2
Ntp5715
Rp5716
(dp5717
g6
Nsg8
g9
sg10
Nsg17
NsbsS'game'
p5718
g0
(g1
g2
Ntp5719
Rp5720
(dp5721
g6
Nsg8
g16
sg10
Nsg17
NsbsS'private'
p5722
g0
(g1
g2
Ntp5723
Rp5724
(dp5725
g6
Nsg8
g16
sg10
Nsg17
NsbsS'precipitation'
p5726
g0
(g1
g2
Ntp5727
Rp5728
(dp5729
g6
Nsg8
g9
sg10
Nsg17
NsbsS'bis'
p5730
g0
(g1
g2
Ntp5731
Rp5732
(dp5733
g6
Nsg8
g16
sg10
Nsg17
NsbsS'projects'
p5734
g0
(g1
g2
Ntp5735
Rp5736
(dp5737
g6
Nsg8
g16
sg10
Nsg17
NsbsS'kyrgyzstan'
p5738
g0
(g1
g2
Ntp5739
Rp5740
(dp5741
g6
Nsg8
g16
sg10
Nsg17
NsbsS'miptec'
p5742
g0
(g1
g2
Ntp5743
Rp5744
(dp5745
g6
Nsg8
g16
sg10
Nsg17
NsbsS'toyota'
p5746
g0
(g1
g2
Ntp5747
Rp5748
(dp5749
g6
Nsg8
g16
sg10
Nsg17
NsbsS'rainstorms'
p5750
g0
(g1
g2
Ntp5751
Rp5752
(dp5753
g6
Nsg8
g9
sg10
Nsg17
NsbsS'collect'
p5754
g0
(g1
g2
Ntp5755
Rp5756
(dp5757
g6
Nsg8
g16
sg10
Nsg17
NsbsS'popular'
p5758
g0
(g1
g2
Ntp5759
Rp5760
(dp5761
g6
Nsg8
g16
sg10
Nsg17
NsbsS'suppliers'
p5762
g0
(g1
g2
Ntp5763
Rp5764
(dp5765
g6
Nsg8
g9
sg10
Nsg17
NsbsS'sitemap'
p5766
g0
(g1
g2
Ntp5767
Rp5768
(dp5769
g6
Nsg8
g9
sg10
Nsg17
NsbsS'google'
p5770
g0
(g1
g2
Ntp5771
Rp5772
(dp5773
g6
Nsg8
g16
sg10
Nsg17
NsbsS'loudi'
p5774
g0
(g1
g2
Ntp5775
Rp5776
(dp5777
g6
Nsg8
g9
sg10
Nsg17
NsbsS'back'
p5778
g0
(g1
g2
Ntp5779
Rp5780
(dp5781
g6
Nsg8
g16
sg10
Nsg17
NsbsS'economic'
p5782
g0
(g1
g2
Ntp5783
Rp5784
(dp5785
g6
Nsg8
g16
sg10
Nsg17
NsbsS'pricing'
p5786
g0
(g1
g2
Ntp5787
Rp5788
(dp5789
g6
Nsg8
g16
sg10
Nsg17
NsbsS'newsletter'
p5790
g0
(g1
g2
Ntp5791
Rp5792
(dp5793
g6
Nsg8
g16
sg10
Nsg17
NsbsS'affects'
p5794
g0
(g1
g2
Ntp5795
Rp5796
(dp5797
g6
Nsg8
g9
sg10
Nsg17
NsbsS'decision'
p5798
g0
(g1
g2
Ntp5799
Rp5800
(dp5801
g6
Nsg8
g9
sg10
Nsg17
NsbsS'exceeding'
p5802
g0
(g1
g2
Ntp5803
Rp5804
(dp5805
g6
Nsg8
g9
sg10
Nsg17
NsbsS'competitions'
p5806
g0
(g1
g2
Ntp5807
Rp5808
(dp5809
g6
Nsg8
g9
sg10
Nsg17
NsbsS'religion'
p5810
g0
(g1
g2
Ntp5811
Rp5812
(dp5813
g6
Nsg8
g16
sg10
Nsg17
NsbsS'todayelectric'
p5814
g0
(g1
g2
Ntp5815
Rp5816
(dp5817
g6
Nsg8
g16
sg10
Nsg17
NsbsS'approves'
p5818
g0
(g1
g2
Ntp5819
Rp5820
(dp5821
g6
Nsg8
g16
sg10
Nsg17
NsbsS'salmon'
p5822
g0
(g1
g2
Ntp5823
Rp5824
(dp5825
g6
Nsg8
g16
sg10
Nsg17
NsbsS'agreement'
p5826
g0
(g1
g2
Ntp5827
Rp5828
(dp5829
g6
Nsg8
g16
sg10
Nsg17
NsbsS'bp'
p5830
g0
(g1
g2
Ntp5831
Rp5832
(dp5833
g6
Nsg8
g16
sg10
Nsg17
NsbsS'optionsconnect'
p5834
g0
(g1
g2
Ntp5835
Rp5836
(dp5837
g6
Nsg8
g16
sg10
Nsg17
NsbsS'vaccine'
p5838
g0
(g1
g2
Ntp5839
Rp5840
(dp5841
g6
Nsg8
g16
sg10
Nsg17
NsbsS'pipeline'
p5842
g0
(g1
g2
Ntp5843
Rp5844
(dp5845
g6
Nsg8
g16
sg10
Nsg17
NsbsS'goods'
p5846
g0
(g1
g2
Ntp5847
Rp5848
(dp5849
g6
Nsg8
g16
sg10
Nsg17
NsbsS'pepsico'
p5850
g0
(g1
g2
Ntp5851
Rp5852
(dp5853
g6
Nsg8
g16
sg10
Nsg17
NsbsS'stricken'
p5854
g0
(g1
g2
Ntp5855
Rp5856
(dp5857
g6
Nsg8
g9
sg10
Nsg17
NsbsS'bariloche'
p5858
g0
(g1
g2
Ntp5859
Rp5860
(dp5861
g6
Nsg8
g9
sg10
Nsg17
NsbsS'livingsocial'
p5862
g0
(g1
g2
Ntp5863
Rp5864
(dp5865
g6
Nsg8
g16
sg10
Nsg17
NsbsS'silence'
p5866
g0
(g1
g2
Ntp5867
Rp5868
(dp5869
g6
Nsg8
g9
sg10
Nsg17
NsbsS'clinton'
p5870
g0
(g1
g2
Ntp5871
Rp5872
(dp5873
g6
Nsg8
g16
sg10
Nsg17
NsbsS'colorado'
p5874
g0
(g1
g2
Ntp5875
Rp5876
(dp5877
g6
Nsg8
g16
sg10
Nsg17
NsbsS'mudflows'
p5878
g0
(g1
g2
Ntp5879
Rp5880
(dp5881
g6
Nsg8
g9
sg10
Nsg17
NsbsS'higos'
p5882
g0
(g1
g2
Ntp5883
Rp5884
(dp5885
g6
Nsg8
g9
sg10
Nsg17
NsbsS'ahmadinejad'
p5886
g0
(g1
g2
Ntp5887
Rp5888
(dp5889
g6
Nsg8
g9
sg10
Nsg17
NsbsS'computer'
p5890
g0
(g1
g2
Ntp5891
Rp5892
(dp5893
g6
Nsg8
g16
sg10
Nsg17
NsbsS'spam'
p5894
g0
(g1
g2
Ntp5895
Rp5896
(dp5897
g6
Nsg8
g16
sg10
Nsg17
NsbsS'pharmaceuticals'
p5898
g0
(g1
g2
Ntp5899
Rp5900
(dp5901
g6
Nsg8
g16
sg10
Nsg17
NsbsS'vendors'
p5902
g0
(g1
g2
Ntp5903
Rp5904
(dp5905
g6
Nsg8
g16
sg10
Nsg17
NsbsS'window'
p5906
g0
(g1
g2
Ntp5907
Rp5908
(dp5909
g6
Nsg8
g16
sg10
Nsg17
NsbsS'files'
p5910
g0
(g1
g2
Ntp5911
Rp5912
(dp5913
g6
Nsg8
g16
sg10
Nsg17
NsbsS'mountains'
p5914
g0
(g1
g2
Ntp5915
Rp5916
(dp5917
g6
Nsg8
g9
sg10
Nsg17
NsbsS'peru'
p5918
g0
(g1
g2
Ntp5919
Rp5920
(dp5921
g6
Nsg8
g16
sg10
Nsg17
NsbsS'inches'
p5922
g0
(g1
g2
Ntp5923
Rp5924
(dp5925
g6
Nsg8
g9
sg10
Nsg17
NsbsS'etropole'
p5926
g0
(g1
g2
Ntp5927
Rp5928
(dp5929
g6
Nsg8
g16
sg10
Nsg17
NsbsS'registered'
p5930
g0
(g1
g2
Ntp5931
Rp5932
(dp5933
g6
Nsg8
g9
sg10
Nsg17
NsbsS'specialty'
p5934
g0
(g1
g2
Ntp5935
Rp5936
(dp5937
g6
Nsg8
g16
sg10
Nsg17
NsbsS'fisheries'
p5938
g0
(g1
g2
Ntp5939
Rp5940
(dp5941
g6
Nsg8
g9
sg10
Nsg17
NsbsS'link'
p5942
g0
(g1
g2
Ntp5943
Rp5944
(dp5945
g6
Nsg8
g16
sg10
Nsg17
NsbsS'russian'
p5946
g0
(g1
g2
Ntp5947
Rp5948
(dp5949
g6
Nsg8
g16
sg10
Nsg17
NsbsS'line'
p5950
g0
(g1
g2
Ntp5951
Rp5952
(dp5953
g6
Nsg8
g16
sg10
Nsg17
NsbsS'posted'
p5954
g0
(g1
g2
Ntp5955
Rp5956
(dp5957
g6
Nsg8
g16
sg10
Nsg17
NsbsS'fda'
p5958
g0
(g1
g2
Ntp5959
Rp5960
(dp5961
g6
Nsg8
g16
sg10
Nsg17
NsbsS'wenzhou'
p5962
g0
(g1
g2
Ntp5963
Rp5964
(dp5965
g6
Nsg8
g9
sg10
Nsg17
NsbsS'planet'
p5966
g0
(g1
g2
Ntp5967
Rp5968
(dp5969
g6
Nsg8
g16
sg10
Nsg17
NsbsS'emailing'
p5970
g0
(g1
g2
Ntp5971
Rp5972
(dp5973
g6
Nsg8
g16
sg10
Nsg17
NsbsS'uk'
p5974
g0
(g1
g2
Ntp5975
Rp5976
(dp5977
g6
Nsg8
g16
sg10
Nsg17
NsbsS'autonomous'
p5978
g0
(g1
g2
Ntp5979
Rp5980
(dp5981
g6
Nsg8
g9
sg10
Nsg17
NsbsS'similar'
p5982
g0
(g1
g2
Ntp5983
Rp5984
(dp5985
g6
Nsg8
g16
sg10
Nsg17
NsbsS'called'
p5986
g0
(g1
g2
Ntp5987
Rp5988
(dp5989
g6
Nsg8
g16
sg10
Nsg17
NsbsS'doclose'
p5990
g0
(g1
g2
Ntp5991
Rp5992
(dp5993
g6
Nsg8
g16
sg10
Nsg17
NsbsS'accessibility'
p5994
g0
(g1
g2
Ntp5995
Rp5996
(dp5997
g6
Nsg8
g9
sg10
Nsg17
NsbsS'reservoirs'
p5998
g0
(g1
g2
Ntp5999
Rp6000
(dp6001
g6
Nsg8
g9
sg10
Nsg17
NsbsS'chat'
p6002
g0
(g1
g2
Ntp6003
Rp6004
(dp6005
g6
Nsg8
g16
sg10
Nsg17
NsbsS'home'
p6006
g0
(g1
g2
Ntp6007
Rp6008
(dp6009
g6
Nsg8
g16
sg10
Nsg17
NsbsS'rainy'
p6010
g0
(g1
g2
Ntp6011
Rp6012
(dp6013
g6
Nsg8
g9
sg10
Nsg17
NsbsS'rains'
p6014
g0
(g1
g2
Ntp6015
Rp6016
(dp6017
g6
Nsg8
g9
sg10
Nsg17
NsbsS'nanyang'
p6018
g0
(g1
g2
Ntp6019
Rp6020
(dp6021
g6
Nsg8
g9
sg10
Nsg17
NsbsS'fears'
p6022
g0
(g1
g2
Ntp6023
Rp6024
(dp6025
g6
Nsg8
g9
sg10
Nsg17
NsbsS'changjiang'
p6026
g0
(g1
g2
Ntp6027
Rp6028
(dp6029
g6
Nsg8
g9
sg10
Nsg17
NsbsS'application'
p6030
g0
(g1
g2
Ntp6031
Rp6032
(dp6033
g6
Nsg8
g16
sg10
Nsg17
NsbsS'radioblenden'
p6034
g0
(g1
g2
Ntp6035
Rp6036
(dp6037
g6
Nsg8
g16
sg10
Nsg17
NsbsS'department'
p6038
g0
(g1
g2
Ntp6039
Rp6040
(dp6041
g6
Nsg8
g9
sg10
Nsg17
NsbsS'elements'
p6042
g0
(g1
g2
Ntp6043
Rp6044
(dp6045
g6
Nsg8
g9
sg10
Nsg17
NsbsS'users'
p6046
g0
(g1
g2
Ntp6047
Rp6048
(dp6049
g6
Nsg8
g16
sg10
Nsg17
NsbsS'thefts'
p6050
g0
(g1
g2
Ntp6051
Rp6052
(dp6053
g6
Nsg8
g16
sg10
Nsg17
NsbsS'drag'
p6054
g0
(g1
g2
Ntp6055
Rp6056
(dp6057
g6
Nsg8
g16
sg10
Nsg17
NsbsS'realclearworld'
p6058
g0
(g1
g2
Ntp6059
Rp6060
(dp6061
g6
Nsg8
g9
sg10
Nsg17
NsbsS'eval'
p6062
g0
(g1
g2
Ntp6063
Rp6064
(dp6065
g6
Nsg8
g16
sg10
Nsg17
NsbsS'vigil'
p6066
g0
(g1
g2
Ntp6067
Rp6068
(dp6069
g6
Nsg8
g16
sg10
Nsg17
NsbsS'sides'
p6070
g0
(g1
g2
Ntp6071
Rp6072
(dp6073
g6
Nsg8
g9
sg10
Nsg17
NsbsS'ago'
p6074
g0
(g1
g2
Ntp6075
Rp6076
(dp6077
g6
Nsg8
g16
sg10
Nsg17
NsbsS'ge'
p6078
g0
(g1
g2
Ntp6079
Rp6080
(dp6081
g6
Nsg8
g16
sg10
Nsg17
NsbsS'vice'
p6082
g0
(g1
g2
Ntp6083
Rp6084
(dp6085
g6
Nsg8
g16
sg10
Nsg17
NsbsS'confirm'
p6086
g0
(g1
g2
Ntp6087
Rp6088
(dp6089
g6
Nsg8
g16
sg10
Nsg17
NsbsS'turbines'
p6090
g0
(g1
g2
Ntp6091
Rp6092
(dp6093
g6
Nsg8
g16
sg10
Nsg17
NsbsS'emailpasswordkeep'
p6094
g0
(g1
g2
Ntp6095
Rp6096
(dp6097
g6
Nsg8
g9
sg10
Nsg17
NsbsS'rallies'
p6098
g0
(g1
g2
Ntp6099
Rp6100
(dp6101
g6
Nsg8
g16
sg10
Nsg17
NsbsS'fresh'
p6102
g0
(g1
g2
Ntp6103
Rp6104
(dp6105
g6
Nsg8
g16
sg10
Nsg17
NsbsS'moveit'
p6106
g0
(g1
g2
Ntp6107
Rp6108
(dp6109
g6
Nsg8
g16
sg10
Nsg17
NsbsS'gt'
p6110
g0
(g1
g2
Ntp6111
Rp6112
(dp6113
g6
Nsg8
g16
sg10
Nsg17
NsbsS'edf'
p6114
g0
(g1
g2
Ntp6115
Rp6116
(dp6117
g6
Nsg8
g9
sg10
Nsg17
NsbsS'issued'
p6118
g0
(g1
g2
Ntp6119
Rp6120
(dp6121
g6
Nsg8
g9
sg10
Nsg17
NsbsS'taizi'
p6122
g0
(g1
g2
Ntp6123
Rp6124
(dp6125
g6
Nsg8
g9
sg10
Nsg17
NsbsS'results'
p6126
g0
(g1
g2
Ntp6127
Rp6128
(dp6129
g6
Nsg8
g9
sg10
Nsg17
NsbsS'farms'
p6130
g0
(g1
g2
Ntp6131
Rp6132
(dp6133
g6
Nsg8
g16
sg10
Nsg17
NsbsS'winds'
p6134
g0
(g1
g2
Ntp6135
Rp6136
(dp6137
g6
Nsg8
g9
sg10
Nsg17
NsbsS'query'
p6138
g0
(g1
g2
Ntp6139
Rp6140
(dp6141
g6
Nsg8
g16
sg10
Nsg17
NsbsS'gm'
p6142
g0
(g1
g2
Ntp6143
Rp6144
(dp6145
g6
Nsg8
g16
sg10
Nsg17
NsbsS'issues'
p6146
g0
(g1
g2
Ntp6147
Rp6148
(dp6149
g6
Nsg8
g9
sg10
Nsg17
NsbsS'commas'
p6150
g0
(g1
g2
Ntp6151
Rp6152
(dp6153
g6
Nsg8
g16
sg10
Nsg17
NsbsS'turkish'
p6154
g0
(g1
g2
Ntp6155
Rp6156
(dp6157
g6
Nsg8
g16
sg10
Nsg17
NsbsS'harvest'
p6158
g0
(g1
g2
Ntp6159
Rp6160
(dp6161
g6
Nsg8
g9
sg10
Nsg17
NsbsS'concerned'
p6162
g0
(g1
g2
Ntp6163
Rp6164
(dp6165
g6
Nsg8
g9
sg10
Nsg17
NsbsS'cdc'
p6166
g0
(g1
g2
Ntp6167
Rp6168
(dp6169
g6
Nsg8
g16
sg10
Nsg17
NsbsS'send'
p6170
g0
(g1
g2
Ntp6171
Rp6172
(dp6173
g6
Nsg8
g16
sg10
Nsg17
NsbsS'citing'
p6174
g0
(g1
g2
Ntp6175
Rp6176
(dp6177
g6
Nsg8
g9
sg10
Nsg17
NsbsS'outlooks'
p6178
g0
(g1
g2
Ntp6179
Rp6180
(dp6181
g6
Nsg8
g16
sg10
Nsg17
NsbsS'helps'
p6182
g0
(g1
g2
Ntp6183
Rp6184
(dp6185
g6
Nsg8
g9
sg10
Nsg17
NsbsS'lewis'
p6186
g0
(g1
g2
Ntp6187
Rp6188
(dp6189
g6
Nsg8
g9
sg10
Nsg17
NsbsS'atlas'
p6190
g0
(g1
g2
Ntp6191
Rp6192
(dp6193
g6
Nsg8
g9
sg10
Nsg17
NsbsS'breach'
p6194
g0
(g1
g2
Ntp6195
Rp6196
(dp6197
g6
Nsg8
g16
sg10
Nsg17
NsbsS'include'
p6198
g0
(g1
g2
Ntp6199
Rp6200
(dp6201
g6
Nsg8
g16
sg10
Nsg17
NsbsS'relocated'
p6202
g0
(g1
g2
Ntp6203
Rp6204
(dp6205
g6
Nsg8
g9
sg10
Nsg17
NsbsS'lunar'
p6206
g0
(g1
g2
Ntp6207
Rp6208
(dp6209
g6
Nsg8
g16
sg10
Nsg17
NsbsS'dandy'
p6210
g0
(g1
g2
Ntp6211
Rp6212
(dp6213
g6
Nsg8
g9
sg10
Nsg17
NsbsS'automotive'
p6214
g0
(g1
g2
Ntp6215
Rp6216
(dp6217
g6
Nsg8
g16
sg10
Nsg17
NsbsS'osofar'
p6218
g0
(g1
g2
Ntp6219
Rp6220
(dp6221
g6
Nsg8
g9
sg10
Nsg17
NsbsS'continues'
p6222
g0
(g1
g2
Ntp6223
Rp6224
(dp6225
g6
Nsg8
g9
sg10
Nsg17
NsbsS'wave'
p6226
g0
(g1
g2
Ntp6227
Rp6228
(dp6229
g6
Nsg8
g9
sg10
Nsg17
NsbsS'zhejiang'
p6230
g0
(g1
g2
Ntp6231
Rp6232
(dp6233
g6
Nsg8
g9
sg10
Nsg17
NsbsS'rover'
p6234
g0
(g1
g2
Ntp6235
Rp6236
(dp6237
g6
Nsg8
g16
sg10
Nsg17
NsbsS'continued'
p6238
g0
(g1
g2
Ntp6239
Rp6240
(dp6241
g6
Nsg8
g9
sg10
Nsg17
NsbsS'categories'
p6242
g0
(g1
g2
Ntp6243
Rp6244
(dp6245
g6
Nsg8
g9
sg10
Nsg17
NsbsS'timely'
p6246
g0
(g1
g2
Ntp6247
Rp6248
(dp6249
g6
Nsg8
g16
sg10
Nsg17
NsbsS'severely'
p6250
g0
(g1
g2
Ntp6251
Rp6252
(dp6253
g6
Nsg8
g9
sg10
Nsg17
NsbsS'magic'
p6254
g0
(g1
g2
Ntp6255
Rp6256
(dp6257
g6
Nsg8
g9
sg10
Nsg17
NsbsS'evo'
p6258
g0
(g1
g2
Ntp6259
Rp6260
(dp6261
g6
Nsg8
g9
sg10
Nsg17
NsbsS'harbor'
p6262
g0
(g1
g2
Ntp6263
Rp6264
(dp6265
g6
Nsg8
g9
sg10
Nsg17
NsbsS'button'
p6266
g0
(g1
g2
Ntp6267
Rp6268
(dp6269
g6
Nsg8
g16
sg10
Nsg17
NsbsS'michael'
p6270
g0
(g1
g2
Ntp6271
Rp6272
(dp6273
g6
Nsg8
g16
sg10
Nsg17
NsbsS'yangzhou'
p6274
g0
(g1
g2
Ntp6275
Rp6276
(dp6277
g6
Nsg8
g16
sg10
Nsg17
NsbsS'deals'
p6278
g0
(g1
g2
Ntp6279
Rp6280
(dp6281
g6
Nsg8
g9
sg10
Nsg17
NsbsS'race'
p6282
g0
(g1
g2
Ntp6283
Rp6284
(dp6285
g6
Nsg8
g9
sg10
Nsg17
NsbsS'popup'
p6286
g0
(g1
g2
Ntp6287
Rp6288
(dp6289
g6
Nsg8
g16
sg10
Nsg17
NsbsS'obesity'
p6290
g0
(g1
g2
Ntp6291
Rp6292
(dp6293
g6
Nsg8
g16
sg10
Nsg17
NsbsS'sewage'
p6294
g0
(g1
g2
Ntp6295
Rp6296
(dp6297
g6
Nsg8
g9
sg10
Nsg17
NsbsS'smaller'
p6298
g0
(g1
g2
Ntp6299
Rp6300
(dp6301
g6
Nsg8
g9
sg10
Nsg17
NsbsS'abortion'
p6302
g0
(g1
g2
Ntp6303
Rp6304
(dp6305
g6
Nsg8
g9
sg10
Nsg17
NsbsS'claudio'
p6306
g0
(g1
g2
Ntp6307
Rp6308
(dp6309
g6
Nsg8
g9
sg10
Nsg17
NsbsS'rivers'
p6310
g0
(g1
g2
Ntp6311
Rp6312
(dp6313
g6
Nsg8
g9
sg10
Nsg17
NsbsS'noticias'
p6314
g0
(g1
g2
Ntp6315
Rp6316
(dp6317
g6
Nsg8
g9
sg10
Nsg17
NsbsS'glaxosmithkline'
p6318
g0
(g1
g2
Ntp6319
Rp6320
(dp6321
g6
Nsg8
g16
sg10
Nsg17
NsbsS'picked'
p6322
g0
(g1
g2
Ntp6323
Rp6324
(dp6325
g6
Nsg8
g16
sg10
Nsg17
NsbsS'acid'
p6326
g0
(g1
g2
Ntp6327
Rp6328
(dp6329
g6
Nsg8
g9
sg10
Nsg17
NsbsS'makers'
p6330
g0
(g1
g2
Ntp6331
Rp6332
(dp6333
g6
Nsg8
g16
sg10
Nsg17
NsbsS'onsign'
p6334
g0
(g1
g2
Ntp6335
Rp6336
(dp6337
g6
Nsg8
g16
sg10
Nsg17
NsbsS'universities'
p6338
g0
(g1
g2
Ntp6339
Rp6340
(dp6341
g6
Nsg8
g16
sg10
Nsg17
NsbsS'index'
p6342
g0
(g1
g2
Ntp6343
Rp6344
(dp6345
g6
Nsg8
g9
sg10
Nsg17
NsbsS'giving'
p6346
g0
(g1
g2
Ntp6347
Rp6348
(dp6349
g6
Nsg8
g16
sg10
Nsg17
NsbsS'paddle'
p6350
g0
(g1
g2
Ntp6351
Rp6352
(dp6353
g6
Nsg8
g9
sg10
Nsg17
NsbsS'overwhelmed'
p6354
g0
(g1
g2
Ntp6355
Rp6356
(dp6357
g6
Nsg8
g9
sg10
Nsg17
NsbsS'access'
p6358
g0
(g1
g2
Ntp6359
Rp6360
(dp6361
g6
Nsg8
g16
sg10
Nsg17
NsbsS'consistently'
p6362
g0
(g1
g2
Ntp6363
Rp6364
(dp6365
g6
Nsg8
g16
sg10
Nsg17
NsbsS'indian'
p6366
g0
(g1
g2
Ntp6367
Rp6368
(dp6369
g6
Nsg8
g16
sg10
Nsg17
NsbsS'chickpeas'
p6370
g0
(g1
g2
Ntp6371
Rp6372
(dp6373
g6
Nsg8
g16
sg10
Nsg17
NsbsS'capital'
p6374
g0
(g1
g2
Ntp6375
Rp6376
(dp6377
g6
Nsg8
g16
sg10
Nsg17
NsbsS'expresses'
p6378
g0
(g1
g2
Ntp6379
Rp6380
(dp6381
g6
Nsg8
g9
sg10
Nsg17
NsbsS'stance'
p6382
g0
(g1
g2
Ntp6383
Rp6384
(dp6385
g6
Nsg8
g9
sg10
Nsg17
NsbsS'exchange'
p6386
g0
(g1
g2
Ntp6387
Rp6388
(dp6389
g6
Nsg8
g16
sg10
Nsg17
NsbsS'pushing'
p6390
g0
(g1
g2
Ntp6391
Rp6392
(dp6393
g6
Nsg8
g9
sg10
Nsg17
NsbsS'commercial'
p6394
g0
(g1
g2
Ntp6395
Rp6396
(dp6397
g6
Nsg8
g16
sg10
Nsg17
NsbsS'explore'
p6398
g0
(g1
g2
Ntp6399
Rp6400
(dp6401
g6
Nsg8
g9
sg10
Nsg17
NsbsS'objects'
p6402
g0
(g1
g2
Ntp6403
Rp6404
(dp6405
g6
Nsg8
g16
sg10
Nsg17
NsbsS'euro'
p6406
g0
(g1
g2
Ntp6407
Rp6408
(dp6409
g6
Nsg8
g16
sg10
Nsg17
NsbsS'extreme'
p6410
g0
(g1
g2
Ntp6411
Rp6412
(dp6413
g6
Nsg8
g9
sg10
Nsg17
NsbsS'northern'
p6414
g0
(g1
g2
Ntp6415
Rp6416
(dp6417
g6
Nsg8
g16
sg10
Nsg17
NsbsS'metro'
p6418
g0
(g1
g2
Ntp6419
Rp6420
(dp6421
g6
Nsg8
g9
sg10
Nsg17
NsbsS'cern'
p6422
g0
(g1
g2
Ntp6423
Rp6424
(dp6425
g6
Nsg8
g9
sg10
Nsg17
NsbsS'mclaren'
p6426
g0
(g1
g2
Ntp6427
Rp6428
(dp6429
g6
Nsg8
g16
sg10
Nsg17
NsbsS'leaving'
p6430
g0
(g1
g2
Ntp6431
Rp6432
(dp6433
g6
Nsg8
g9
sg10
Nsg17
NsbsS'analitica'
p6434
g0
(g1
g2
Ntp6435
Rp6436
(dp6437
g6
Nsg8
g16
sg10
Nsg17
NsbsS'products'
p6438
g0
(g1
g2
Ntp6439
Rp6440
(dp6441
g6
Nsg8
g9
sg10
Nsg17
NsbsS'cousins'
p6442
g0
(g1
g2
Ntp6443
Rp6444
(dp6445
g6
Nsg8
g9
sg10
Nsg17
NsbsS'opinion'
p6446
g0
(g1
g2
Ntp6447
Rp6448
(dp6449
g6
Nsg8
g9
sg10
Nsg17
NsbsS'residents'
p6450
g0
(g1
g2
Ntp6451
Rp6452
(dp6453
g6
Nsg8
g9
sg10
Nsg17
NsbsS'gene'
p6454
g0
(g1
g2
Ntp6455
Rp6456
(dp6457
g6
Nsg8
g16
sg10
Nsg17
NsbsS'makes'
p6458
g0
(g1
g2
Ntp6459
Rp6460
(dp6461
g6
Nsg8
g16
sg10
Nsg17
NsbsS'explain'
p6462
g0
(g1
g2
Ntp6463
Rp6464
(dp6465
g6
Nsg8
g9
sg10
Nsg17
NsbsS'examining'
p6466
g0
(g1
g2
Ntp6467
Rp6468
(dp6469
g6
Nsg8
g16
sg10
Nsg17
NsbsS'named'
p6470
g0
(g1
g2
Ntp6471
Rp6472
(dp6473
g6
Nsg8
g9
sg10
Nsg17
NsbsS'firefox'
p6474
g0
(g1
g2
Ntp6475
Rp6476
(dp6477
g6
Nsg8
g16
sg10
Nsg17
NsbsS'addresses'
p6478
g0
(g1
g2
Ntp6479
Rp6480
(dp6481
g6
Nsg8
g16
sg10
Nsg17
NsbsS'danger'
p6482
g0
(g1
g2
Ntp6483
Rp6484
(dp6485
g6
Nsg8
g9
sg10
Nsg17
NsbsS'egypt'
p6486
g0
(g1
g2
Ntp6487
Rp6488
(dp6489
g6
Nsg8
g16
sg10
Nsg17
NsbsS'app'
p6490
g0
(g1
g2
Ntp6491
Rp6492
(dp6493
g6
Nsg8
g16
sg10
Nsg17
NsbsS'supergrid'
p6494
g0
(g1
g2
Ntp6495
Rp6496
(dp6497
g6
Nsg8
g16
sg10
Nsg17
NsbsS'nanjing'
p6498
g0
(g1
g2
Ntp6499
Rp6500
(dp6501
g6
Nsg8
g16
sg10
Nsg17
NsbsS'outcomes'
p6502
g0
(g1
g2
Ntp6503
Rp6504
(dp6505
g6
Nsg8
g16
sg10
Nsg17
NsbsS'homepage'
p6506
g0
(g1
g2
Ntp6507
Rp6508
(dp6509
g6
Nsg8
g16
sg10
Nsg17
NsbsS'api'
p6510
g0
(g1
g2
Ntp6511
Rp6512
(dp6513
g6
Nsg8
g16
sg10
Nsg17
NsbsS'motor'
p6514
g0
(g1
g2
Ntp6515
Rp6516
(dp6517
g6
Nsg8
g16
sg10
Nsg17
NsbsS'tap'
p6518
g0
(g1
g2
Ntp6519
Rp6520
(dp6521
g6
Nsg8
g16
sg10
Nsg17
NsbsS'festivals'
p6522
g0
(g1
g2
Ntp6523
Rp6524
(dp6525
g6
Nsg8
g16
sg10
Nsg17
NsbsS'singing'
p6526
g0
(g1
g2
Ntp6527
Rp6528
(dp6529
g6
Nsg8
g16
sg10
Nsg17
NsbsS'cloud'
p6530
g0
(g1
g2
Ntp6531
Rp6532
(dp6533
g6
Nsg8
g16
sg10
Nsg17
NsbsS'standing'
p6534
g0
(g1
g2
Ntp6535
Rp6536
(dp6537
g6
Nsg8
g16
sg10
Nsg17
NsbsS'fed'
p6538
g0
(g1
g2
Ntp6539
Rp6540
(dp6541
g6
Nsg8
g16
sg10
Nsg17
NsbsS'usa'
p6542
g0
(g1
g2
Ntp6543
Rp6544
(dp6545
g6
Nsg8
g16
sg10
Nsg17
NsbsS'camera'
p6546
g0
(g1
g2
Ntp6547
Rp6548
(dp6549
g6
Nsg8
g16
sg10
Nsg17
NsbsS'chu'
p6550
g0
(g1
g2
Ntp6551
Rp6552
(dp6553
g6
Nsg8
g16
sg10
Nsg17
NsbsS'vehicle'
p6554
g0
(g1
g2
Ntp6555
Rp6556
(dp6557
g6
Nsg8
g16
sg10
Nsg17
NsbsS'benxi'
p6558
g0
(g1
g2
Ntp6559
Rp6560
(dp6561
g6
Nsg8
g9
sg10
Nsg17
NsbsS'dentists'
p6562
g0
(g1
g2
Ntp6563
Rp6564
(dp6565
g6
Nsg8
g16
sg10
Nsg17
NsbsS'started'
p6566
g0
(g1
g2
Ntp6567
Rp6568
(dp6569
g6
Nsg8
g9
sg10
Nsg17
NsbsS'silberalfa'
p6570
g0
(g1
g2
Ntp6571
Rp6572
(dp6573
g6
Nsg8
g16
sg10
Nsg17
NsbsS'occurred'
p6574
g0
(g1
g2
Ntp6575
Rp6576
(dp6577
g6
Nsg8
g9
sg10
Nsg17
NsbsS'dentistry'
p6578
g0
(g1
g2
Ntp6579
Rp6580
(dp6581
g6
Nsg8
g16
sg10
Nsg17
NsbsS'iii'
p6582
g0
(g1
g2
Ntp6583
Rp6584
(dp6585
g6
Nsg8
g16
sg10
Nsg17
NsbsS'women'
p6586
g0
(g1
g2
Ntp6587
Rp6588
(dp6589
g6
Nsg8
g16
sg10
Nsg17
NsbsS'account'
p6590
g0
(g1
g2
Ntp6591
Rp6592
(dp6593
g6
Nsg8
g16
sg10
Nsg17
NsbsS'tunnel'
p6594
g0
(g1
g2
Ntp6595
Rp6596
(dp6597
g6
Nsg8
g9
sg10
Nsg17
NsbsS'ride'
p6598
g0
(g1
g2
Ntp6599
Rp6600
(dp6601
g6
Nsg8
g16
sg10
Nsg17
NsbsS'clients'
p6602
g0
(g1
g2
Ntp6603
Rp6604
(dp6605
g6
Nsg8
g9
sg10
Nsg17
NsbsS'halt'
p6606
g0
(g1
g2
Ntp6607
Rp6608
(dp6609
g6
Nsg8
g16
sg10
Nsg17
NsbsS'recession'
p6610
g0
(g1
g2
Ntp6611
Rp6612
(dp6613
g6
Nsg8
g16
sg10
Nsg17
NsbsS'drops'
p6614
g0
(g1
g2
Ntp6615
Rp6616
(dp6617
g6
Nsg8
g16
sg10
Nsg17
NsbsS'control'
p6618
g0
(g1
g2
Ntp6619
Rp6620
(dp6621
g6
Nsg8
g9
sg10
Nsg17
NsbsS'beijing'
p6622
g0
(g1
g2
Ntp6623
Rp6624
(dp6625
g6
Nsg8
g9
sg10
Nsg17
NsbsS'xiushui'
p6626
g0
(g1
g2
Ntp6627
Rp6628
(dp6629
g6
Nsg8
g9
sg10
Nsg17
NsbsS'reserved'
p6630
g0
(g1
g2
Ntp6631
Rp6632
(dp6633
g6
Nsg8
g9
sg10
Nsg17
NsbsS'links'
p6634
g0
(g1
g2
Ntp6635
Rp6636
(dp6637
g6
Nsg8
g9
sg10
Nsg17
NsbsS'process'
p6638
g0
(g1
g2
Ntp6639
Rp6640
(dp6641
g6
Nsg8
g16
sg10
Nsg17
NsbsS'isclosed'
p6642
g0
(g1
g2
Ntp6643
Rp6644
(dp6645
g6
Nsg8
g16
sg10
Nsg17
NsbsS'tax'
p6646
g0
(g1
g2
Ntp6647
Rp6648
(dp6649
g6
Nsg8
g16
sg10
Nsg17
NsbsS'purposes'
p6650
g0
(g1
g2
Ntp6651
Rp6652
(dp6653
g6
Nsg8
g16
sg10
Nsg17
NsbsS'promotional'
p6654
g0
(g1
g2
Ntp6655
Rp6656
(dp6657
g6
Nsg8
g16
sg10
Nsg17
NsbsS'high'
p6658
g0
(g1
g2
Ntp6659
Rp6660
(dp6661
g6
Nsg8
g16
sg10
Nsg17
NsbsS'tab'
p6662
g0
(g1
g2
Ntp6663
Rp6664
(dp6665
g6
Nsg8
g16
sg10
Nsg17
NsbsS'chevrolet'
p6666
g0
(g1
g2
Ntp6667
Rp6668
(dp6669
g6
Nsg8
g16
sg10
Nsg17
NsbsS'delay'
p6670
g0
(g1
g2
Ntp6671
Rp6672
(dp6673
g6
Nsg8
g16
sg10
Nsg17
NsbsS'located'
p6674
g0
(g1
g2
Ntp6675
Rp6676
(dp6677
g6
Nsg8
g9
sg10
Nsg17
NsbsS'afp'
p6678
g0
(g1
g2
Ntp6679
Rp6680
(dp6681
g6
Nsg8
g9
sg10
Nsg17
NsbsS'stock'
p6682
g0
(g1
g2
Ntp6683
Rp6684
(dp6685
g6
Nsg8
g16
sg10
Nsg17
NsbsS'profile'
p6686
g0
(g1
g2
Ntp6687
Rp6688
(dp6689
g6
Nsg8
g16
sg10
Nsg17
NsbsS'buildings'
p6690
g0
(g1
g2
Ntp6691
Rp6692
(dp6693
g6
Nsg8
g9
sg10
Nsg17
NsbsS'honda'
p6694
g0
(g1
g2
Ntp6695
Rp6696
(dp6697
g6
Nsg8
g16
sg10
Nsg17
NsbsS'farm'
p6698
g0
(g1
g2
Ntp6699
Rp6700
(dp6701
g6
Nsg8
g9
sg10
Nsg17
NsbsS'watch'
p6702
g0
(g1
g2
Ntp6703
Rp6704
(dp6705
g6
Nsg8
g9
sg10
Nsg17
NsbsS'highs'
p6706
g0
(g1
g2
Ntp6707
Rp6708
(dp6709
g6
Nsg8
g16
sg10
Nsg17
NsbsS'underway'
p6710
g0
(g1
g2
Ntp6711
Rp6712
(dp6713
g6
Nsg8
g9
sg10
Nsg17
NsbsS'abuse'
p6714
g0
(g1
g2
Ntp6715
Rp6716
(dp6717
g6
Nsg8
g9
sg10
Nsg17
NsbsS'ties'
p6718
g0
(g1
g2
Ntp6719
Rp6720
(dp6721
g6
Nsg8
g16
sg10
Nsg17
NsbsS'prostate'
p6722
g0
(g1
g2
Ntp6723
Rp6724
(dp6725
g6
Nsg8
g16
sg10
Nsg17
NsbsS'todayfood'
p6726
g0
(g1
g2
Ntp6727
Rp6728
(dp6729
g6
Nsg8
g16
sg10
Nsg17
NsbsS'geek'
p6730
g0
(g1
g2
Ntp6731
Rp6732
(dp6733
g6
Nsg8
g9
sg10
Nsg17
NsbsS'displayedwill'
p6734
g0
(g1
g2
Ntp6735
Rp6736
(dp6737
g6
Nsg8
g16
sg10
Nsg17
NsbsS'advocates'
p6738
g0
(g1
g2
Ntp6739
Rp6740
(dp6741
g6
Nsg8
g16
sg10
Nsg17
NsbsS'healthcare'
p6742
g0
(g1
g2
Ntp6743
Rp6744
(dp6745
g6
Nsg8
g16
sg10
Nsg17
NsbsS'notificationchild'
p6746
g0
(g1
g2
Ntp6747
Rp6748
(dp6749
g6
Nsg8
g9
sg10
Nsg17
NsbsS'aiken'
p6750
g0
(g1
g2
Ntp6751
Rp6752
(dp6753
g6
Nsg8
g16
sg10
Nsg17
NsbsS'producer'
p6754
g0
(g1
g2
Ntp6755
Rp6756
(dp6757
g6
Nsg8
g9
sg10
Nsg17
NsbsS'move'
p6758
g0
(g1
g2
Ntp6759
Rp6760
(dp6761
g6
Nsg8
g9
sg10
Nsg17
NsbsS'meter'
p6762
g0
(g1
g2
Ntp6763
Rp6764
(dp6765
g6
Nsg8
g9
sg10
Nsg17
NsbsS'doubtful'
p6766
g0
(g1
g2
Ntp6767
Rp6768
(dp6769
g6
Nsg8
g16
sg10
Nsg17
NsbsS'including'
p6770
g0
(g1
g2
Ntp6771
Rp6772
(dp6773
g6
Nsg8
g16
sg10
Nsg17
NsbsS'motorcycle'
p6774
g0
(g1
g2
Ntp6775
Rp6776
(dp6777
g6
Nsg8
g16
sg10
Nsg17
NsbsS'badges'
p6778
g0
(g1
g2
Ntp6779
Rp6780
(dp6781
g6
Nsg8
g9
sg10
Nsg17
NsbsS'warren'
p6782
g0
(g1
g2
Ntp6783
Rp6784
(dp6785
g6
Nsg8
g16
sg10
Nsg17
NsbsS'traders'
p6786
g0
(g1
g2
Ntp6787
Rp6788
(dp6789
g6
Nsg8
g16
sg10
Nsg17
NsbsS'revived'
p6790
g0
(g1
g2
Ntp6791
Rp6792
(dp6793
g6
Nsg8
g16
sg10
Nsg17
NsbsS'disqus'
p6794
g0
(g1
g2
Ntp6795
Rp6796
(dp6797
g6
Nsg8
g9
sg10
Nsg17
NsbsS'macuser'
p6798
g0
(g1
g2
Ntp6799
Rp6800
(dp6801
g6
Nsg8
g9
sg10
Nsg17
NsbsS'linyi'
p6802
g0
(g1
g2
Ntp6803
Rp6804
(dp6805
g6
Nsg8
g9
sg10
Nsg17
NsbsS'li'
p6806
g0
(g1
g2
Ntp6807
Rp6808
(dp6809
g6
Nsg8
g9
sg10
Nsg17
NsbsS'tyler'
p6810
g0
(g1
g2
Ntp6811
Rp6812
(dp6813
g6
Nsg8
g16
sg10
Nsg17
NsbsS'degrees'
p6814
g0
(g1
g2
Ntp6815
Rp6816
(dp6817
g6
Nsg8
g9
sg10
Nsg17
NsbsS'choose'
p6818
g0
(g1
g2
Ntp6819
Rp6820
(dp6821
g6
Nsg8
g16
sg10
Nsg17
NsbsS'wuyi'
p6822
g0
(g1
g2
Ntp6823
Rp6824
(dp6825
g6
Nsg8
g16
sg10
Nsg17
NsbsS'orange'
p6826
g0
(g1
g2
Ntp6827
Rp6828
(dp6829
g6
Nsg8
g9
sg10
Nsg17
NsbsS'covered'
p6830
g0
(g1
g2
Ntp6831
Rp6832
(dp6833
g6
Nsg8
g9
sg10
Nsg17
NsbsS'therefor'
p6834
g0
(g1
g2
Ntp6835
Rp6836
(dp6837
g6
Nsg8
g16
sg10
Nsg17
NsbsS'techcrunch'
p6838
g0
(g1
g2
Ntp6839
Rp6840
(dp6841
g6
Nsg8
g16
sg10
Nsg17
NsbsS'hainan'
p6842
g0
(g1
g2
Ntp6843
Rp6844
(dp6845
g6
Nsg8
g9
sg10
Nsg17
NsbsS'crash'
p6846
g0
(g1
g2
Ntp6847
Rp6848
(dp6849
g6
Nsg8
g9
sg10
Nsg17
NsbsS'dam'
p6850
g0
(g1
g2
Ntp6851
Rp6852
(dp6853
g6
Nsg8
g9
sg10
Nsg17
NsbsS'material'
p6854
g0
(g1
g2
Ntp6855
Rp6856
(dp6857
g6
Nsg8
g16
sg10
Nsg17
NsbsS'das'
p6858
g0
(g1
g2
Ntp6859
Rp6860
(dp6861
g6
Nsg8
g16
sg10
Nsg17
NsbsS'front'
p6862
g0
(g1
g2
Ntp6863
Rp6864
(dp6865
g6
Nsg8
g16
sg10
Nsg17
NsbsS'republican'
p6866
g0
(g1
g2
Ntp6867
Rp6868
(dp6869
g6
Nsg8
g9
sg10
Nsg17
NsbsS'flee'
p6870
g0
(g1
g2
Ntp6871
Rp6872
(dp6873
g6
Nsg8
g9
sg10
Nsg17
NsbsS'presidential'
p6874
g0
(g1
g2
Ntp6875
Rp6876
(dp6877
g6
Nsg8
g9
sg10
Nsg17
NsbsS'articles'
p6878
g0
(g1
g2
Ntp6879
Rp6880
(dp6881
g6
Nsg8
g16
sg10
Nsg17
NsbsS'warned'
p6882
g0
(g1
g2
Ntp6883
Rp6884
(dp6885
g6
Nsg8
g9
sg10
Nsg17
NsbsS'university'
p6886
g0
(g1
g2
Ntp6887
Rp6888
(dp6889
g6
Nsg8
g16
sg10
Nsg17
NsbsS'weihai'
p6890
g0
(g1
g2
Ntp6891
Rp6892
(dp6893
g6
Nsg8
g16
sg10
Nsg17
NsbsS'slide'
p6894
g0
(g1
g2
Ntp6895
Rp6896
(dp6897
g6
Nsg8
g9
sg10
Nsg17
NsbsS'doppel'
p6898
g0
(g1
g2
Ntp6899
Rp6900
(dp6901
g6
Nsg8
g16
sg10
Nsg17
NsbsS'depression'
p6902
g0
(g1
g2
Ntp6903
Rp6904
(dp6905
g6
Nsg8
g9
sg10
Nsg17
NsbsS'tents'
p6906
g0
(g1
g2
Ntp6907
Rp6908
(dp6909
g6
Nsg8
g9
sg10
Nsg17
NsbsS'liaoning'
p6910
g0
(g1
g2
Ntp6911
Rp6912
(dp6913
g6
Nsg8
g9
sg10
Nsg17
NsbsS'related'
p6914
g0
(g1
g2
Ntp6915
Rp6916
(dp6917
g6
Nsg8
g9
sg10
Nsg17
NsbsS'society'
p6918
g0
(g1
g2
Ntp6919
Rp6920
(dp6921
g6
Nsg8
g16
sg10
Nsg17
NsbsS'measure'
p6922
g0
(g1
g2
Ntp6923
Rp6924
(dp6925
g6
Nsg8
g16
sg10
Nsg17
NsbsS'agriculture'
p6926
g0
(g1
g2
Ntp6927
Rp6928
(dp6929
g6
Nsg8
g9
sg10
Nsg17
NsbsS'special'
p6930
g0
(g1
g2
Ntp6931
Rp6932
(dp6933
g6
Nsg8
g16
sg10
Nsg17
NsbsS'entertainment'
p6934
g0
(g1
g2
Ntp6935
Rp6936
(dp6937
g6
Nsg8
g16
sg10
Nsg17
NsbsS'announces'
p6938
g0
(g1
g2
Ntp6939
Rp6940
(dp6941
g6
Nsg8
g16
sg10
Nsg17
NsbsS'unlawful'
p6942
g0
(g1
g2
Ntp6943
Rp6944
(dp6945
g6
Nsg8
g16
sg10
Nsg17
NsbsS'ret'
p6946
g0
(g1
g2
Ntp6947
Rp6948
(dp6949
g6
Nsg8
g9
sg10
Nsg17
NsbsS'dailymotionunited'
p6950
g0
(g1
g2
Ntp6951
Rp6952
(dp6953
g6
Nsg8
g16
sg10
Nsg17
NsbsS'calif'
p6954
g0
(g1
g2
Ntp6955
Rp6956
(dp6957
g6
Nsg8
g9
sg10
Nsg17
NsbsS'waters'
p6958
g0
(g1
g2
Ntp6959
Rp6960
(dp6961
g6
Nsg8
g9
sg10
Nsg17
NsbsS'math'
p6962
g0
(g1
g2
Ntp6963
Rp6964
(dp6965
g6
Nsg8
g16
sg10
Nsg17
NsbsS'debris'
p6966
g0
(g1
g2
Ntp6967
Rp6968
(dp6969
g6
Nsg8
g9
sg10
Nsg17
NsbsS'eco'
p6970
g0
(g1
g2
Ntp6971
Rp6972
(dp6973
g6
Nsg8
g16
sg10
Nsg17
NsbsS'guizhou'
p6974
g0
(g1
g2
Ntp6975
Rp6976
(dp6977
g6
Nsg8
g9
sg10
Nsg17
NsbsS'regulators'
p6978
g0
(g1
g2
Ntp6979
Rp6980
(dp6981
g6
Nsg8
g16
sg10
Nsg17
NsbsS'york'
p6982
g0
(g1
g2
Ntp6983
Rp6984
(dp6985
g6
Nsg8
g16
sg10
Nsg17
NsbsS'regulatory'
p6986
g0
(g1
g2
Ntp6987
Rp6988
(dp6989
g6
Nsg8
g16
sg10
Nsg17
NsbsS'ipos'
p6990
g0
(g1
g2
Ntp6991
Rp6992
(dp6993
g6
Nsg8
g16
sg10
Nsg17
NsbsS'resumed'
p6994
g0
(g1
g2
Ntp6995
Rp6996
(dp6997
g6
Nsg8
g9
sg10
Nsg17
NsbsS'organic'
p6998
g0
(g1
g2
Ntp6999
Rp7000
(dp7001
g6
Nsg8
g16
sg10
Nsg17
NsbsS'bowman'
p7002
g0
(g1
g2
Ntp7003
Rp7004
(dp7005
g6
Nsg8
g16
sg10
Nsg17
NsbsS'spill'
p7006
g0
(g1
g2
Ntp7007
Rp7008
(dp7009
g6
Nsg8
g16
sg10
Nsg17
NsbsS'florida'
p7010
g0
(g1
g2
Ntp7011
Rp7012
(dp7013
g6
Nsg8
g16
sg10
Nsg17
NsbsS'timer'
p7014
g0
(g1
g2
Ntp7015
Rp7016
(dp7017
g6
Nsg8
g16
sg10
Nsg17
NsbsS'times'
p7018
g0
(g1
g2
Ntp7019
Rp7020
(dp7021
g6
Nsg8
g16
sg10
Nsg17
NsbsS'pigs'
p7022
g0
(g1
g2
Ntp7023
Rp7024
(dp7025
g6
Nsg8
g9
sg10
Nsg17
NsbsS'davis'
p7026
g0
(g1
g2
Ntp7027
Rp7028
(dp7029
g6
Nsg8
g16
sg10
Nsg17
NsbsS'retail'
p7030
g0
(g1
g2
Ntp7031
Rp7032
(dp7033
g6
Nsg8
g16
sg10
Nsg17
NsbsS'museum'
p7034
g0
(g1
g2
Ntp7035
Rp7036
(dp7037
g6
Nsg8
g16
sg10
Nsg17
NsbsS'berlusconi'
p7038
g0
(g1
g2
Ntp7039
Rp7040
(dp7041
g6
Nsg8
g16
sg10
Nsg17
NsbsS'rothstein'
p7042
g0
(g1
g2
Ntp7043
Rp7044
(dp7045
g6
Nsg8
g16
sg10
Nsg17
NsbsS'dounique'
p7046
g0
(g1
g2
Ntp7047
Rp7048
(dp7049
g6
Nsg8
g16
sg10
Nsg17
NsbsS'ihs'
p7050
g0
(g1
g2
Ntp7051
Rp7052
(dp7053
g6
Nsg8
g16
sg10
Nsg17
NsbsS'shenyang'
p7054
g0
(g1
g2
Ntp7055
Rp7056
(dp7057
g6
Nsg8
g16
sg10
Nsg17
NsbsS'reaches'
p7058
g0
(g1
g2
Ntp7059
Rp7060
(dp7061
g6
Nsg8
g9
sg10
Nsg17
NsbsS'reached'
p7062
g0
(g1
g2
Ntp7063
Rp7064
(dp7065
g6
Nsg8
g9
sg10
Nsg17
NsbsS'quality'
p7066
g0
(g1
g2
Ntp7067
Rp7068
(dp7069
g6
Nsg8
g16
sg10
Nsg17
NsbsS'braces'
p7070
g0
(g1
g2
Ntp7071
Rp7072
(dp7073
g6
Nsg8
g9
sg10
Nsg17
NsbsS'management'
p7074
g0
(g1
g2
Ntp7075
Rp7076
(dp7077
g6
Nsg8
g16
sg10
Nsg17
NsbsS'swept'
p7078
g0
(g1
g2
Ntp7079
Rp7080
(dp7081
g6
Nsg8
g9
sg10
Nsg17
NsbsS'los'
p7082
g0
(g1
g2
Ntp7083
Rp7084
(dp7085
g6
Nsg8
g9
sg10
Nsg17
NsbsS'tksensei'
p7086
g0
(g1
g2
Ntp7087
Rp7088
(dp7089
g6
Nsg8
g9
sg10
Nsg17
NsbsS'system'
p7090
g0
(g1
g2
Ntp7091
Rp7092
(dp7093
g6
Nsg8
g16
sg10
Nsg17
NsbsS'relations'
p7094
g0
(g1
g2
Ntp7095
Rp7096
(dp7097
g6
Nsg8
g16
sg10
Nsg17
NsbsS'priority'
p7098
g0
(g1
g2
Ntp7099
Rp7100
(dp7101
g6
Nsg8
g16
sg10
Nsg17
NsbsS'attack'
p7102
g0
(g1
g2
Ntp7103
Rp7104
(dp7105
g6
Nsg8
g16
sg10
Nsg17
NsbsS'countries'
p7106
g0
(g1
g2
Ntp7107
Rp7108
(dp7109
g6
Nsg8
g9
sg10
Nsg17
NsbsS'minjiang'
p7110
g0
(g1
g2
Ntp7111
Rp7112
(dp7113
g6
Nsg8
g9
sg10
Nsg17
NsbsS'stck'
p7114
g0
(g1
g2
Ntp7115
Rp7116
(dp7117
g6
Nsg8
g16
sg10
Nsg17
NsbsS'environmental'
p7118
g0
(g1
g2
Ntp7119
Rp7120
(dp7121
g6
Nsg8
g9
sg10
Nsg17
NsbsS'branches'
p7122
g0
(g1
g2
Ntp7123
Rp7124
(dp7125
g6
Nsg8
g16
sg10
Nsg17
NsbsS'pageinsightserroryou'
p7126
g0
(g1
g2
Ntp7127
Rp7128
(dp7129
g6
Nsg8
g16
sg10
Nsg17
NsbsS'rss'
p7130
g0
(g1
g2
Ntp7131
Rp7132
(dp7133
g6
Nsg8
g16
sg10
Nsg17
NsbsS'colleagues'
p7134
g0
(g1
g2
Ntp7135
Rp7136
(dp7137
g6
Nsg8
g9
sg10
Nsg17
NsbsS'warfare'
p7138
g0
(g1
g2
Ntp7139
Rp7140
(dp7141
g6
Nsg8
g16
sg10
Nsg17
NsbsS'isolation'
p7142
g0
(g1
g2
Ntp7143
Rp7144
(dp7145
g6
Nsg8
g16
sg10
Nsg17
NsbsS'patients'
p7146
g0
(g1
g2
Ntp7147
Rp7148
(dp7149
g6
Nsg8
g16
sg10
Nsg17
NsbsS'malpractice'
p7150
g0
(g1
g2
Ntp7151
Rp7152
(dp7153
g6
Nsg8
g16
sg10
Nsg17
NsbsS'gays'
p7154
g0
(g1
g2
Ntp7155
Rp7156
(dp7157
g6
Nsg8
g16
sg10
Nsg17
NsbsS'providing'
p7158
g0
(g1
g2
Ntp7159
Rp7160
(dp7161
g6
Nsg8
g16
sg10
Nsg17
NsbsS'false'
p7162
g0
(g1
g2
Ntp7163
Rp7164
(dp7165
g6
Nsg8
g16
sg10
Nsg17
NsbsS'showbiz'
p7166
g0
(g1
g2
Ntp7167
Rp7168
(dp7169
g6
Nsg8
g16
sg10
Nsg17
NsbsS'tonight'
p7170
g0
(g1
g2
Ntp7171
Rp7172
(dp7173
g6
Nsg8
g16
sg10
Nsg17
NsbsS'versandkosteninkl'
p7174
g0
(g1
g2
Ntp7175
Rp7176
(dp7177
g6
Nsg8
g16
sg10
Nsg17
NsbsS'linked'
p7178
g0
(g1
g2
Ntp7179
Rp7180
(dp7181
g6
Nsg8
g16
sg10
Nsg17
NsbsS'kinyarwanda'
p7182
g0
(g1
g2
Ntp7183
Rp7184
(dp7185
g6
Nsg8
g16
sg10
Nsg17
NsbsS'parks'
p7186
g0
(g1
g2
Ntp7187
Rp7188
(dp7189
g6
Nsg8
g9
sg10
Nsg17
NsbsS'pivotal'
p7190
g0
(g1
g2
Ntp7191
Rp7192
(dp7193
g6
Nsg8
g16
sg10
Nsg17
NsbsS'funds'
p7194
g0
(g1
g2
Ntp7195
Rp7196
(dp7197
g6
Nsg8
g16
sg10
Nsg17
NsbsS'worldwide'
p7198
g0
(g1
g2
Ntp7199
Rp7200
(dp7201
g6
Nsg8
g16
sg10
Nsg17
NsbsS'combat'
p7202
g0
(g1
g2
Ntp7203
Rp7204
(dp7205
g6
Nsg8
g9
sg10
Nsg17
NsbsS'parenting'
p7206
g0
(g1
g2
Ntp7207
Rp7208
(dp7209
g6
Nsg8
g16
sg10
Nsg17
NsbsS'preliminary'
p7210
g0
(g1
g2
Ntp7211
Rp7212
(dp7213
g6
Nsg8
g9
sg10
Nsg17
NsbsS'xinhua'
p7214
g0
(g1
g2
Ntp7215
Rp7216
(dp7217
g6
Nsg8
g9
sg10
Nsg17
NsbsS'gallery'
p7218
g0
(g1
g2
Ntp7219
Rp7220
(dp7221
g6
Nsg8
g9
sg10
Nsg17
NsbsS'wangmo'
p7222
g0
(g1
g2
Ntp7223
Rp7224
(dp7225
g6
Nsg8
g9
sg10
Nsg17
NsbsS'url'
p7226
g0
(g1
g2
Ntp7227
Rp7228
(dp7229
g6
Nsg8
g16
sg10
Nsg17
NsbsS'neighboring'
p7230
g0
(g1
g2
Ntp7231
Rp7232
(dp7233
g6
Nsg8
g9
sg10
Nsg17
NsbsS'stranded'
p7234
g0
(g1
g2
Ntp7235
Rp7236
(dp7237
g6
Nsg8
g9
sg10
Nsg17
NsbsS'request'
p7238
g0
(g1
g2
Ntp7239
Rp7240
(dp7241
g6
Nsg8
g16
sg10
Nsg17
NsbsS'disease'
p7242
g0
(g1
g2
Ntp7243
Rp7244
(dp7245
g6
Nsg8
g16
sg10
Nsg17
NsbsS'bret'
p7246
g0
(g1
g2
Ntp7247
Rp7248
(dp7249
g6
Nsg8
g16
sg10
Nsg17
NsbsS'fact'
p7250
g0
(g1
g2
Ntp7251
Rp7252
(dp7253
g6
Nsg8
g16
sg10
Nsg17
NsbsS'selection'
p7254
g0
(g1
g2
Ntp7255
Rp7256
(dp7257
g6
Nsg8
g16
sg10
Nsg17
NsbsS'hongzehong'
p7258
g0
(g1
g2
Ntp7259
Rp7260
(dp7261
g6
Nsg8
g9
sg10
Nsg17
NsbsS'text'
p7262
g0
(g1
g2
Ntp7263
Rp7264
(dp7265
g6
Nsg8
g16
sg10
Nsg17
NsbsS'supported'
p7266
g0
(g1
g2
Ntp7267
Rp7268
(dp7269
g6
Nsg8
g16
sg10
Nsg17
NsbsS'longevity'
p7270
g0
(g1
g2
Ntp7271
Rp7272
(dp7273
g6
Nsg8
g16
sg10
Nsg17
NsbsS'bring'
p7274
g0
(g1
g2
Ntp7275
Rp7276
(dp7277
g6
Nsg8
g9
sg10
Nsg17
NsbsS'soldiers'
p7278
g0
(g1
g2
Ntp7279
Rp7280
(dp7281
g6
Nsg8
g9
sg10
Nsg17
NsbsS'debate'
p7282
g0
(g1
g2
Ntp7283
Rp7284
(dp7285
g6
Nsg8
g9
sg10
Nsg17
NsbsS'decade'
p7286
g0
(g1
g2
Ntp7287
Rp7288
(dp7289
g6
Nsg8
g9
sg10
Nsg17
NsbsS'staff'
p7290
g0
(g1
g2
Ntp7291
Rp7292
(dp7293
g6
Nsg8
g9
sg10
Nsg17
NsbsS'forex'
p7294
g0
(g1
g2
Ntp7295
Rp7296
(dp7297
g6
Nsg8
g16
sg10
Nsg17
NsbsS'canberra'
p7298
g0
(g1
g2
Ntp7299
Rp7300
(dp7301
g6
Nsg8
g16
sg10
Nsg17
NsbsS'tire'
p7302
g0
(g1
g2
Ntp7303
Rp7304
(dp7305
g6
Nsg8
g16
sg10
Nsg17
NsbsS'mumbai'
p7306
g0
(g1
g2
Ntp7307
Rp7308
(dp7309
g6
Nsg8
g16
sg10
Nsg17
NsbsS'clutching'
p7310
g0
(g1
g2
Ntp7311
Rp7312
(dp7313
g6
Nsg8
g9
sg10
Nsg17
NsbsS'woo'
p7314
g0
(g1
g2
Ntp7315
Rp7316
(dp7317
g6
Nsg8
g16
sg10
Nsg17
NsbsS'candidates'
p7318
g0
(g1
g2
Ntp7319
Rp7320
(dp7321
g6
Nsg8
g16
sg10
Nsg17
NsbsS'employee'
p7322
g0
(g1
g2
Ntp7323
Rp7324
(dp7325
g6
Nsg8
g16
sg10
Nsg17
NsbsS'local'
p7326
g0
(g1
g2
Ntp7327
Rp7328
(dp7329
g6
Nsg8
g16
sg10
Nsg17
NsbsS'marvell'
p7330
g0
(g1
g2
Ntp7331
Rp7332
(dp7333
g6
Nsg8
g16
sg10
Nsg17
NsbsS'photography'
p7334
g0
(g1
g2
Ntp7335
Rp7336
(dp7337
g6
Nsg8
g9
sg10
Nsg17
NsbsS'vehicles'
p7338
g0
(g1
g2
Ntp7339
Rp7340
(dp7341
g6
Nsg8
g16
sg10
Nsg17
NsbsS'hifi'
p7342
g0
(g1
g2
Ntp7343
Rp7344
(dp7345
g6
Nsg8
g16
sg10
Nsg17
NsbsS'october'
p7346
g0
(g1
g2
Ntp7347
Rp7348
(dp7349
g6
Nsg8
g9
sg10
Nsg17
NsbsS'words'
p7350
g0
(g1
g2
Ntp7351
Rp7352
(dp7353
g6
Nsg8
g16
sg10
Nsg17
NsbsS'years'
p7354
g0
(g1
g2
Ntp7355
Rp7356
(dp7357
g6
Nsg8
g9
sg10
Nsg17
NsbsS'spur'
p7358
g0
(g1
g2
Ntp7359
Rp7360
(dp7361
g6
Nsg8
g9
sg10
Nsg17
NsbsS'tianhe'
p7362
g0
(g1
g2
Ntp7363
Rp7364
(dp7365
g6
Nsg8
g9
sg10
Nsg17
NsbsS'shu'
p7366
g0
(g1
g2
Ntp7367
Rp7368
(dp7369
g6
Nsg8
g9
sg10
Nsg17
NsbsS'unauthorized'
p7370
g0
(g1
g2
Ntp7371
Rp7372
(dp7373
g6
Nsg8
g16
sg10
Nsg17
NsbsS'gbk'
p7374
g0
(g1
g2
Ntp7375
Rp7376
(dp7377
g6
Nsg8
g16
sg10
Nsg17
NsbsS'qi'
p7378
g0
(g1
g2
Ntp7379
Rp7380
(dp7381
g6
Nsg8
g9
sg10
Nsg17
NsbsS'ohio'
p7382
g0
(g1
g2
Ntp7383
Rp7384
(dp7385
g6
Nsg8
g16
sg10
Nsg17
NsbsS'strengthened'
p7386
g0
(g1
g2
Ntp7387
Rp7388
(dp7389
g6
Nsg8
g16
sg10
Nsg17
NsbsS'accuser'
p7390
g0
(g1
g2
Ntp7391
Rp7392
(dp7393
g6
Nsg8
g16
sg10
Nsg17
NsbsS'africasyriathailandtunisiaturkeyunited'
p7394
g0
(g1
g2
Ntp7395
Rp7396
(dp7397
g6
Nsg8
g9
sg10
Nsg17
NsbsS'national'
p7398
g0
(g1
g2
Ntp7399
Rp7400
(dp7401
g6
Nsg8
g16
sg10
Nsg17
NsbsS'officials'
p7402
g0
(g1
g2
Ntp7403
Rp7404
(dp7405
g6
Nsg8
g9
sg10
Nsg17
NsbsS'disposal'
p7406
g0
(g1
g2
Ntp7407
Rp7408
(dp7409
g6
Nsg8
g9
sg10
Nsg17
NsbsS'greece'
p7410
g0
(g1
g2
Ntp7411
Rp7412
(dp7413
g6
Nsg8
g16
sg10
Nsg17
NsbsS'whiteglove'
p7414
g0
(g1
g2
Ntp7415
Rp7416
(dp7417
g6
Nsg8
g16
sg10
Nsg17
NsbsS'nuclear'
p7418
g0
(g1
g2
Ntp7419
Rp7420
(dp7421
g6
Nsg8
g16
sg10
Nsg17
NsbsS'shareadd'
p7422
g0
(g1
g2
Ntp7423
Rp7424
(dp7425
g6
Nsg8
g9
sg10
Nsg17
NsbsS'crude'
p7426
g0
(g1
g2
Ntp7427
Rp7428
(dp7429
g6
Nsg8
g16
sg10
Nsg17
NsbsS'overthrown'
p7430
g0
(g1
g2
Ntp7431
Rp7432
(dp7433
g6
Nsg8
g16
sg10
Nsg17
NsbsS'email'
p7434
g0
(g1
g2
Ntp7435
Rp7436
(dp7437
g6
Nsg8
g16
sg10
Nsg17
NsbsS'luo'
p7438
g0
(g1
g2
Ntp7439
Rp7440
(dp7441
g6
Nsg8
g9
sg10
Nsg17
NsbsS'keynote'
p7442
g0
(g1
g2
Ntp7443
Rp7444
(dp7445
g6
Nsg8
g16
sg10
Nsg17
NsbsS'spares'
p7446
g0
(g1
g2
Ntp7447
Rp7448
(dp7449
g6
Nsg8
g9
sg10
Nsg17
NsbsS'rescuers'
p7450
g0
(g1
g2
Ntp7451
Rp7452
(dp7453
g6
Nsg8
g9
sg10
Nsg17
NsbsS'efficiency'
p7454
g0
(g1
g2
Ntp7455
Rp7456
(dp7457
g6
Nsg8
g16
sg10
Nsg17
NsbsS'key'
p7458
g0
(g1
g2
Ntp7459
Rp7460
(dp7461
g6
Nsg8
g16
sg10
Nsg17
NsbsS'lawsuit'
p7462
g0
(g1
g2
Ntp7463
Rp7464
(dp7465
g6
Nsg8
g16
sg10
Nsg17
NsbsS'lanxi'
p7466
g0
(g1
g2
Ntp7467
Rp7468
(dp7469
g6
Nsg8
g9
sg10
Nsg17
NsbsS'hits'
p7470
g0
(g1
g2
Ntp7471
Rp7472
(dp7473
g6
Nsg8
g9
sg10
Nsg17
NsbsS'plugin'
p7474
g0
(g1
g2
Ntp7475
Rp7476
(dp7477
g6
Nsg8
g16
sg10
Nsg17
NsbsS'drug'
p7478
g0
(g1
g2
Ntp7479
Rp7480
(dp7481
g6
Nsg8
g16
sg10
Nsg17
NsbsS'bronx'
p7482
g0
(g1
g2
Ntp7483
Rp7484
(dp7485
g6
Nsg8
g16
sg10
Nsg17
NsbsS'sanjiangkou'
p7486
g0
(g1
g2
Ntp7487
Rp7488
(dp7489
g6
Nsg8
g9
sg10
Nsg17
NsbsS'comment'
p7490
g0
(g1
g2
Ntp7491
Rp7492
(dp7493
g6
Nsg8
g9
sg10
Nsg17
NsbsS'motionmakers'
p7494
g0
(g1
g2
Ntp7495
Rp7496
(dp7497
g6
Nsg8
g16
sg10
Nsg17
NsbsS'tuesday'
p7498
g0
(g1
g2
Ntp7499
Rp7500
(dp7501
g6
Nsg8
g9
sg10
Nsg17
NsbsS'stylelist'
p7502
g0
(g1
g2
Ntp7503
Rp7504
(dp7505
g6
Nsg8
g16
sg10
Nsg17
NsbsS'ce'
p7506
g0
(g1
g2
Ntp7507
Rp7508
(dp7509
g6
Nsg8
g9
sg10
Nsg17
NsbsS'subscribe'
p7510
g0
(g1
g2
Ntp7511
Rp7512
(dp7513
g6
Nsg8
g16
sg10
Nsg17
NsbsS'fukushima'
p7514
g0
(g1
g2
Ntp7515
Rp7516
(dp7517
g6
Nsg8
g9
sg10
Nsg17
NsbsS'cp'
p7518
g0
(g1
g2
Ntp7519
Rp7520
(dp7521
g6
Nsg8
g9
sg10
Nsg17
NsbsS'provinces'
p7522
g0
(g1
g2
Ntp7523
Rp7524
(dp7525
g6
Nsg8
g9
sg10
Nsg17
NsbsS'silvio'
p7526
g0
(g1
g2
Ntp7527
Rp7528
(dp7529
g6
Nsg8
g16
sg10
Nsg17
NsbsS'powered'
p7530
g0
(g1
g2
Ntp7531
Rp7532
(dp7533
g6
Nsg8
g9
sg10
Nsg17
NsbsS'addition'
p7534
g0
(g1
g2
Ntp7535
Rp7536
(dp7537
g6
Nsg8
g16
sg10
Nsg17
NsbsS'bbc'
p7538
g0
(g1
g2
Ntp7539
Rp7540
(dp7541
g6
Nsg8
g9
sg10
Nsg17
NsbsS'copies'
p7542
g0
(g1
g2
Ntp7543
Rp7544
(dp7545
g6
Nsg8
g9
sg10
Nsg17
NsbsS'inhalt'
p7546
g0
(g1
g2
Ntp7547
Rp7548
(dp7549
g6
Nsg8
g16
sg10
Nsg17
NsbsS'newsgroup'
p7550
g0
(g1
g2
Ntp7551
Rp7552
(dp7553
g6
Nsg8
g9
sg10
Nsg17
NsbsS'elects'
p7554
g0
(g1
g2
Ntp7555
Rp7556
(dp7557
g6
Nsg8
g16
sg10
Nsg17
NsbsS'waste'
p7558
g0
(g1
g2
Ntp7559
Rp7560
(dp7561
g6
Nsg8
g16
sg10
Nsg17
NsbsS'league'
p7562
g0
(g1
g2
Ntp7563
Rp7564
(dp7565
g6
Nsg8
g16
sg10
Nsg17
NsbsS'al'
p7566
g0
(g1
g2
Ntp7567
Rp7568
(dp7569
g6
Nsg8
g9
sg10
Nsg17
NsbsS'radioadapter'
p7570
g0
(g1
g2
Ntp7571
Rp7572
(dp7573
g6
Nsg8
g16
sg10
Nsg17
NsbsS'stonecutters'
p7574
g0
(g1
g2
Ntp7575
Rp7576
(dp7577
g6
Nsg8
g9
sg10
Nsg17
NsbsS'spain'
p7578
g0
(g1
g2
Ntp7579
Rp7580
(dp7581
g6
Nsg8
g16
sg10
Nsg17
NsbsS'homes'
p7582
g0
(g1
g2
Ntp7583
Rp7584
(dp7585
g6
Nsg8
g9
sg10
Nsg17
NsbsS'main'
p7586
g0
(g1
g2
Ntp7587
Rp7588
(dp7589
g6
Nsg8
g9
sg10
Nsg17
NsbsS'couple'
p7590
g0
(g1
g2
Ntp7591
Rp7592
(dp7593
g6
Nsg8
g9
sg10
Nsg17
NsbsS'dodge'
p7594
g0
(g1
g2
Ntp7595
Rp7596
(dp7597
g6
Nsg8
g16
sg10
Nsg17
NsbsS'salman'
p7598
g0
(g1
g2
Ntp7599
Rp7600
(dp7601
g6
Nsg8
g16
sg10
Nsg17
NsbsS'podcasts'
p7602
g0
(g1
g2
Ntp7603
Rp7604
(dp7605
g6
Nsg8
g16
sg10
Nsg17
NsbsS'rbi'
p7606
g0
(g1
g2
Ntp7607
Rp7608
(dp7609
g6
Nsg8
g16
sg10
Nsg17
NsbsS'wild'
p7610
g0
(g1
g2
Ntp7611
Rp7612
(dp7613
g6
Nsg8
g9
sg10
Nsg17
NsbsS'evacuees'
p7614
g0
(g1
g2
Ntp7615
Rp7616
(dp7617
g6
Nsg8
g9
sg10
Nsg17
NsbsS'cell'
p7618
g0
(g1
g2
Ntp7619
Rp7620
(dp7621
g6
Nsg8
g16
sg10
Nsg17
NsbsS'upfacebook'
p7622
g0
(g1
g2
Ntp7623
Rp7624
(dp7625
g6
Nsg8
g9
sg10
Nsg17
NsbsS'site'
p7626
g0
(g1
g2
Ntp7627
Rp7628
(dp7629
g6
Nsg8
g16
sg10
Nsg17
NsbsS'helped'
p7630
g0
(g1
g2
Ntp7631
Rp7632
(dp7633
g6
Nsg8
g9
sg10
Nsg17
NsbsS'vw'
p7634
g0
(g1
g2
Ntp7635
Rp7636
(dp7637
g6
Nsg8
g16
sg10
Nsg17
NsbsS'finance'
p7638
g0
(g1
g2
Ntp7639
Rp7640
(dp7641
g6
Nsg8
g16
sg10
Nsg17
NsbsS'terrorist'
p7642
g0
(g1
g2
Ntp7643
Rp7644
(dp7645
g6
Nsg8
g16
sg10
Nsg17
NsbsS'generic'
p7646
g0
(g1
g2
Ntp7647
Rp7648
(dp7649
g6
Nsg8
g16
sg10
Nsg17
NsbsS'radiation'
p7650
g0
(g1
g2
Ntp7651
Rp7652
(dp7653
g6
Nsg8
g16
sg10
Nsg17
NsbsS'cross'
p7654
g0
(g1
g2
Ntp7655
Rp7656
(dp7657
g6
Nsg8
g16
sg10
Nsg17
NsbsS'tripoli'
p7658
g0
(g1
g2
Ntp7659
Rp7660
(dp7661
g6
Nsg8
g16
sg10
Nsg17
NsbsS'member'
p7662
g0
(g1
g2
Ntp7663
Rp7664
(dp7665
g6
Nsg8
g16
sg10
Nsg17
NsbsS'parts'
p7666
g0
(g1
g2
Ntp7667
Rp7668
(dp7669
g6
Nsg8
g9
sg10
Nsg17
NsbsS'auto'
p7670
g0
(g1
g2
Ntp7671
Rp7672
(dp7673
g6
Nsg8
g16
sg10
Nsg17
NsbsS'party'
p7674
g0
(g1
g2
Ntp7675
Rp7676
(dp7677
g6
Nsg8
g16
sg10
Nsg17
NsbsS'terrorism'
p7678
g0
(g1
g2
Ntp7679
Rp7680
(dp7681
g6
Nsg8
g16
sg10
Nsg17
NsbsS'tighten'
p7682
g0
(g1
g2
Ntp7683
Rp7684
(dp7685
g6
Nsg8
g16
sg10
Nsg17
NsbsS'http'
p7686
g0
(g1
g2
Ntp7687
Rp7688
(dp7689
g6
Nsg8
g16
sg10
Nsg17
NsbsS'buzz'
p7690
g0
(g1
g2
Ntp7691
Rp7692
(dp7693
g6
Nsg8
g9
sg10
Nsg17
NsbsS'romeo'
p7694
g0
(g1
g2
Ntp7695
Rp7696
(dp7697
g6
Nsg8
g16
sg10
Nsg17
NsbsS'afghan'
p7698
g0
(g1
g2
Ntp7699
Rp7700
(dp7701
g6
Nsg8
g16
sg10
Nsg17
NsbsS'login'
p7702
g0
(g1
g2
Ntp7703
Rp7704
(dp7705
g6
Nsg8
g16
sg10
Nsg17
NsbsS'warming'
p7706
g0
(g1
g2
Ntp7707
Rp7708
(dp7709
g6
Nsg8
g9
sg10
Nsg17
NsbsS'rift'
p7710
g0
(g1
g2
Ntp7711
Rp7712
(dp7713
g6
Nsg8
g16
sg10
Nsg17
NsbsS'center'
p7714
g0
(g1
g2
Ntp7715
Rp7716
(dp7717
g6
Nsg8
g9
sg10
Nsg17
NsbsS'builder'
p7718
g0
(g1
g2
Ntp7719
Rp7720
(dp7721
g6
Nsg8
g16
sg10
Nsg17
NsbsS'fighting'
p7722
g0
(g1
g2
Ntp7723
Rp7724
(dp7725
g6
Nsg8
g9
sg10
Nsg17
NsbsS'thought'
p7726
g0
(g1
g2
Ntp7727
Rp7728
(dp7729
g6
Nsg8
g16
sg10
Nsg17
NsbsS'sets'
p7730
g0
(g1
g2
Ntp7731
Rp7732
(dp7733
g6
Nsg8
g16
sg10
Nsg17
NsbsS'yangtze'
p7734
g0
(g1
g2
Ntp7735
Rp7736
(dp7737
g6
Nsg8
g9
sg10
Nsg17
NsbsS'audio'
p7738
g0
(g1
g2
Ntp7739
Rp7740
(dp7741
g6
Nsg8
g9
sg10
Nsg17
NsbsS'latest'
p7742
g0
(g1
g2
Ntp7743
Rp7744
(dp7745
g6
Nsg8
g16
sg10
Nsg17
NsbsS'load'
p7746
g0
(g1
g2
Ntp7747
Rp7748
(dp7749
g6
Nsg8
g16
sg10
Nsg17
NsbsS'yanji'
p7750
g0
(g1
g2
Ntp7751
Rp7752
(dp7753
g6
Nsg8
g16
sg10
Nsg17
NsbsS'safari'
p7754
g0
(g1
g2
Ntp7755
Rp7756
(dp7757
g6
Nsg8
g16
sg10
Nsg17
NsbsS'embankments'
p7758
g0
(g1
g2
Ntp7759
Rp7760
(dp7761
g6
Nsg8
g9
sg10
Nsg17
NsbsS'sources'
p7762
g0
(g1
g2
Ntp7763
Rp7764
(dp7765
g6
Nsg8
g9
sg10
Nsg17
NsbsS'paul'
p7766
g0
(g1
g2
Ntp7767
Rp7768
(dp7769
g6
Nsg8
g16
sg10
Nsg17
NsbsS'binladin'
p7770
g0
(g1
g2
Ntp7771
Rp7772
(dp7773
g6
Nsg8
g16
sg10
Nsg17
NsbsS'rescue'
p7774
g0
(g1
g2
Ntp7775
Rp7776
(dp7777
g6
Nsg8
g9
sg10
Nsg17
NsbsS'afflicted'
p7778
g0
(g1
g2
Ntp7779
Rp7780
(dp7781
g6
Nsg8
g9
sg10
Nsg17
NsbsS'web'
p7782
g0
(g1
g2
Ntp7783
Rp7784
(dp7785
g6
Nsg8
g9
sg10
Nsg17
NsbsS'rapid'
p7786
g0
(g1
g2
Ntp7787
Rp7788
(dp7789
g6
Nsg8
g9
sg10
Nsg17
NsbsS'residential'
p7790
g0
(g1
g2
Ntp7791
Rp7792
(dp7793
g6
Nsg8
g16
sg10
Nsg17
NsbsS'sky'
p7794
g0
(g1
g2
Ntp7795
Rp7796
(dp7797
g6
Nsg8
g16
sg10
Nsg17
NsbsS'wen'
p7798
g0
(g1
g2
Ntp7799
Rp7800
(dp7801
g6
Nsg8
g9
sg10
Nsg17
NsbsS'killed'
p7802
g0
(g1
g2
Ntp7803
Rp7804
(dp7805
g6
Nsg8
g9
sg10
Nsg17
NsbsS'battery'
p7806
g0
(g1
g2
Ntp7807
Rp7808
(dp7809
g6
Nsg8
g16
sg10
Nsg17
NsbsS'add'
p7810
g0
(g1
g2
Ntp7811
Rp7812
(dp7813
g6
Nsg8
g16
sg10
Nsg17
NsbsS'extends'
p7814
g0
(g1
g2
Ntp7815
Rp7816
(dp7817
g6
Nsg8
g16
sg10
Nsg17
NsbsS'delegations'
p7818
g0
(g1
g2
Ntp7819
Rp7820
(dp7821
g6
Nsg8
g9
sg10
Nsg17
NsbsS'somali'
p7822
g0
(g1
g2
Ntp7823
Rp7824
(dp7825
g6
Nsg8
g16
sg10
Nsg17
NsbsS'usage'
p7826
g0
(g1
g2
Ntp7827
Rp7828
(dp7829
g6
Nsg8
g16
sg10
Nsg17
NsbsS'villagers'
p7830
g0
(g1
g2
Ntp7831
Rp7832
(dp7833
g6
Nsg8
g9
sg10
Nsg17
NsbsS'smart'
p7834
g0
(g1
g2
Ntp7835
Rp7836
(dp7837
g6
Nsg8
g16
sg10
Nsg17
NsbsS'resolved'
p7838
g0
(g1
g2
Ntp7839
Rp7840
(dp7841
g6
Nsg8
g16
sg10
Nsg17
NsbsS'recycling'
p7842
g0
(g1
g2
Ntp7843
Rp7844
(dp7845
g6
Nsg8
g9
sg10
Nsg17
NsbsS'government'
p7846
g0
(g1
g2
Ntp7847
Rp7848
(dp7849
g6
Nsg8
g9
sg10
Nsg17
NsbsS'mediacorp'
p7850
g0
(g1
g2
Ntp7851
Rp7852
(dp7853
g6
Nsg8
g16
sg10
Nsg17
NsbsS'zimbabwe'
p7854
g0
(g1
g2
Ntp7855
Rp7856
(dp7857
g6
Nsg8
g16
sg10
Nsg17
NsbsS'password'
p7858
g0
(g1
g2
Ntp7859
Rp7860
(dp7861
g6
Nsg8
g9
sg10
Nsg17
NsbsS'prominent'
p7862
g0
(g1
g2
Ntp7863
Rp7864
(dp7865
g6
Nsg8
g16
sg10
Nsg17
NsbsS'loss'
p7866
g0
(g1
g2
Ntp7867
Rp7868
(dp7869
g6
Nsg8
g9
sg10
Nsg17
NsbsS'displaced'
p7870
g0
(g1
g2
Ntp7871
Rp7872
(dp7873
g6
Nsg8
g9
sg10
Nsg17
NsbsS'helpful'
p7874
g0
(g1
g2
Ntp7875
Rp7876
(dp7877
g6
Nsg8
g16
sg10
Nsg17
NsbsS'nanning'
p7878
g0
(g1
g2
Ntp7879
Rp7880
(dp7881
g6
Nsg8
g9
sg10
Nsg17
NsbsS'herong'
p7882
g0
(g1
g2
Ntp7883
Rp7884
(dp7885
g6
Nsg8
g9
sg10
Nsg17
NsbsS'hosts'
p7886
g0
(g1
g2
Ntp7887
Rp7888
(dp7889
g6
Nsg8
g16
sg10
Nsg17
NsbsS'lose'
p7890
g0
(g1
g2
Ntp7891
Rp7892
(dp7893
g6
Nsg8
g16
sg10
Nsg17
NsbsS'leaves'
p7894
g0
(g1
g2
Ntp7895
Rp7896
(dp7897
g6
Nsg8
g9
sg10
Nsg17
NsbsS'works'
p7898
g0
(g1
g2
Ntp7899
Rp7900
(dp7901
g6
Nsg8
g9
sg10
Nsg17
NsbsS'page'
p7902
g0
(g1
g2
Ntp7903
Rp7904
(dp7905
g6
Nsg8
g16
sg10
Nsg17
NsbsS'italian'
p7906
g0
(g1
g2
Ntp7907
Rp7908
(dp7909
g6
Nsg8
g16
sg10
Nsg17
NsbsS'twitter'
p7910
g0
(g1
g2
Ntp7911
Rp7912
(dp7913
g6
Nsg8
g16
sg10
Nsg17
NsbsS'church'
p7914
g0
(g1
g2
Ntp7915
Rp7916
(dp7917
g6
Nsg8
g9
sg10
Nsg17
NsbsS'growth'
p7918
g0
(g1
g2
Ntp7919
Rp7920
(dp7921
g6
Nsg8
g16
sg10
Nsg17
NsbsS'recommendation'
p7922
g0
(g1
g2
Ntp7923
Rp7924
(dp7925
g6
Nsg8
g9
sg10
Nsg17
NsbsS'gave'
p7926
g0
(g1
g2
Ntp7927
Rp7928
(dp7929
g6
Nsg8
g9
sg10
Nsg17
NsbsS'transport'
p7930
g0
(g1
g2
Ntp7931
Rp7932
(dp7933
g6
Nsg8
g16
sg10
Nsg17
NsbsS'disrupting'
p7934
g0
(g1
g2
Ntp7935
Rp7936
(dp7937
g6
Nsg8
g9
sg10
Nsg17
NsbsS'versandkostenalfa'
p7938
g0
(g1
g2
Ntp7939
Rp7940
(dp7941
g6
Nsg8
g16
sg10
Nsg17
NsbsS'lead'
p7942
g0
(g1
g2
Ntp7943
Rp7944
(dp7945
g6
Nsg8
g16
sg10
Nsg17
NsbsS'blackstone'
p7946
g0
(g1
g2
Ntp7947
Rp7948
(dp7949
g6
Nsg8
g16
sg10
Nsg17
NsbsS'hurricane'
p7950
g0
(g1
g2
Ntp7951
Rp7952
(dp7953
g6
Nsg8
g9
sg10
Nsg17
NsbsS'pashto'
p7954
g0
(g1
g2
Ntp7955
Rp7956
(dp7957
g6
Nsg8
g16
sg10
Nsg17
NsbsS'moderated'
p7958
g0
(g1
g2
Ntp7959
Rp7960
(dp7961
g6
Nsg8
g16
sg10
Nsg17
NsbsS'leader'
p7962
g0
(g1
g2
Ntp7963
Rp7964
(dp7965
g6
Nsg8
g16
sg10
Nsg17
NsbsS'schedule'
p7966
g0
(g1
g2
Ntp7967
Rp7968
(dp7969
g6
Nsg8
g9
sg10
Nsg17
NsbsS'journal'
p7970
g0
(g1
g2
Ntp7971
Rp7972
(dp7973
g6
Nsg8
g9
sg10
Nsg17
NsbsS'paper'
p7974
g0
(g1
g2
Ntp7975
Rp7976
(dp7977
g6
Nsg8
g16
sg10
Nsg17
NsbsS'benefit'
p7978
g0
(g1
g2
Ntp7979
Rp7980
(dp7981
g6
Nsg8
g16
sg10
Nsg17
NsbsS'counties'
p7982
g0
(g1
g2
Ntp7983
Rp7984
(dp7985
g6
Nsg8
g9
sg10
Nsg17
NsbsS'stage'
p7986
g0
(g1
g2
Ntp7987
Rp7988
(dp7989
g6
Nsg8
g9
sg10
Nsg17
NsbsS'huaihe'
p7990
g0
(g1
g2
Ntp7991
Rp7992
(dp7993
g6
Nsg8
g9
sg10
Nsg17
NsbsS'introduces'
p7994
g0
(g1
g2
Ntp7995
Rp7996
(dp7997
g6
Nsg8
g16
sg10
Nsg17
NsbsS'shipping'
p7998
g0
(g1
g2
Ntp7999
Rp8000
(dp8001
g6
Nsg8
g9
sg10
Nsg17
NsbsS'angeles'
p8002
g0
(g1
g2
Ntp8003
Rp8004
(dp8005
g6
Nsg8
g9
sg10
Nsg17
NsbsS'andes'
p8006
g0
(g1
g2
Ntp8007
Rp8008
(dp8009
g6
Nsg8
g9
sg10
Nsg17
NsbsS'seeds'
p8010
g0
(g1
g2
Ntp8011
Rp8012
(dp8013
g6
Nsg8
g16
sg10
Nsg17
NsbsS'pressrelease'
p8014
g0
(g1
g2
Ntp8015
Rp8016
(dp8017
g6
Nsg8
g16
sg10
Nsg17
NsbsS'urges'
p8018
g0
(g1
g2
Ntp8019
Rp8020
(dp8021
g6
Nsg8
g9
sg10
Nsg17
NsbsS'clooney'
p8022
g0
(g1
g2
Ntp8023
Rp8024
(dp8025
g6
Nsg8
g16
sg10
Nsg17
NsbsS'irishman'
p8026
g0
(g1
g2
Ntp8027
Rp8028
(dp8029
g6
Nsg8
g9
sg10
Nsg17
NsbsS'software'
p8030
g0
(g1
g2
Ntp8031
Rp8032
(dp8033
g6
Nsg8
g16
sg10
Nsg17
NsbsS'townships'
p8034
g0
(g1
g2
Ntp8035
Rp8036
(dp8037
g6
Nsg8
g9
sg10
Nsg17
NsbsS'commitment'
p8038
g0
(g1
g2
Ntp8039
Rp8040
(dp8041
g6
Nsg8
g16
sg10
Nsg17
NsbsS'weather'
p8042
g0
(g1
g2
Ntp8043
Rp8044
(dp8045
g6
Nsg8
g9
sg10
Nsg17
NsbsS'lung'
p8046
g0
(g1
g2
Ntp8047
Rp8048
(dp8049
g6
Nsg8
g16
sg10
Nsg17
NsbsS'female'
p8050
g0
(g1
g2
Ntp8051
Rp8052
(dp8053
g6
Nsg8
g16
sg10
Nsg17
NsbsS'registration'
p8054
g0
(g1
g2
Ntp8055
Rp8056
(dp8057
g6
Nsg8
g16
sg10
Nsg17
NsbsS'mississippi'
p8058
g0
(g1
g2
Ntp8059
Rp8060
(dp8061
g6
Nsg8
g9
sg10
Nsg17
NsbsS'housing'
p8062
g0
(g1
g2
Ntp8063
Rp8064
(dp8065
g6
Nsg8
g16
sg10
Nsg17
NsbsS'var'
p8066
g0
(g1
g2
Ntp8067
Rp8068
(dp8069
g6
Nsg8
g16
sg10
Nsg17
NsbsS'picturesin'
p8070
g0
(g1
g2
Ntp8071
Rp8072
(dp8073
g6
Nsg8
g16
sg10
Nsg17
NsbsS'function'
p8074
g0
(g1
g2
Ntp8075
Rp8076
(dp8077
g6
Nsg8
g16
sg10
Nsg17
NsbsS'buy'
p8078
g0
(g1
g2
Ntp8079
Rp8080
(dp8081
g6
Nsg8
g16
sg10
Nsg17
NsbsS'north'
p8082
g0
(g1
g2
Ntp8083
Rp8084
(dp8085
g6
Nsg8
g16
sg10
Nsg17
NsbsS'triggered'
p8086
g0
(g1
g2
Ntp8087
Rp8088
(dp8089
g6
Nsg8
g9
sg10
Nsg17
NsbsS'bus'
p8090
g0
(g1
g2
Ntp8091
Rp8092
(dp8093
g6
Nsg8
g16
sg10
Nsg17
NsbsS'evacuate'
p8094
g0
(g1
g2
Ntp8095
Rp8096
(dp8097
g6
Nsg8
g9
sg10
Nsg17
NsbsS'webinar'
p8098
g0
(g1
g2
Ntp8099
Rp8100
(dp8101
g6
Nsg8
g16
sg10
Nsg17
NsbsS'construction'
p8102
g0
(g1
g2
Ntp8103
Rp8104
(dp8105
g6
Nsg8
g9
sg10
Nsg17
NsbsS'weihe'
p8106
g0
(g1
g2
Ntp8107
Rp8108
(dp8109
g6
Nsg8
g9
sg10
Nsg17
NsbsS'hd'
p8110
g0
(g1
g2
Ntp8111
Rp8112
(dp8113
g6
Nsg8
g16
sg10
Nsg17
NsbsS'made'
p8114
g0
(g1
g2
Ntp8115
Rp8116
(dp8117
g6
Nsg8
g16
sg10
Nsg17
NsbsS'record'
p8118
g0
(g1
g2
Ntp8119
Rp8120
(dp8121
g6
Nsg8
g16
sg10
Nsg17
NsbsS'weinan'
p8122
g0
(g1
g2
Ntp8123
Rp8124
(dp8125
g6
Nsg8
g9
sg10
Nsg17
NsbsS'stories'
p8126
g0
(g1
g2
Ntp8127
Rp8128
(dp8129
g6
Nsg8
g16
sg10
Nsg17
NsbsS'distribution'
p8130
g0
(g1
g2
Ntp8131
Rp8132
(dp8133
g6
Nsg8
g16
sg10
Nsg17
NsbsS'minutes'
p8134
g0
(g1
g2
Ntp8135
Rp8136
(dp8137
g6
Nsg8
g16
sg10
Nsg17
NsbsS'irish'
p8138
g0
(g1
g2
Ntp8139
Rp8140
(dp8141
g6
Nsg8
g9
sg10
Nsg17
NsbsS'motionmakerbecome'
p8142
g0
(g1
g2
Ntp8143
Rp8144
(dp8145
g6
Nsg8
g16
sg10
Nsg17
NsbsS'deaths'
p8146
g0
(g1
g2
Ntp8147
Rp8148
(dp8149
g6
Nsg8
g9
sg10
Nsg17
NsbsS'romney'
p8150
g0
(g1
g2
Ntp8151
Rp8152
(dp8153
g6
Nsg8
g16
sg10
Nsg17
NsbsS'pig'
p8154
g0
(g1
g2
Ntp8155
Rp8156
(dp8157
g6
Nsg8
g9
sg10
Nsg17
NsbsS'resumption'
p8158
g0
(g1
g2
Ntp8159
Rp8160
(dp8161
g6
Nsg8
g16
sg10
Nsg17
NsbsS'replica'
p8162
g0
(g1
g2
Ntp8163
Rp8164
(dp8165
g6
Nsg8
g16
sg10
Nsg17
NsbsS'education'
p8166
g0
(g1
g2
Ntp8167
Rp8168
(dp8169
g6
Nsg8
g16
sg10
Nsg17
NsbsS'motionmaker'
p8170
g0
(g1
g2
Ntp8171
Rp8172
(dp8173
g6
Nsg8
g16
sg10
Nsg17
NsbsS'deadly'
p8174
g0
(g1
g2
Ntp8175
Rp8176
(dp8177
g6
Nsg8
g9
sg10
Nsg17
NsbsS'termsterms'
p8178
g0
(g1
g2
Ntp8179
Rp8180
(dp8181
g6
Nsg8
g9
sg10
Nsg17
NsbsS'details'
p8182
g0
(g1
g2
Ntp8183
Rp8184
(dp8185
g6
Nsg8
g16
sg10
Nsg17
NsbsS'stumps'
p8186
g0
(g1
g2
Ntp8187
Rp8188
(dp8189
g6
Nsg8
g16
sg10
Nsg17
NsbsS'repeat'
p8190
g0
(g1
g2
Ntp8191
Rp8192
(dp8193
g6
Nsg8
g16
sg10
Nsg17
NsbsS'usblogfacebooktwitter'
p8194
g0
(g1
g2
Ntp8195
Rp8196
(dp8197
g6
Nsg8
g9
sg10
Nsg17
NsbsS'zhou'
p8198
g0
(g1
g2
Ntp8199
Rp8200
(dp8201
g6
Nsg8
g9
sg10
Nsg17
NsbsS'ubs'
p8202
g0
(g1
g2
Ntp8203
Rp8204
(dp8205
g6
Nsg8
g16
sg10
Nsg17
NsbsS'class'
p8206
g0
(g1
g2
Ntp8207
Rp8208
(dp8209
g6
Nsg8
g16
sg10
Nsg17
NsbsS'june'
p8210
g0
(g1
g2
Ntp8211
Rp8212
(dp8213
g6
Nsg8
g9
sg10
Nsg17
NsbsS'friends'
p8214
g0
(g1
g2
Ntp8215
Rp8216
(dp8217
g6
Nsg8
g16
sg10
Nsg17
NsbsS'thishurricane'
p8218
g0
(g1
g2
Ntp8219
Rp8220
(dp8221
g6
Nsg8
g9
sg10
Nsg17
NsbsS'blogs'
p8222
g0
(g1
g2
Ntp8223
Rp8224
(dp8225
g6
Nsg8
g16
sg10
Nsg17
NsbsS'rule'
p8226
g0
(g1
g2
Ntp8227
Rp8228
(dp8229
g6
Nsg8
g16
sg10
Nsg17
NsbsS'lives'
p8230
g0
(g1
g2
Ntp8231
Rp8232
(dp8233
g6
Nsg8
g9
sg10
Nsg17
Nsbssg17
Nsb.