ccopy_reg
_reconstructor
p0
(cnltk.classify.decisiontree
DecisionTreeClassifier
p1
c__builtin__
object
p2
Ntp3
Rp4
(dp5
S'_fname'
p6
S'floods'
p7
sS'_label'
p8
S'pos'
p9
sS'_decisions'
p10
(dp11
I1
g0
(g1
g2
Ntp12
Rp13
(dp14
g6
Nsg8
g9
sg10
NsS'_default'
p15
NsbsI2
g0
(g1
g2
Ntp16
Rp17
(dp18
g6
S'september'
p19
sg8
g9
sg10
(dp20
I9
g0
(g1
g2
Ntp21
Rp22
(dp23
g6
Nsg8
S'neg'
p24
sg10
Nsg15
NsbsNg0
(g1
g2
Ntp25
Rp26
(dp27
g6
Nsg8
g9
sg10
Nsg15
NsbsI1
g0
(g1
g2
Ntp28
Rp29
(dp30
g6
Nsg8
g9
sg10
Nsg15
Nsbssg15
NsbsI3
g0
(g1
g2
Ntp31
Rp32
(dp33
g6
Nsg8
g9
sg10
Nsg15
NsbsI4
g0
(g1
g2
Ntp34
Rp35
(dp36
g6
Nsg8
g9
sg10
Nsg15
NsbsI5
g0
(g1
g2
Ntp37
Rp38
(dp39
g6
Nsg8
g9
sg10
Nsg15
NsbsI6
g0
(g1
g2
Ntp40
Rp41
(dp42
g6
Nsg8
g9
sg10
Nsg15
NsbsI7
g0
(g1
g2
Ntp43
Rp44
(dp45
g6
Nsg8
g9
sg10
Nsg15
NsbsI8
g0
(g1
g2
Ntp46
Rp47
(dp48
g6
Nsg8
g9
sg10
Nsg15
NsbsI10
g0
(g1
g2
Ntp49
Rp50
(dp51
g6
Nsg8
g9
sg10
Nsg15
NsbsI11
g0
(g1
g2
Ntp52
Rp53
(dp54
g6
Nsg8
g9
sg10
Nsg15
NsbsI12
g0
(g1
g2
Ntp55
Rp56
(dp57
g6
Nsg8
g9
sg10
Nsg15
NsbsI25
g0
(g1
g2
Ntp58
Rp59
(dp60
g6
Nsg8
g9
sg10
Nsg15
NsbsNg0
(g1
g2
Ntp61
Rp62
(dp63
g6
S'international'
p64
sg8
g9
sg10
(dp65
I2
g0
(g1
g2
Ntp66
Rp67
(dp68
g6
Nsg8
g9
sg10
Nsg15
NsbsI3
g0
(g1
g2
Ntp69
Rp70
(dp71
g6
S'claim'
p72
sg8
g24
sg10
(dp73
Ng0
(g1
g2
Ntp74
Rp75
(dp76
g6
Nsg8
g9
sg10
Nsg15
NsbsI2
g0
(g1
g2
Ntp77
Rp78
(dp79
g6
Nsg8
g24
sg10
Nsg15
Nsbssg15
NsbsI4
g0
(g1
g2
Ntp80
Rp81
(dp82
g6
Nsg8
g24
sg10
Nsg15
NsbsI6
g0
(g1
g2
Ntp83
Rp84
(dp85
g6
Nsg8
g24
sg10
Nsg15
NsbsI7
g0
(g1
g2
Ntp86
Rp87
(dp88
g6
Nsg8
g9
sg10
Nsg15
NsbsI14
g0
(g1
g2
Ntp89
Rp90
(dp91
g6
Nsg8
g24
sg10
Nsg15
NsbsNg0
(g1
g2
Ntp92
Rp93
(dp94
g6
S'water'
p95
sg8
g9
sg10
(dp96
I8
g0
(g1
g2
Ntp97
Rp98
(dp99
g6
Nsg8
g24
sg10
Nsg15
NsbsNg0
(g1
g2
Ntp100
Rp101
(dp102
g6
S'safety'
p103
sg8
g9
sg10
(dp104
Ng0
(g1
g2
Ntp105
Rp106
(dp107
g6
S'flooding'
p108
sg8
g9
sg10
(dp109
I9
g0
(g1
g2
Ntp110
Rp111
(dp112
g6
Nsg8
g9
sg10
Nsg15
NsbsNg0
(g1
g2
Ntp113
Rp114
(dp115
g6
S'city'
p116
sg8
g24
sg10
(dp117
Ng0
(g1
g2
Ntp118
Rp119
(dp120
g6
S'skip'
p121
sg8
g24
sg10
(dp122
Ng0
(g1
g2
Ntp123
Rp124
(dp125
g6
S'winds'
p126
sg8
g24
sg10
(dp127
I2
g0
(g1
g2
Ntp128
Rp129
(dp130
g6
Nsg8
g9
sg10
Nsg15
NsbsNg0
(g1
g2
Ntp131
Rp132
(dp133
g6
Nsg8
g24
sg10
Nsg15
Nsbssg15
NsbsI4
g0
(g1
g2
Ntp134
Rp135
(dp136
g6
Nsg8
g9
sg10
Nsg15
Nsbssg15
NsbsI3
g0
(g1
g2
Ntp137
Rp138
(dp139
g6
Nsg8
g24
sg10
Nsg15
NsbsI12
g0
(g1
g2
Ntp140
Rp141
(dp142
g6
Nsg8
g9
sg10
Nsg15
NsbsI2
g0
(g1
g2
Ntp143
Rp144
(dp145
g6
Nsg8
g9
sg10
Nsg15
NsbsI7
g0
(g1
g2
Ntp146
Rp147
(dp148
g6
Nsg8
g24
sg10
Nsg15
Nsbssg15
NsbsI2
g0
(g1
g2
Ntp149
Rp150
(dp151
g6
Nsg8
g9
sg10
Nsg15
Nsbssg15
NsbsI3
g0
(g1
g2
Ntp152
Rp153
(dp154
g6
Nsg8
g9
sg10
Nsg15
NsbsI4
g0
(g1
g2
Ntp155
Rp156
(dp157
g6
Nsg8
g9
sg10
Nsg15
Nsbssg15
NsbsI3
g0
(g1
g2
Ntp158
Rp159
(dp160
g6
Nsg8
g9
sg10
Nsg15
NsbsI2
g0
(g1
g2
Ntp161
Rp162
(dp163
g6
Nsg8
g9
sg10
Nsg15
Nsbssg15
Nsbssg15
Nsbssg15
Nsb.