ccopy_reg
_reconstructor
p0
(cnltk.classify.naivebayes
NaiveBayesClassifier
p1
c__builtin__
object
p2
Ntp3
Rp4
(dp5
S'_labels'
p6
(lp7
S'neg'
p8
aS'pos'
p9
asS'_feature_probdist'
p10
(dp11
(g9
S'word'
p12
tp13
g0
(cnltk.probability
ELEProbDist
p14
g2
Ntp15
Rp16
(dp17
S'_gamma'
p18
F0.5
sS'_N'
p19
I3761
sS'_freqdist'
p20
cnltk.probability
FreqDist
p21
((dp22
S'limited'
p23
I2
sS'swirls'
p24
I1
sS'caused'
p25
I19
sS'beware'
p26
I1
sS'dollar'
p27
I2
sS'yellow'
p28
I7
sS'month'
p29
I4
sS'sichuan'
p30
I8
sS'facilities'
p31
I4
sS'protest'
p32
I1
sS'woods'
p33
I1
sS'khanun'
p34
I1
sS'talks'
p35
I3
sS'follow'
p36
I5
sS'saved'
p37
I1
sS'children'
p38
I1
sS'likerecommendconfirmyou'
p39
I1
sS'votes'
p40
I4
sS'aug'
p41
I1
sS'electricity'
p42
I1
sS'jianguo'
p43
I1
sS'hulan'
p44
I2
sS'pensions'
p45
I1
sS'program'
p46
I2
sS'swap'
p47
I1
sS'issued'
p48
I3
sS'siblings'
p49
I1
sS'popola'
p50
I6
sS'crest'
p51
I1
sS'worth'
p52
I1
sS'khmer'
p53
I1
sS'woman'
p54
I1
sS'premium'
p55
I1
sS'rescue'
p56
I6
sS'confidential'
p57
I1
sS'rise'
p58
I3
sS'fav'
p59
I3
sS'aptn'
p60
I1
sS'puzzles'
p61
I1
sS'worst'
p62
I12
sS'plenary'
p63
I1
sS'reforms'
p64
I2
sS'affect'
p65
I4
sS'difference'
p66
I1
sS'ticker'
p67
I1
sS'cnet'
p68
I2
sS'rainfalls'
p69
I1
sS'school'
p70
I4
sS'betamore'
p71
I3
sS'crops'
p72
I8
sS'celebrity'
p73
I2
sS'wsj'
p74
I1
sS'companies'
p75
I1
sS'solution'
p76
I3
sS'claudio'
p77
I1
sS'large'
p78
I1
sS'circuit'
p79
I1
sS'casinos'
p80
I1
sS'study'
p81
I2
sS'smith'
p82
I1
sS'commented'
p83
I1
sS'programme'
p84
I1
sS'bicycle'
p85
I2
sS'leaders'
p86
I2
sS'ten'
p87
I1
sS'warns'
p88
I1
sS'guidelines'
p89
I3
sS'bacon'
p90
I1
sS'direct'
p91
I4
sS'tksensei'
p92
I3
sS'past'
p93
I3
sS'ents'
p94
I1
sS'street'
p95
I3
sS'design'
p96
I1
sS'chen'
p97
I2
sS'estimated'
p98
I3
sS'redistributed'
p99
I1
sS'investing'
p100
I3
sS'thunder'
p101
I1
sS'version'
p102
I2
sS'toll'
p103
I3
sS'supplies'
p104
I2
sS'racing'
p105
I2
sS'full'
p106
I5
sS'christian'
p107
I2
sS'tags'
p108
I1
sS'chinaby'
p109
I1
sS'hundreds'
p110
I5
sS'hours'
p111
I2
sS'reported'
p112
I13
sS'protection'
p113
I3
sS'fleet'
p114
I1
sS'strong'
p115
I2
sS'koreapakistanrussiasomaliasouth'
p116
I1
sS'chongqing'
p117
I1
sS'dry'
p118
I1
sS'kids'
p119
I1
sS'ahead'
p120
I1
sS'siamese'
p121
I1
sS'items'
p122
I1
sS'leaves'
p123
I4
sS'climbed'
p124
I1
sS'reports'
p125
I8
sS'guide'
p126
I1
sS'soldier'
p127
I1
sS'advertising'
p128
I3
sS'karin'
p129
I1
sS'published'
p130
I1
sS'action'
p131
I2
sS'military'
p132
I2
sS'tweet'
p133
I4
sS'millimetres'
p134
I1
sS'prints'
p135
I1
sS'shanghai'
p136
I2
sS'myanmar'
p137
I1
sS'feelings'
p138
I1
sS'county'
p139
I8
sS'drowned'
p140
I1
sS'glance'
p141
I1
sS'armed'
p142
I1
sS'voa'
p143
I1
sS'archived'
p144
I1
sS'rises'
p145
I3
sS'palestinian'
p146
I2
sS'century'
p147
I1
sS'arms'
p148
I1
sS'oecd'
p149
I1
sS'music'
p150
I1
sS'telegraph'
p151
I1
sS'recommend'
p152
I1
sS'preview'
p153
I1
sS'markets'
p154
I6
sS'flng'
p155
I1
sS'extrasslideshowdata'
p156
I3
sS'supporters'
p157
I2
sS'wars'
p158
I3
sS'billowing'
p159
I1
sS'farmland'
p160
I1
sS'excellent'
p161
I1
sS'town'
p162
I1
sS'taihu'
p163
I3
sS'mm'
p164
I2
sS'science'
p165
I11
sS'breakingviews'
p166
I1
sS'work'
p167
I5
sS'resources'
p168
I5
sS'learn'
p169
I1
sS'history'
p170
I5
sS'owes'
p171
I1
sS'give'
p172
I1
sS'onslaught'
p173
I1
sS'suggestions'
p174
I1
sS'dailymotion'
p175
I3
sS'autumn'
p176
I1
sS'claimed'
p177
I1
sS'rainstorm'
p178
I4
sS'beale'
p179
I1
sS'returned'
p180
I1
sS'provincial'
p181
I5
sS'tornadoes'
p182
I2
sS'answer'
p183
I1
sS'end'
p184
I4
sS'january'
p185
I1
sS'provide'
p186
I1
sS'daiichi'
p187
I1
sS'damage'
p188
I2
sS'kabul'
p189
I3
sS'maps'
p190
I1
sS'hot'
p191
I9
sS'ophelia'
p192
I1
sS'boats'
p193
I1
sS'beach'
p194
I1
sS'css'
p195
I2
sS'dailymotionvideoscategoriescommunitycontestsfamily'
p196
I3
sS'lai'
p197
I1
sS'rudd'
p198
I1
sS'lotteries'
p199
I1
sS'alibaba'
p200
I11
sS'piaohe'
p201
I2
sS'streets'
p202
I1
sS'waves'
p203
I2
sS'law'
p204
I3
sS'short'
p205
I1
sS'amid'
p206
I2
sS'register'
p207
I1
sS'headquarters'
p208
I4
sS'enter'
p209
I1
sS'banks'
p210
I1
sS'order'
p211
I2
sS'updates'
p212
I2
sS'operations'
p213
I1
sS'executed'
p214
I2
sS'anticyclone'
p215
I1
sS'feedback'
p216
I17
sS'office'
p217
I7
sS'swamped'
p218
I3
sS'consent'
p219
I2
sS'fall'
p220
I2
sS'mission'
p221
I1
sS'rightminds'
p222
I1
sS'helena'
p223
I1
sS'paper'
p224
I1
sS'london'
p225
I2
sS'replies'
p226
I3
sS'japan'
p227
I10
sS'nets'
p228
I1
sS'lijiadu'
p229
I3
sS'mckinny'
p230
I1
sS'dont'
p231
I1
sS'planning'
p232
I1
sS'style'
p233
I6
sS'anhui'
p234
I4
sS'mamata'
p235
I1
sS'personal'
p236
I6
sS'fined'
p237
I1
sS'gaddafis'
p238
I1
sS'survivors'
p239
I2
sS'production'
p240
I1
sS'peanuts'
p241
I2
sS'weeks'
p242
I1
sS'easier'
p243
I1
sS'shear'
p244
I1
sS'evening'
p245
I3
sS'affected'
p246
I26
sS'diseases'
p247
I3
sS'alfredsson'
p248
I1
sS'ceo'
p249
I1
sS'safe'
p250
I2
sS'cet'
p251
I1
sS'effects'
p252
I1
sS'schools'
p253
I1
sS'sanvu'
p254
I1
sS'snowmail'
p255
I1
sS'occasions'
p256
I1
sS'evo'
p257
I1
sS'newscore'
p258
I1
sS'rocks'
p259
I1
sS'herald'
p260
I1
sS'ashes'
p261
I1
sS'fitness'
p262
I2
sS'volcano'
p263
I1
sS'feeds'
p264
I2
sS'wulong'
p265
I3
sS'carlos'
p266
I1
sS'heavy'
p267
I30
sS'financial'
p268
I1
sS'swathe'
p269
I4
sS'generation'
p270
I3
sS'house'
p271
I5
sS'fishpond'
p272
I1
sS'wednesday'
p273
I4
sS'currencies'
p274
I1
sS'connect'
p275
I1
sS'flock'
p276
I1
sS'saturday'
p277
I5
sS'deals'
p278
I3
sS'driving'
p279
I1
sS'rs'
p280
I1
sS'content'
p281
I12
sS'hague'
p282
I1
sS'reader'
p283
I3
sS'print'
p284
I7
sS'xu'
p285
I1
sS'gop'
p286
I1
sS'foundation'
p287
I3
sS'scottish'
p288
I1
sS'friday'
p289
I7
sS'fugitive'
p290
I1
sS'mourning'
p291
I1
sS'houses'
p292
I2
sS'worse'
p293
I1
sS'struggle'
p294
I1
sS'members'
p295
I1
sS'enlarge'
p296
I1
sS'ash'
p297
I1
sS'drench'
p298
I1
sS'nightly'
p299
I3
sS'shaanxi'
p300
I4
sS'thread'
p301
I3
sS'days'
p302
I8
sS'americas'
p303
I3
sS'bookmark'
p304
I2
sS'american'
p305
I1
sS'incorporated'
p306
I1
sS'corrections'
p307
I1
sS'size'
p308
I3
sS'major'
p309
I4
sS'features'
p310
I2
sS'prevent'
p311
I1
sS'number'
p312
I1
sS'delicious'
p313
I1
sS'force'
p314
I6
sS'story'
p315
I7
sS'rated'
p316
I1
sS'heads'
p317
I1
sS'temperature'
p318
I1
sS'hanjiang'
p319
I2
sS'attack'
p320
I3
sS'regulation'
p321
I1
sS'station'
p322
I4
sS'storm'
p323
I8
sS'john'
p324
I1
sS'store'
p325
I1
sS'listen'
p326
I1
sS'helpfaqcontact'
p327
I3
sS'erupted'
p328
I1
sS'tool'
p329
I1
sS'extratropical'
p330
I1
sS'park'
p331
I1
sS'typhoon'
p332
I7
sS'crop'
p333
I1
sS'presstv'
p334
I1
sS'digg'
p335
I1
sS'mercy'
p336
I1
sS'scheme'
p337
I1
sS'showed'
p338
I1
sS'diario'
p339
I1
sS'rate'
p340
I1
sS'project'
p341
I1
sS'articlesend'
p342
I1
sS'evacuated'
p343
I20
sS'ousted'
p344
I1
sS'kilometers'
p345
I1
sS'interactive'
p346
I2
sS'informationprivacy'
p347
I1
sS'fashion'
p348
I2
sS'macau'
p349
I1
sS'strengthen'
p350
I1
sS'raw'
p351
I1
sS'unaffected'
p352
I1
sS'orders'
p353
I1
sS'karl'
p354
I1
sS'dozen'
p355
I1
sS'affairs'
p356
I4
sS'wanzhou'
p357
I1
sS'lin'
p358
I1
sS'responsible'
p359
I5
sS'click'
p360
I7
sS'liu'
p361
I2
sS'high'
p362
I1
sS'villager'
p363
I1
sS'clarifications'
p364
I1
sS'play'
p365
I2
sS'hotel'
p366
I1
sS'warnings'
p367
I1
sS'chars'
p368
I2
sS'shale'
p369
I1
sS'abc'
p370
I1
sS'germany'
p371
I2
sS'drought'
p372
I22
sS'tibetan'
p373
I1
sS'xijiang'
p374
I3
sS'mobilised'
p375
I1
sS'mobile'
p376
I8
sS'clear'
p377
I1
sS'km'
p378
I1
sS'sources'
p379
I6
sS'sun'
p380
I1
sS'dow'
p381
I1
sS'harbin'
p382
I2
sS'wikinews'
p383
I1
sS'golf'
p384
I1
sS'reactor'
p385
I1
sS'pope'
p386
I2
sS'kosovo'
p387
I2
sS'lewis'
p388
I1
sS'league'
p389
I1
sS'radio'
p390
I16
sS'solutions'
p391
I1
sS'stalker'
p392
I1
sS'headlines'
p393
I3
sS'font'
p394
I1
sS'overwhelmed'
p395
I1
sS'completion'
p396
I1
sS'access'
p397
I1
sS'northeast'
p398
I5
sS'northern'
p399
I3
sS'menu'
p400
I1
sS'guidance'
p401
I1
sS'lightspeed'
p402
I3
sS'flights'
p403
I1
sS'indian'
p404
I1
sS'factor'
p405
I1
sS'rice'
p406
I5
sS'hardball'
p407
I3
sS'brecher'
p408
I1
sS'seminarby'
p409
I1
sS'cots'
p410
I1
sS'hiv'
p411
I1
sS'embankments'
p412
I2
sS'de'
p413
I1
sS'watch'
p414
I8
sS'geek'
p415
I1
sS'amazon'
p416
I2
sS'observatory'
p417
I3
sS'batter'
p418
I4
sS'heilongjiang'
p419
I1
sS'danjiangkou'
p420
I1
sS'disqus'
p421
I1
sS'dr'
p422
I1
sS'xinjiang'
p423
I3
sS'countries'
p424
I3
sS'fields'
p425
I1
sS'cry'
p426
I2
sS'toraw'
p427
I1
sS'investigate'
p428
I1
sS'recommendations'
p429
I2
sS'guizhou'
p430
I7
sS'hongze'
p431
I3
sS'mayor'
p432
I1
sS'floodlands'
p433
I1
sS'newspaper'
p434
I3
sS'disaster'
p435
I8
sS'fair'
p436
I2
sS'rockstar'
p437
I1
sS'dikes'
p438
I1
sS'culture'
p439
I4
sS'torrents'
p440
I1
sS'iran'
p441
I2
sS'expert'
p442
I1
sS'wikipedia'
p443
I2
sS'upgraded'
p444
I1
sS'mud'
p445
I1
sS'fans'
p446
I4
sS'bookmarking'
p447
I1
sS'captured'
p448
I1
sS'afflicted'
p449
I1
sS'adchoices'
p450
I3
sS'reddit'
p451
I2
sS'pushing'
p452
I1
sS'terms'
p453
I8
sS'nationwide'
p454
I1
sS'nature'
p455
I1
sS'wo'
p456
I1
sS'qionghai'
p457
I1
sS'javascript'
p458
I3
sS'apiplayer'
p459
I3
sS'cut'
p460
I1
sS'useprivacy'
p461
I3
sS'suizhou'
p462
I1
sS'debt'
p463
I1
sS'wuhan'
p464
I4
sS'climate'
p465
I7
sS'planner'
p466
I1
sS'license'
p467
I1
sS'annual'
p468
I1
sS'buzz'
p469
I1
sS'login'
p470
I2
sS'southeastern'
p471
I1
sS'load'
p472
I1
sS'guangxi'
p473
I1
sS'supply'
p474
I1
sS'sky'
p475
I1
sS'jinan'
p476
I2
sS'community'
p477
I2
sS'wen'
p478
I1
sS'village'
p479
I4
sS'ravaged'
p480
I1
sS'expensive'
p481
I1
sS'speak'
p482
I1
sS'code'
p483
I2
sS'roke'
p484
I2
sS'dams'
p485
I5
sS'create'
p486
I1
sS'due'
p487
I3
sS'pc'
p488
I1
sS'trigger'
p489
I1
sS'ireland'
p490
I1
sS'expected'
p491
I1
sS'screener'
p492
I1
sS'dozens'
p493
I3
sS'website'
p494
I1
sS'nrl'
p495
I1
sS'termsterms'
p496
I3
sS'bible'
p497
I1
sS'lives'
p498
I4
sS'chile'
p499
I1
sS'tormented'
p500
I1
sS'towns'
p501
I1
sS'plants'
p502
I1
sS'highest'
p503
I1
sS'carbuyer'
p504
I1
sS'ski'
p505
I1
sS'mln'
p506
I1
sS'air'
p507
I2
sS'cern'
p508
I3
sS'aid'
p509
I4
sS'afghanistanaustraliabrazilcanadachilechinacolombiacubaegypteurozonefrancegeorgiagermanyhaitihondurasindiaindonesiairaniraqirelandisraelitalyjapanlibyamexiconorth'
p510
I1
sS'property'
p511
I1
sS'flooding'
p512
I31
sS'radarplus'
p513
I1
sS'losses'
p514
I2
sS'hunan'
p515
I5
sS'mexico'
p516
I3
sS'player'
p517
I4
sS'experts'
p518
I1
sS'late'
p519
I1
sS'result'
p520
I1
sS'italy'
p521
I1
sS'defence'
p522
I1
sS'things'
p523
I1
sS'shares'
p524
I1
sS'grand'
p525
I1
sS'vegetable'
p526
I1
sS'couple'
p527
I3
sS'higher'
p528
I1
sS'independent'
p529
I1
sS'satellite'
p530
I6
sS'literature'
p531
I1
sS'temporary'
p532
I1
sS'forced'
p533
I4
sS'flooded'
p534
I6
sS'gallery'
p535
I4
sS'social'
p536
I1
sS'speakers'
p537
I1
sS'rain'
p538
I28
sS'alert'
p539
I2
sS'hectares'
p540
I1
sS'levels'
p541
I9
sS'moving'
p542
I1
sS'bloomberg'
p543
I1
sS'yuan'
p544
I6
sS'residents'
p545
I11
sS'recent'
p546
I2
sS'lower'
p547
I3
sS'ninemsn'
p548
I1
sS'programs'
p549
I2
sS'makes'
p550
I2
sS'picks'
p551
I1
sS'mother'
p552
I1
sS'claims'
p553
I2
sS'corporate'
p554
I1
sS'left'
p555
I9
sS'seasonal'
p556
I1
sS'soaked'
p557
I1
sS'photo'
p558
I6
sS'warmest'
p559
I1
sS'distribute'
p560
I1
sS'xihai'
p561
I3
sS'fighters'
p562
I1
sS'questions'
p563
I2
sS'sidebar'
p564
I2
sS'rushing'
p565
I1
sS'adding'
p566
I4
sS'loading'
p567
I6
sS'songhua'
p568
I3
sS'campaign'
p569
I1
sS'workers'
p570
I4
sS'percent'
p571
I5
sS'relatives'
p572
I1
sS'kingdomvenezuelayemen'
p573
I1
sS'barack'
p574
I1
sS'spread'
p575
I3
sS'circumcision'
p576
I1
sS'contestant'
p577
I1
sS'violations'
p578
I3
sS'save'
p579
I2
sS'meteorologic'
p580
I1
sS'opt'
p581
I1
sS'customers'
p582
I1
sS'emergency'
p583
I1
sS'loss'
p584
I3
sS'big'
p585
I4
sS'bid'
p586
I1
sS'rapidly'
p587
I1
sS'judge'
p588
I2
sS'cape'
p589
I1
sS'precipitation'
p590
I1
sS'advanced'
p591
I1
sS'brought'
p592
I2
sS'counterintuitive'
p593
I1
sS'footy'
p594
I1
sS'rainstorms'
p595
I7
sS'communications'
p596
I1
sS'smtwtfs'
p597
I1
sS'steps'
p598
I1
sS'security'
p599
I4
sS'nanning'
p600
I3
sS'sitemap'
p601
I4
sS'jazeera'
p602
I2
sS'google'
p603
I2
sS'loudi'
p604
I1
sS'deal'
p605
I4
sS'back'
p606
I2
sS'dead'
p607
I30
sS'streaming'
p608
I1
sS'scooter'
p609
I1
sS'meters'
p610
I2
sS'election'
p611
I1
sS'advertise'
p612
I6
sS'newsletter'
p613
I2
sS'fuels'
p614
I2
sS'describing'
p615
I1
sS'affects'
p616
I1
sS'decision'
p617
I1
sS'gateway'
p618
I1
sS'yujiang'
p619
I3
sS'tornado'
p620
I1
sS'continue'
p621
I2
sS'cloud'
p622
I1
sS'innovation'
p623
I1
sS'icp'
p624
I1
sS'marketing'
p625
I1
sS'corn'
p626
I1
sS'hubei'
p627
I9
sS'bp'
p628
I1
sS'agreesextension'
p629
I1
sS'wujiang'
p630
I3
sS'super'
p631
I4
sS'chilean'
p632
I1
sS'dollars'
p633
I1
sS'months'
p634
I1
sS'beijing'
p635
I14
sS'stricken'
p636
I1
sS'bariloche'
p637
I1
sS'slams'
p638
I1
sS'afternoon'
p639
I1
sS'islands'
p640
I1
sS'efforts'
p641
I1
sS'associatedpress'
p642
I1
sS'silence'
p643
I1
sS'pollution'
p644
I1
sS'mudslides'
p645
I1
sS'raised'
p646
I1
sS'civil'
p647
I4
sS'mudflows'
p648
I1
sS'refines'
p649
I3
sS'higos'
p650
I1
sS'rapid'
p651
I1
sS'noticias'
p652
I1
sS'telegraphpics'
p653
I1
sS'guangdong'
p654
I1
sS'risk'
p655
I1
sS'logged'
p656
I2
sS'rely'
p657
I1
sS'lashes'
p658
I1
sS'question'
p659
I1
sS'pages'
p660
I4
sS'war'
p661
I1
sS'archives'
p662
I1
sS'mountains'
p663
I1
sS'form'
p664
I1
sS'registered'
p665
I1
sS'link'
p666
I1
sS'solar'
p667
I1
sS'line'
p668
I1
sS'removed'
p669
I3
sS'junior'
p670
I1
sS'posted'
p671
I2
sS'info'
p672
I1
sS'dailymotionunited'
p673
I3
sS'wenzhou'
p674
I1
sS'inside'
p675
I2
sS'economic'
p676
I3
sS'planes'
p677
I1
sS'autonomous'
p678
I1
sS'called'
p679
I1
sS'accessibility'
p680
I7
sS'continued'
p681
I4
sS'warning'
p682
I3
sS'held'
p683
I2
sS'trip'
p684
I1
sS'cotton'
p685
I1
sS'rainy'
p686
I1
sS'rains'
p687
I26
sS'alerts'
p688
I3
sS'fears'
p689
I4
sS'ne'
p690
I1
sS'cambodia'
p691
I1
sS'teams'
p692
I1
sS'flood'
p693
I37
sS'conditions'
p694
I2
sS'recognition'
p695
I1
sS'department'
p696
I2
sS'developers'
p697
I1
sS'picture'
p698
I4
sS'cinio'
p699
I3
sS'dies'
p700
I1
sS'freeland'
p701
I1
sS'realclearworld'
p702
I1
sS'authorities'
p703
I3
sS'globalpost'
p704
I1
sS'weekend'
p705
I1
sS'sides'
p706
I1
sS'jones'
p707
I1
sS'rescued'
p708
I1
sS'qiongzhou'
p709
I1
sS'youtube'
p710
I1
sS'emailpasswordkeep'
p711
I1
sS'nasa'
p712
I2
sS'push'
p713
I1
sS'scroll'
p714
I2
sS'mobilized'
p715
I1
sS'taize'
p716
I1
sS'irrigation'
p717
I1
sS'coach'
p718
I1
sS'edf'
p719
I1
sS'euronews'
p720
I1
sS'gp'
p721
I1
sS'skip'
p722
I14
sS'taizi'
p723
I1
sS'focus'
p724
I3
sS'leads'
p725
I4
sS'crocodile'
p726
I1
sS'liangyu'
p727
I1
sS'newssportsfinancelifestyleentertainmentvideotravelcarsebayjobsdatingpropertymore'
p728
I1
sS'edt'
p729
I5
sS'winds'
p730
I2
sS'query'
p731
I1
sS'boluo'
p732
I3
sS'centers'
p733
I1
sS'issues'
p734
I1
sS'row'
p735
I1
sS'simon'
p736
I1
sS'depend'
p737
I1
sS'gold'
p738
I5
sS'zone'
p739
I2
sS'disposal'
p740
I1
sS'concerned'
p741
I1
sS'flash'
p742
I2
sS'father'
p743
I1
sS'young'
p744
I2
sS'send'
p745
I7
sS'environment'
p746
I13
sS'finally'
p747
I2
sS'reptiles'
p748
I1
sS'helps'
p749
I3
sS'marks'
p750
I1
sS'breach'
p751
I1
sS'suffered'
p752
I1
sS'fatal'
p753
I1
sS'relocated'
p754
I1
sS'southwest'
p755
I6
sS'dandy'
p756
I1
sS'mosquitoes'
p757
I1
sS'garden'
p758
I3
sS'beibei'
p759
I3
sS'frequencies'
p760
I1
sS'osofar'
p761
I3
sS'gvdebug'
p762
I1
sS'wave'
p763
I2
sS'zhejiang'
p764
I18
sS'cook'
p765
I6
sS'acres'
p766
I1
sS'blast'
p767
I1
sS'multistory'
p768
I1
sS'categories'
p769
I3
sS'lijin'
p770
I3
sS'dating'
p771
I1
sS'magic'
p772
I1
sS'hour'
p773
I2
sS'level'
p774
I11
sS'harbor'
p775
I1
sS'turns'
p776
I2
sS'leveled'
p777
I1
sS'posts'
p778
I1
sS'troy'
p779
I4
sS'leave'
p780
I9
sS'race'
p781
I1
sS'team'
p782
I1
sS'businesses'
p783
I2
sS'round'
p784
I1
sS'sewage'
p785
I1
sS'fujian'
p786
I4
sS'upper'
p787
I1
sS'smaller'
p788
I1
sS'baffle'
p789
I3
sS'cyber'
p790
I1
sS'rivers'
p791
I9
sS'jump'
p792
I5
sS'cost'
p793
I2
sS'download'
p794
I1
sS'acid'
p795
I1
sS'croc'
p796
I1
sS'depression'
p797
I1
sS'index'
p798
I2
sS'developed'
p799
I1
sS'unavailable'
p800
I2
sS'zhao'
p801
I1
sS'havoc'
p802
I1
sS'landslides'
p803
I11
sS'lhasa'
p804
I3
sS'accuweather'
p805
I1
sS'capital'
p806
I1
sS'reply'
p807
I1
sS'falling'
p808
I3
sS'staff'
p809
I1
sS'dental'
p810
I1
sS'unsure'
p811
I1
sS'stance'
p812
I1
sS'guardian'
p813
I2
sS'muslim'
p814
I1
sS'french'
p815
I1
sS'water'
p816
I29
sS'explore'
p817
I1
sS'forex'
p818
I1
sS'address'
p819
I5
sS'change'
p820
I4
sS'extreme'
p821
I1
sS'copyright'
p822
I14
sS'healthy'
p823
I1
sS'leaving'
p824
I6
sS'queue'
p825
I1
sS'suggests'
p826
I1
sS'bicycles'
p827
I1
sS'cousins'
p828
I2
sS'opinion'
p829
I7
sS'weird'
p830
I3
sS'navigation'
p831
I8
sS'explain'
p832
I1
sS'taipei'
p833
I1
sS'love'
p834
I1
sS'ago'
p835
I7
sS'danger'
p836
I1
sS'manage'
p837
I1
sS'decrease'
p838
I1
sS'ians'
p839
I1
sS'bookmarks'
p840
I2
sS'tools'
p841
I1
sS'crisis'
p842
I1
sS'market'
p843
I6
sS'argentinas'
p844
I1
sS'fed'
p845
I1
sS'usd'
p846
I1
sS'troops'
p847
I1
sS'working'
p848
I1
sS'allget'
p849
I1
sS'prompting'
p850
I1
sS'visit'
p851
I3
sS'france'
p852
I3
sS'msn'
p853
I3
sS'live'
p854
I10
sS'films'
p855
I1
sS'australian'
p856
I1
sS'panel'
p857
I1
sS'arrest'
p858
I2
sS'rainfall'
p859
I8
sS'benxi'
p860
I1
sS'started'
p861
I1
sS'occurred'
p862
I1
sS'clients'
p863
I1
sS'amelia'
p864
I1
sS'stumbleupon'
p865
I1
sS'account'
p866
I2
sS'animals'
p867
I1
sS'tunnel'
p868
I1
sS'crossword'
p869
I1
sS'nanyang'
p870
I3
sS'abortion'
p871
I1
sS'reviews'
p872
I1
sS'cai'
p873
I1
sS'growing'
p874
I2
sS'ferry'
p875
I1
sS'closing'
p876
I1
sS'control'
p877
I6
sS'claim'
p878
I1
sS'xiushui'
p879
I3
sS'stream'
p880
I1
sS'newsletters'
p881
I1
sS'topic'
p882
I1
sS'battered'
p883
I4
sS'council'
p884
I1
sS'zhuang'
p885
I1
sS'dennis'
p886
I1
sS'occur'
p887
I1
sS'autobiography'
p888
I1
sS'locky'
p889
I1
sS'winter'
p890
I1
sS'printemailtweet'
p891
I1
sS'discussion'
p892
I3
sS'write'
p893
I1
sS'located'
p894
I1
sS'sunday'
p895
I7
sS'afp'
p896
I2
sS'secures'
p897
I1
sS'stock'
p898
I3
sS'profile'
p899
I1
sS'map'
p900
I1
sS'buildings'
p901
I2
sS'express'
p902
I1
sS'tel'
p903
I4
sS'farm'
p904
I2
sS'stop'
p905
I1
sS'waters'
p906
I1
sS'aol'
p907
I1
sS'abuse'
p908
I1
sS'mai'
p909
I1
sS'data'
p910
I5
sS'mao'
p911
I2
sS'man'
p912
I3
sS'gorges'
p913
I3
sS'permalink'
p914
I4
sS'natural'
p915
I3
sS'futures'
p916
I1
sS'commodities'
p917
I3
sS'notificationchild'
p918
I3
sS'favourites'
p919
I1
sS'talk'
p920
I1
sS'embassies'
p921
I14
sS'producer'
p922
I3
sS'reeling'
p923
I1
sS'areas'
p924
I19
sS'move'
p925
I3
sS'find'
p926
I10
sS'cropland'
p927
I2
sS'meter'
p928
I3
sS'thomson'
p929
I7
sS'ended'
p930
I1
sS'religious'
p931
I1
sS'including'
p932
I2
sS'nbsp'
p933
I1
sS'quake'
p934
I2
sS'cuts'
p935
I1
sS'cold'
p936
I1
sS'irene'
p937
I1
sS'badges'
p938
I3
sS'regions'
p939
I4
sS'police'
p940
I4
sS'monitor'
p941
I1
sS'macuser'
p942
I1
sS'chosen'
p943
I1
sS'intensify'
p944
I1
sS'linyi'
p945
I3
sS'li'
p946
I3
sS'platform'
p947
I2
sS'osorno'
p948
I1
sS'newsgroup'
p949
I1
sS'degrees'
p950
I2
sS'automation'
p951
I1
sS'hometown'
p952
I1
sS'orange'
p953
I1
sS'mail'
p954
I2
sS'msnbc'
p955
I3
sS'main'
p956
I6
sS'decades'
p957
I1
sS'texas'
p958
I1
sS'eur'
p959
I1
sS'hainan'
p960
I1
sS'crash'
p961
I3
sS'finance'
p962
I5
sS'views'
p963
I5
sS'dam'
p964
I3
sS'moshan'
p965
I2
sS'evacuation'
p966
I4
sS'nation'
p967
I4
sS'newman'
p968
I1
sS'records'
p969
I2
sS'cutting'
p970
I1
sS'femail'
p971
I1
sS'half'
p972
I5
sS'fushun'
p973
I4
sS'republican'
p974
I3
sS'flee'
p975
I4
sS'discuss'
p976
I3
sS'developments'
p977
I2
sS'auto'
p978
I1
sS'edit'
p979
I3
sS'james'
p980
I1
sS'drop'
p981
I1
sS'slide'
p982
I1
sS'el'
p983
I3
sS'bridging'
p984
I1
sS'tents'
p985
I1
sS'ed'
p986
I3
sS'related'
p987
I9
sS'society'
p988
I1
sS'muniland'
p989
I1
sS'eu'
p990
I3
sS'gillard'
p991
I1
sS'reprints'
p992
I2
sS'sexual'
p993
I1
sS'disasters'
p994
I8
sS'special'
p995
I2
sS'ahmadinejad'
p996
I1
sS'webcasts'
p997
I1
sS'chaos'
p998
I2
sS'increase'
p999
I2
sS'internet'
p1000
I3
sS'calif'
p1001
I1
sS'red'
p1002
I2
sS'debris'
p1003
I1
sS'retrieved'
p1004
I1
sS'pumping'
p1005
I2
sS'qi'
p1006
I1
sS'trademarks'
p1007
I1
sS'resumed'
p1008
I1
sS'river'
p1009
I29
sS'ministry'
p1010
I9
sS'times'
p1011
I5
sS'thing'
p1012
I1
sS'pigs'
p1013
I3
sS'massive'
p1014
I1
sS'davis'
p1015
I5
sS'municipality'
p1016
I1
sS'reaches'
p1017
I4
sS'suspended'
p1018
I1
sS'vote'
p1019
I5
sS'reached'
p1020
I2
sS'braces'
p1021
I1
sS'millions'
p1022
I4
sS'city'
p1023
I16
sS'playlist'
p1024
I1
sS'hurricane'
p1025
I3
sS'swept'
p1026
I1
sS'district'
p1027
I1
sS'start'
p1028
I1
sS'evacuates'
p1029
I1
sS'myspace'
p1030
I1
sS'hilary'
p1031
I1
sS'relations'
p1032
I1
sS'lianyungang'
p1033
I1
sS'ibtimes'
p1034
I1
sS'white'
p1035
I1
sS'jellyfish'
p1036
I1
sS'rebels'
p1037
I1
sS'final'
p1038
I2
sS'friend'
p1039
I1
sS'low'
p1040
I2
sS'season'
p1041
I4
sS'released'
p1042
I2
sS'alertnet'
p1043
I3
sS'searchhow'
p1044
I1
sS'qujiang'
p1045
I1
sS'july'
p1046
I2
sS'copy'
p1047
I1
sS'pageinsightserroryou'
p1048
I1
sS'rss'
p1049
I3
sS'colleagues'
p1050
I1
sS'future'
p1051
I1
sS'steep'
p1052
I1
sS'browser'
p1053
I5
sS'talim'
p1054
I4
sS'voanews'
p1055
I1
sS'san'
p1056
I1
sS'pro'
p1057
I1
sS'buy'
p1058
I3
sS'close'
p1059
I6
sS'rescuers'
p1060
I4
sS'leiva'
p1061
I1
sS'uranium'
p1062
I1
sS'pageinsightserror'
p1063
I1
sS'dailymotionaboutpressjobsall'
p1064
I3
sS'inches'
p1065
I1
sS'dishes'
p1066
I1
sS'agency'
p1067
I22
sS'endangered'
p1068
I1
sS'ideal'
p1069
I1
sS'potential'
p1070
I1
sS'channel'
p1071
I1
sS'santiago'
p1072
I1
sS'combat'
p1073
I1
sS'track'
p1074
I1
sS'price'
p1075
I2
sS'agriculture'
p1076
I1
sS'sheets'
p1077
I2
sS'preliminary'
p1078
I1
sS'transcript'
p1079
I1
sS'highertorrential'
p1080
I1
sS'wangmo'
p1081
I3
sS'neighboring'
p1082
I1
sS'average'
p1083
I1
sS'stranded'
p1084
I2
sS'professional'
p1085
I1
sS'parris'
p1086
I1
sS'jiangxi'
p1087
I2
sS'rating'
p1088
I2
sS'atmosphere'
p1089
I1
sS'shot'
p1090
I1
sS'hongzehong'
p1091
I3
sS'show'
p1092
I11
sS'text'
p1093
I6
sS'charles'
p1094
I1
sS'fifty'
p1095
I1
sS'downpours'
p1096
I11
sS'bring'
p1097
I7
sS'tkt'
p1098
I1
sS'dateline'
p1099
I3
sS'southwestern'
p1100
I4
sS'soldiers'
p1101
I1
sS'fear'
p1102
I1
sS'azerbaijan'
p1103
I1
sS'debate'
p1104
I3
sS'decade'
p1105
I5
sS'ground'
p1106
I3
sS'feng'
p1107
I1
sS'upgrade'
p1108
I4
sS'reservoir'
p1109
I2
sS'title'
p1110
I1
sS'clutching'
p1111
I1
sS'winner'
p1112
I1
sS'storms'
p1113
I6
sS'shareadd'
p1114
I3
sS'xunjiang'
p1115
I3
sS'muffin'
p1116
I2
sS'fuel'
p1117
I1
sS'local'
p1118
I14
sS'hope'
p1119
I2
sS'tuojiang'
p1120
I3
sS'bonds'
p1121
I1
sS'sst'
p1122
I1
sS'photography'
p1123
I1
sS'prolonged'
p1124
I1
sS'cross'
p1125
I1
sS'fallout'
p1126
I1
sS'spur'
p1127
I1
sS'jiamusi'
p1128
I3
sS'tianhe'
p1129
I3
sS'manager'
p1130
I1
sS'shu'
p1131
I2
sS'radar'
p1132
I1
sS'floods'
p1133
I69
sS'morning'
p1134
I4
sS'hangzhou'
p1135
I1
sS'miles'
p1136
I1
sS'inforgot'
p1137
I2
sS'predicted'
p1138
I1
sS'worries'
p1139
I1
sS'scott'
p1140
I1
sS'husband'
p1141
I1
sS'view'
p1142
I4
sS'accuses'
p1143
I1
sS'humiliation'
p1144
I1
sS'africasyriathailandtunisiaturkeyunited'
p1145
I1
sS'edition'
p1146
I3
sS'officials'
p1147
I5
sS'declares'
p1148
I1
sS'enhanced'
p1149
I1
sS'hell'
p1150
I2
sS'atlantic'
p1151
I2
sS'europa'
p1152
I1
sS'calendar'
p1153
I3
sS'sport'
p1154
I6
sS'results'
p1155
I4
sS'maddow'
p1156
I2
sS'farmers'
p1157
I2
sS'nuclear'
p1158
I5
sS'review'
p1159
I16
sS'missing'
p1160
I39
sS'sites'
p1161
I10
sS'forecast'
p1162
I6
sS'pte'
p1163
I3
sS'bureau'
p1164
I3
sS'injustice'
p1165
I2
sS'affecting'
p1166
I2
sS'import'
p1167
I1
sS'yesterday'
p1168
I4
sS'reading'
p1169
I1
sS'thishurricane'
p1170
I1
sS'email'
p1171
I12
sS'luo'
p1172
I1
sS'zeitgeist'
p1173
I2
sS'puyehue'
p1174
I1
sS'august'
p1175
I2
sS'spares'
p1176
I1
sS'contentcopyright'
p1177
I3
sS'killing'
p1178
I1
sS'job'
p1179
I2
sS'awards'
p1180
I1
sS'key'
p1181
I1
sS'article'
p1182
I7
sS'cities'
p1183
I2
sS'lanxi'
p1184
I2
sS'hits'
p1185
I3
sS'rugby'
p1186
I1
sS'libya'
p1187
I1
sS'region'
p1188
I4
sS'la'
p1189
I1
sS'recession'
p1190
I2
sS'tour'
p1191
I1
sS'sanjiangkou'
p1192
I2
sS'railway'
p1193
I1
sS'comment'
p1194
I14
sS'pakistan'
p1195
I9
sS'onemillion'
p1196
I1
sS'relevant'
p1197
I1
sS'wall'
p1198
I1
sS'tuesday'
p1199
I6
sS'ce'
p1200
I1
sS'subscribe'
p1201
I2
sS'learning'
p1202
I4
sS'fukushima'
p1203
I1
sS'cp'
p1204
I1
sS'boat'
p1205
I3
sS'destroyed'
p1206
I9
sS'arts'
p1207
I3
sS'powered'
p1208
I4
sS'bbc'
p1209
I5
sS'copies'
p1210
I1
sS'cent'
p1211
I1
sS'mark'
p1212
I1
sS'tropical'
p1213
I3
sS'reuters'
p1214
I14
sS'hindi'
p1215
I1
sS'technical'
p1216
I1
sS'waste'
p1217
I1
sS'partial'
p1218
I1
sS'username'
p1219
I1
sS'enable'
p1220
I1
sS'shortages'
p1221
I1
sS'netanyahu'
p1222
I1
sS'al'
p1223
I2
sS'photos'
p1224
I5
sS'external'
p1225
I1
sS'covered'
p1226
I1
sS'stonecutters'
p1227
I1
sS'argentina'
p1228
I3
sS'spain'
p1229
I1
sS'homes'
p1230
I8
sS'zambians'
p1231
I1
sS'ap'
p1232
I3
sS'podcasts'
p1233
I2
sS'qianting'
p1234
I1
sS'scum'
p1235
I1
sS'reservoirs'
p1236
I1
sS'dmexco'
p1237
I1
sS'landslide'
p1238
I2
sS'myindependent'
p1239
I1
sS'evacuees'
p1240
I1
sS'telangana'
p1241
I1
sS'cell'
p1242
I1
sS'upfacebook'
p1243
I1
sS'strait'
p1244
I1
sS'linkedin'
p1245
I1
sS'helped'
p1246
I2
sS'thug'
p1247
I1
sS'halt'
p1248
I1
sS'author'
p1249
I1
sS'toembedreport'
p1250
I3
sS'archive'
p1251
I2
sS'policyhelpcontact'
p1252
I1
sS'parts'
p1253
I10
sS'buys'
p1254
I1
sS'terrorism'
p1255
I1
sS'killed'
p1256
I26
sS'columbia'
p1257
I1
sS'bali'
p1258
I1
sS'assist'
p1259
I1
sS'forecasts'
p1260
I2
sS'director'
p1261
I1
sS'advertisement'
p1262
I2
sS'torrential'
p1263
I10
sS'center'
p1264
I5
sS'fighting'
p1265
I2
sS'severe'
p1266
I3
sS'relief'
p1267
I15
sS'english'
p1268
I2
sS'yangtze'
p1269
I7
sS'audio'
p1270
I1
sS'scientists'
p1271
I1
sS'bodies'
p1272
I2
sS'summer'
p1273
I7
sS'outdoor'
p1274
I1
sS'poach'
p1275
I1
sS'money'
p1276
I10
sS'hands'
p1277
I1
sS'inregister'
p1278
I3
sS'hukou'
p1279
I3
sS'kill'
p1280
I12
sS'changjiang'
p1281
I3
sS'touch'
p1282
I1
sS'speed'
p1283
I1
sS'incurring'
p1284
I1
sS'weekly'
p1285
I12
sS'depthtoday'
p1286
I1
sS'web'
p1287
I13
sS'death'
p1288
I9
sS'rose'
p1289
I5
sS'point'
p1290
I1
sS'photoshot'
p1291
I1
sS'lake'
p1292
I3
sS'geological'
p1293
I1
sS'improvement'
p1294
I1
sS'blog'
p1295
I1
sS'crocodiles'
p1296
I1
sS'treatment'
p1297
I1
sS'delegations'
p1298
I1
sS'struck'
p1299
I1
sS'villagers'
p1300
I3
sS'careers'
p1301
I4
sS'kingdom'
p1302
I1
sS'kills'
p1303
I3
sS'delhi'
p1304
I1
sS'early'
p1305
I3
sS'traffic'
p1306
I2
sS'execution'
p1307
I1
sS'mof'
p1308
I1
sS'clan'
p1309
I1
sS'mudslide'
p1310
I3
sS'displaced'
p1311
I5
sS'showing'
p1312
I1
sS'lost'
p1313
I2
sS'chairs'
p1314
I1
sS'suppliers'
p1315
I8
sS'herong'
p1316
I3
sS'oddly'
p1317
I1
sS'displaces'
p1318
I3
sS'warned'
p1319
I2
sS'works'
p1320
I1
sS'making'
p1321
I1
sS'tumble'
p1322
I1
sS'twitter'
p1323
I9
sS'church'
p1324
I1
sS'pacific'
p1325
I4
sS'cyberport'
p1326
I1
sS'elements'
p1327
I1
sS'images'
p1328
I10
sS'gave'
p1329
I1
sS'pakistanis'
p1330
I3
sS'distribution'
p1331
I1
sS'octane'
p1332
I1
sS'disrupting'
p1333
I1
sS'dumps'
p1334
I1
sS'zhou'
p1335
I2
sS'drenched'
p1336
I3
sS'avoid'
p1337
I1
sS'recorded'
p1338
I2
sS'pashto'
p1339
I1
sS'legal'
p1340
I6
sS'drenches'
p1341
I1
sS'schedule'
p1342
I1
sS'seconds'
p1343
I1
sS'journal'
p1344
I4
sS'provinces'
p1345
I16
sS'host'
p1346
I1
sS'found'
p1347
I1
sS'usadvertiseterms'
p1348
I1
sS'counties'
p1349
I3
sS'stage'
p1350
I1
sS'lifestyle'
p1351
I2
sS'stations'
p1352
I4
sS'huaihe'
p1353
I3
sS'island'
p1354
I2
sS'violence'
p1355
I3
sS'shipping'
p1356
I1
sS'angeles'
p1357
I1
sS'zhuji'
p1358
I1
sS'andes'
p1359
I1
sS'underway'
p1360
I1
sS'urges'
p1361
I2
sS'joplin'
p1362
I1
sS'tributary'
p1363
I2
sS'irishman'
p1364
I1
sS'road'
p1365
I1
sS'letters'
p1366
I2
sS'image'
p1367
I3
sS'washington'
p1368
I2
sS'weather'
p1369
I23
sS'liaoning'
p1370
I3
sS'adobe'
p1371
I1
sS'subscriber'
p1372
I1
sS'mississippi'
p1373
I1
sS'area'
p1374
I6
sS'friends'
p1375
I2
sS'paddle'
p1376
I1
sS'los'
p1377
I1
sS'minjiang'
p1378
I3
sS'biggest'
p1379
I2
sS'picturesin'
p1380
I1
sS'jason'
p1381
I2
sS'billion'
p1382
I4
sS'hard'
p1383
I1
sS'complete'
p1384
I1
sS'triggered'
p1385
I9
sS'funds'
p1386
I1
sS'jun'
p1387
I4
sS'evacuate'
p1388
I5
sS'xinhua'
p1389
I33
sS'construction'
p1390
I1
sS'hurricanes'
p1391
I2
sS'weihe'
p1392
I5
sS'podcast'
p1393
I1
sS'october'
p1394
I2
sS'official'
p1395
I2
sS'hosting'
p1396
I1
sS'record'
p1397
I1
sS'weinan'
p1398
I1
sS'severely'
p1399
I1
sS'lightning'
p1400
I2
sS'display'
p1401
I1
sS'cbc'
p1402
I1
sS'irish'
p1403
I1
sS'motionmakerbecome'
p1404
I3
sS'videos'
p1405
I9
sS'deaths'
p1406
I3
sS'describe'
p1407
I2
sS'moved'
p1408
I1
sS'sales'
p1409
I1
sS'pig'
p1410
I1
sS'cbs'
p1411
I2
sS'britain'
p1412
I1
sS'operation'
p1413
I2
sS'film'
p1414
I1
sS'wild'
p1415
I1
sS'deadly'
p1416
I5
sS'offensive'
p1417
I2
sS'event'
p1418
I1
sS'field'
p1419
I1
sS'shenzhen'
p1420
I1
sS'poor'
p1421
I1
sS'usblogfacebooktwitter'
p1422
I3
sS'monday'
p1423
I5
sS'students'
p1424
I1
sS'peak'
p1425
I2
sS'stocks'
p1426
I2
sS'presidential'
p1427
I3
sS'blogs'
p1428
I2
sS'password'
p1429
I3
sS'mass'
p1430
I1
sS'directory'
p1431
I5
sS'thunderstorms'
p1432
I1
stp1433
Rp1434
sS'_bins'
p1435
I3198
sS'_divisor'
p1436
F5360.0
sbs(g8
g12
tp1437
g0
(g14
g2
Ntp1438
Rp1439
(dp1440
g18
F0.5
sg19
I5007
sg20
g21
((dp1441
S'aided'
p1442
I1
sS'gadhafi'
p1443
I2
sS'limited'
p1444
I3
sS'scientistsby'
p1445
I1
sS'implants'
p1446
I1
sS'kinyarwanda'
p1447
I2
sS'uzbekistan'
p1448
I1
sS'facilities'
p1449
I3
sS'protest'
p1450
I1
sS'likelikeconfirmyou'
p1451
I1
sS'cyprus'
p1452
I2
sS'likerecommendconfirmyou'
p1453
I4
sS'therapeutics'
p1454
I2
sS'aug'
p1455
I14
sS'electricity'
p1456
I2
sS'crises'
p1457
I1
sS'tweet'
p1458
I1
sS'homevideosnewsentertainmentcelebsmovieslifestylesportsbusinessautofunnyet'
p1459
I1
sS'swap'
p1460
I2
sS'caused'
p1461
I3
sS'plants'
p1462
I1
sS'risk'
p1463
I6
sS'dynamic'
p1464
I1
sS'rise'
p1465
I7
sS'georgia'
p1466
I2
sS'updates'
p1467
I3
sS'reforms'
p1468
I1
sS'affect'
p1469
I1
sS'dreamworks'
p1470
I1
sS'tickets'
p1471
I2
sS'sichuan'
p1472
I1
sS'school'
p1473
I6
sS'cml'
p1474
I1
sS'exaggerate'
p1475
I1
sS'skills'
p1476
I1
sS'elevance'
p1477
I1
sS'companies'
p1478
I9
sS'solution'
p1479
I4
sS'sri'
p1480
I1
sS'debris'
p1481
I1
sS'red'
p1482
I1
sS'indices'
p1483
I1
sS'enhance'
p1484
I1
sS'jamaica'
p1485
I1
sS'force'
p1486
I3
sS'leaders'
p1487
I9
sS'deutsch'
p1488
I1
sS'miller'
p1489
I2
sS'warns'
p1490
I5
sS'guidelines'
p1491
I1
sS'bacon'
p1492
I1
sS'direct'
p1493
I1
sS'horn'
p1494
I1
sS'cameron'
p1495
I2
sS'street'
p1496
I1
sS'eurovision'
p1497
I1
sS'blue'
p1498
I1
sS'established'
p1499
I1
sS'hide'
p1500
I1
sS'preferences'
p1501
I1
sS'prisons'
p1502
I1
sS'saved'
p1503
I1
sS'liberty'
p1504
I1
sS'paphos'
p1505
I1
sS'toll'
p1506
I2
sS'tips'
p1507
I3
sS'disney'
p1508
I2
sS'told'
p1509
I2
sS'courteney'
p1510
I1
sS'catal'
p1511
I1
sS'statehood'
p1512
I2
sS'men'
p1513
I22
sS'chinaby'
p1514
I1
sS'affiliates'
p1515
I2
sS'hundreds'
p1516
I1
sS'reported'
p1517
I2
sS'protection'
p1518
I2
sS'celebration'
p1519
I1
sS'kids'
p1520
I1
sS'forum'
p1521
I5
sS'auction'
p1522
I2
sS'elaborate'
p1523
I2
sS'changed'
p1524
I1
sS'reports'
p1525
I4
sS'credit'
p1526
I5
sS'chrysler'
p1527
I1
sS'military'
p1528
I4
sS'rebel'
p1529
I1
sS'golden'
p1530
I1
sS'norsk'
p1531
I1
sS'campaign'
p1532
I5
sS'wikimedia'
p1533
I2
sS'schooling'
p1534
I1
sS'visible'
p1535
I1
sS'pataudi'
p1536
I2
sS'moral'
p1537
I1
sS'opportunities'
p1538
I3
sS'total'
p1539
I1
sS'landscape'
p1540
I1
sS'sarah'
p1541
I2
sS'portugal'
p1542
I1
sS'army'
p1543
I1
sS'arms'
p1544
I3
sS'garners'
p1545
I2
sS'plog'
p1546
I3
sS'program'
p1547
I2
sS'call'
p1548
I2
sS'asset'
p1549
I1
sS'recommend'
p1550
I7
sS'strike'
p1551
I2
sS'indiana'
p1552
I2
sS'preview'
p1553
I3
sS'type'
p1554
I2
sS'successful'
p1555
I1
sS'brings'
p1556
I2
sS'wars'
p1557
I1
sS'award'
p1558
I2
sS'toolbar'
p1559
I1
sS'phone'
p1560
I8
sS'berlin'
p1561
I1
sS'hold'
p1562
I2
sS'kumar'
p1563
I1
sS'join'
p1564
I4
sS'room'
p1565
I1
sS'midwest'
p1566
I2
sS'mo'
p1567
I1
sS'work'
p1568
I5
sS'eclipse'
p1569
I1
sS'movies'
p1570
I1
sS'mw'
p1571
I4
sS'usersubscribe'
p1572
I1
sS'mp'
p1573
I1
sS'exceptions'
p1574
I1
sS'plunges'
p1575
I2
sS'newfoundland'
p1576
I1
sS'hyatt'
p1577
I1
sS'dailymotion'
p1578
I1
sS'uaw'
p1579
I1
sS'currency'
p1580
I3
sS'foods'
p1581
I2
sS'scrollbars'
p1582
I1
sS'appointment'
p1583
I1
sS'guarantee'
p1584
I1
sS'ceremony'
p1585
I1
sS'provincial'
p1586
I1
sS'end'
p1587
I11
sS'recovery'
p1588
I1
sS'hon'
p1589
I1
sS'kabul'
p1590
I1
sS'hot'
p1591
I2
sS'allied'
p1592
I1
sS'trusted'
p1593
I3
sS'lisa'
p1594
I1
sS'toxic'
p1595
I1
sS'place'
p1596
I2
sS'beach'
p1597
I2
sS'charging'
p1598
I1
sS'offshore'
p1599
I2
sS'closethe'
p1600
I1
sS'chaddockpage'
p1601
I1
sS'regional'
p1602
I2
sS'elizabeth'
p1603
I1
sS'beauty'
p1604
I1
sS'earlier'
p1605
I1
sS'scottsdale'
p1606
I1
sS'customs'
p1607
I1
sS'documentheight'
p1608
I1
sS'law'
p1609
I5
sS'purchase'
p1610
I1
sS'wins'
p1611
I7
sS'greet'
p1612
I1
sS'greek'
p1613
I1
sS'bahasa'
p1614
I1
sS'enter'
p1615
I4
sS'sortiert'
p1616
I1
sS'diary'
p1617
I1
sS'order'
p1618
I1
sS'wind'
p1619
I19
sS'operations'
p1620
I3
sS'executed'
p1621
I2
sS'feedback'
p1622
I1
sS'office'
p1623
I2
sS'deck'
p1624
I1
sS'papiamentu'
p1625
I1
sS'consent'
p1626
I2
sS'murray'
p1627
I1
sS'london'
p1628
I6
sS'rsshome'
p1629
I1
sS'innovative'
p1630
I1
sS'japan'
p1631
I9
sS'biofuels'
p1632
I1
sS'welcomes'
p1633
I1
sS'austerity'
p1634
I1
sS'anhui'
p1635
I1
sS'imf'
p1636
I3
sS'personal'
p1637
I5
sS'highlights'
p1638
I4
sS'fix'
p1639
I2
sS'denver'
p1640
I24
sS'writing'
p1641
I1
sS'destroyed'
p1642
I2
sS'production'
p1643
I4
sS'romeo'
p1644
I1
sS'hidden'
p1645
I1
sS'cree'
p1646
I1
sS'prius'
p1647
I2
sS'ftse'
p1648
I2
sS'iowa'
p1649
I2
sS'diseases'
p1650
I1
sS'bans'
p1651
I1
sS'safe'
p1652
I1
sS'nownews'
p1653
I1
sS'band'
p1654
I1
sS'bang'
p1655
I1
sS'therapy'
p1656
I1
sS'versandkosten'
p1657
I2
sS'flotation'
p1658
I1
sS'schools'
p1659
I3
sS'tourism'
p1660
I1
sS'silver'
p1661
I3
sS'bank'
p1662
I14
sS'gloom'
p1663
I1
sS'netherlands'
p1664
I2
sS'debut'
p1665
I20
sS'rocks'
p1666
I1
sS'fitness'
p1667
I1
sS'volcano'
p1668
I1
sS'feeds'
p1669
I2
sS'bond'
p1670
I1
sS'financial'
p1671
I8
sS'series'
p1672
I1
sS'crimes'
p1673
I1
sS'spider'
p1674
I1
sS'upload'
p1675
I3
sS'literature'
p1676
I3
sS'trading'
p1677
I4
sS'navy'
p1678
I1
sS'dawn'
p1679
I1
sS'blinded'
p1680
I1
sS'driving'
p1681
I4
sS'rs'
p1682
I2
sS'god'
p1683
I1
sS'dst'
p1684
I1
sS'diesel'
p1685
I1
sS'sand'
p1686
I1
sS'trainers'
p1687
I1
sS'smp'
p1688
I1
sS'content'
p1689
I6
sS'encourage'
p1690
I2
sS'reader'
p1691
I1
sS'exxonmobil'
p1692
I1
sS'gov'
p1693
I1
sS'pagethe'
p1694
I1
sS'dea'
p1695
I1
sS'mullen'
p1696
I2
sS'turning'
p1697
I1
sS'paen'
p1698
I1
sS'standard'
p1699
I1
sS'campaigns'
p1700
I1
sS'appointments'
p1701
I1
sS'jennie'
p1702
I1
sS'dailyfinance'
p1703
I19
sS'shaanxi'
p1704
I1
sS'starts'
p1705
I1
sS'messages'
p1706
I1
sS'days'
p1707
I2
sS'silicon'
p1708
I1
sS'ministries'
p1709
I1
sS'aspiro'
p1710
I1
sS'transexpo'
p1711
I1
sS'size'
p1712
I1
sS'trke'
p1713
I1
sS'features'
p1714
I2
sS'primary'
p1715
I3
sS'rant'
p1716
I1
sS'featured'
p1717
I2
sS'customization'
p1718
I1
sS'samoa'
p1719
I1
sS'esperanto'
p1720
I1
sS'priority'
p1721
I1
sS'rated'
p1722
I1
sS'guinness'
p1723
I1
sS'girls'
p1724
I1
sS'checker'
p1725
I2
sS'antiques'
p1726
I1
sS'rates'
p1727
I3
sS'listed'
p1728
I1
sS'john'
p1729
I1
sS'urban'
p1730
I1
sS'tool'
p1731
I2
sS'wisdom'
p1732
I1
sS'white'
p1733
I5
sS'commentadmin'
p1734
I4
sS'trek'
p1735
I1
sS'medimmune'
p1736
I1
sS'target'
p1737
I1
sS'facebooklikeconfirmyou'
p1738
I2
sS'expr'
p1739
I1
sS'forensic'
p1740
I1
sS'tree'
p1741
I1
sS'nations'
p1742
I2
sS'project'
p1743
I5
sS'merck'
p1744
I1
sS'expo'
p1745
I3
sS'sheen'
p1746
I1
sS'silverstein'
p1747
I1
sS'mini'
p1748
I1
sS'fashion'
p1749
I2
sS'sees'
p1750
I2
sS'boston'
p1751
I1
sS'ram'
p1752
I2
sS'paddles'
p1753
I1
sS'assange'
p1754
I2
sS'souris'
p1755
I1
sS'chura'
p1756
I1
sS'lautsprecher'
p1757
I1
sS'reprieve'
p1758
I1
sS'rebrand'
p1759
I1
sS'responsible'
p1760
I1
sS'snow'
p1761
I2
sS'investment'
p1762
I6
sS'recommended'
p1763
I1
sS'materials'
p1764
I1
sS'lumpur'
p1765
I1
sS'layoffs'
p1766
I1
sS'iceland'
p1767
I1
sS'object'
p1768
I1
sS'germany'
p1769
I4
sS'honor'
p1770
I1
sS'entry'
p1771
I2
sS'phase'
p1772
I2
sS'drought'
p1773
I1
sS'tibetan'
p1774
I1
sS'germans'
p1775
I1
sS'consumers'
p1776
I6
sS'rogers'
p1777
I1
sS'released'
p1778
I1
sS'emailing'
p1779
I2
sS'tanzania'
p1780
I1
sS'displayedshare'
p1781
I1
sS'points'
p1782
I2
sS'enterprise'
p1783
I1
sS'newsfeed'
p1784
I1
sS'consumer'
p1785
I1
sS'dow'
p1786
I1
sS'silber'
p1787
I1
sS'pope'
p1788
I5
sS'ringtones'
p1789
I1
sS'visitor'
p1790
I1
sS'labels'
p1791
I1
sS'religions'
p1792
I1
sS'radio'
p1793
I4
sS'solutions'
p1794
I3
sS'sexism'
p1795
I1
sS'keywords'
p1796
I2
sS'hungary'
p1797
I2
sS'nevada'
p1798
I1
sS'northeast'
p1799
I2
sS'menu'
p1800
I1
sS'guidance'
p1801
I1
sS'unemployment'
p1802
I1
sS'sugar'
p1803
I1
sS'kessler'
p1804
I1
sS'rico'
p1805
I1
sS'bush'
p1806
I1
sS'rick'
p1807
I2
sS'integrate'
p1808
I3
sS'announce'
p1809
I2
sS'rss'
p1810
I7
sS'exports'
p1811
I1
sS'dj'
p1812
I2
sS'honda'
p1813
I4
sS'stop'
p1814
I2
sS'dc'
p1815
I20
sS'integrity'
p1816
I1
sS'coast'
p1817
I1
sS'amazon'
p1818
I2
sS'anxious'
p1819
I1
sS'dansk'
p1820
I1
sS'runs'
p1821
I1
sS'bar'
p1822
I1
sS'covering'
p1823
I7
sS'fields'
p1824
I1
sS'fighters'
p1825
I2
sS'patch'
p1826
I19
sS'metadata'
p1827
I1
sS'gigaom'
p1828
I1
sS'fair'
p1829
I4
sS'analytics'
p1830
I1
sS'izon'
p1831
I1
sS'fail'
p1832
I1
sS'iran'
p1833
I1
sS'frontline'
p1834
I1
sS'voyage'
p1835
I1
sS'capacity'
p1836
I1
sS'wikipedia'
p1837
I3
sS'xvi'
p1838
I1
sS'discovers'
p1839
I1
sS'menschen'
p1840
I1
sS'terms'
p1841
I4
sS'loading'
p1842
I24
sS'carbon'
p1843
I2
sS'debt'
p1844
I1
sS'climate'
p1845
I1
sS'planner'
p1846
I2
sS'bloggers'
p1847
I1
sS'adapter'
p1848
I2
sS'readers'
p1849
I1
sS'heating'
p1850
I1
sS'und'
p1851
I2
sS'receives'
p1852
I3
sS'faces'
p1853
I1
sS'requests'
p1854
I1
sS'blackvoices'
p1855
I19
sS'libyan'
p1856
I1
sS'goodrich'
p1857
I1
sS'initiative'
p1858
I2
sS'chahine'
p1859
I1
sS'tony'
p1860
I1
sS'speak'
p1861
I1
sS'code'
p1862
I3
sS'andorra'
p1863
I1
sS'iraq'
p1864
I2
sS'buffett'
p1865
I1
sS'ting'
p1866
I1
sS'julian'
p1867
I2
sS'pro'
p1868
I1
sS'monavie'
p1869
I1
sS'exhibition'
p1870
I5
sS'website'
p1871
I2
sS'drugs'
p1872
I3
sS'republicans'
p1873
I2
sS'worker'
p1874
I1
sS'tajikistan'
p1875
I1
sS'child'
p1876
I1
sS'aviation'
p1877
I1
sS'mortgage'
p1878
I2
sS'launches'
p1879
I8
sS'air'
p1880
I4
sS'radiohalterung'
p1881
I1
sS'aid'
p1882
I1
sS'property'
p1883
I3
sS'flooding'
p1884
I4
sS'radarplus'
p1885
I2
sS'biotech'
p1886
I1
sS'losses'
p1887
I2
sS'hunan'
p1888
I1
sS'mexico'
p1889
I1
sS'accessories'
p1890
I1
sS'player'
p1891
I4
sS'id'
p1892
I1
sS'disappear'
p1893
I1
sS'grown'
p1894
I2
sS'dhl'
p1895
I1
sS'bottles'
p1896
I1
sS'patent'
p1897
I1
sS'yellow'
p1898
I20
sS'damages'
p1899
I1
sS'bid'
p1900
I3
sS'european'
p1901
I10
sS'independent'
p1902
I2
sS'shatner'
p1903
I1
sS'social'
p1904
I12
sS'workforce'
p1905
I1
sS'rain'
p1906
I4
sS'characters'
p1907
I2
sS'kia'
p1908
I2
sS'programs'
p1909
I2
sS'charlie'
p1910
I1
sS'client'
p1911
I1
sS'cigna'
p1912
I1
sS'roma'
p1913
I1
sS'romn'
p1914
I1
sS'claims'
p1915
I2
sS'alabama'
p1916
I1
sS'settimeout'
p1917
I1
sS'investments'
p1918
I1
sS'left'
p1919
I2
sS'seasonal'
p1920
I1
sS'opinions'
p1921
I2
sS'videoshare'
p1922
I1
sS'yen'
p1923
I1
sS'photo'
p1924
I6
sS'distribute'
p1925
I2
sS'proposes'
p1926
I1
sS'toraw'
p1927
I2
sS'identify'
p1928
I1
sS'human'
p1929
I3
sS'trestles'
p1930
I1
sS'swahili'
p1931
I1
sS'adding'
p1932
I1
sS'designers'
p1933
I1
sS'bhutan'
p1934
I1
sS'equipment'
p1935
I1
sS'lundin'
p1936
I1
sS'board'
p1937
I3
sS'prison'
p1938
I1
sS'contestant'
p1939
I1
sS'save'
p1940
I2
sS'wissen'
p1941
I1
sS'buttontweet'
p1942
I1
sS'awaydelhi'
p1943
I1
sS'boxen'
p1944
I1
sS'arab'
p1945
I1
sS'cape'
p1946
I1
sS'unique'
p1947
I2
sS'advanced'
p1948
I1
sS'reconsidering'
p1949
I1
sS'eigene'
p1950
I1
sS'mansions'
p1951
I1
sS'orlando'
p1952
I1
sS'steps'
p1953
I1
sS'night'
p1954
I1
sS'security'
p1955
I3
sS'appliances'
p1956
I1
sS'deal'
p1957
I5
sS'dead'
p1958
I3
sS'eyeing'
p1959
I1
sS'aspen'
p1960
I1
sS'contests'
p1961
I1
sS'bottom'
p1962
I1
sS'creative'
p1963
I3
sS'unit'
p1964
I1
sS'beating'
p1965
I1
sS'taiwans'
p1966
I1
sS'proactivediv'
p1967
I1
sS'marketing'
p1968
I3
sS'dental'
p1969
I1
sS'hubei'
p1970
I1
sS'corp'
p1971
I3
sS'confrontation'
p1972
I1
sS'losing'
p1973
I2
sS'manufacturing'
p1974
I2
sS'limitation'
p1975
I1
sS'census'
p1976
I1
sS'attacks'
p1977
I2
sS'months'
p1978
I1
sS'accepts'
p1979
I1
sS'magazine'
p1980
I1
sS'islands'
p1981
I1
sS'efforts'
p1982
I1
sS'palestinians'
p1983
I2
sS'associatedpress'
p1984
I1
sS'statements'
p1985
I1
sS'civil'
p1986
I1
sS'raises'
p1987
I1
sS'ezchip'
p1988
I1
sS'rely'
p1989
I2
sS'support'
p1990
I4
sS'tennis'
p1991
I1
sS'legislation'
p1992
I1
sS'virgin'
p1993
I1
sS'music'
p1994
I4
sS'war'
p1995
I3
sS'offer'
p1996
I2
sS'pollster'
p1997
I19
sS'spike'
p1998
I2
sS'ford'
p1999
I1
sS'wireless'
p2000
I1
sS'lows'
p2001
I1
sS'solar'
p2002
I2
sS'vietnamese'
p2003
I1
sS'approval'
p2004
I2
sS'tinto'
p2005
I1
sS'inside'
p2006
I2
sS'maximum'
p2007
I1
sS'polski'
p2008
I1
sS'supplied'
p2009
I2
sS'url'
p2010
I1
sS'tochina'
p2011
I1
sS'delete'
p2012
I1
sS'drive'
p2013
I1
sS'agodana'
p2014
I1
sS'floating'
p2015
I1
sS'check'
p2016
I2
sS'ni'
p2017
I1
sS'pollthe'
p2018
I1
sS'glacier'
p2019
I1
sS'stake'
p2020
I1
sS'generally'
p2021
I1
sS'ne'
p2022
I1
sS'actor'
p2023
I2
sS'flood'
p2024
I5
sS'setting'
p2025
I1
sS'oscar'
p2026
I1
sS'tie'
p2027
I1
sS'developers'
p2028
I1
sS'picture'
p2029
I1
sS'models'
p2030
I1
sS'update'
p2031
I5
sS'authorities'
p2032
I1
sS'billion'
p2033
I6
sS'fsa'
p2034
I1
sS'twitterplease'
p2035
I1
sS'vietnam'
p2036
I1
sS'push'
p2037
I2
sS'profits'
p2038
I1
sS'cessna'
p2039
I1
sS'ron'
p2040
I1
sS'diplomacy'
p2041
I1
sS'skip'
p2042
I1
sS'rob'
p2043
I1
sS'focus'
p2044
I2
sS'leads'
p2045
I3
sS'manager'
p2046
I1
sS'skin'
p2047
I3
sS'llc'
p2048
I1
sS'mill'
p2049
I1
sS'zone'
p2050
I2
sS'graph'
p2051
I1
sS'flash'
p2052
I4
sS'editors'
p2053
I4
sS'environment'
p2054
I2
sS'charge'
p2055
I11
sS'marks'
p2056
I1
sS'terror'
p2057
I1
sS'suffered'
p2058
I1
sS'automarken'
p2059
I1
sS'outposts'
p2060
I1
sS'md'
p2061
I1
sS'liability'
p2062
I1
sS'ideacentre'
p2063
I1
sS'mourn'
p2064
I1
sS'entries'
p2065
I1
sS'cook'
p2066
I1
sS'ma'
p2067
I1
sS'blast'
p2068
I1
sS'exact'
p2069
I1
sS'silcolease'
p2070
I1
sS'governments'
p2071
I1
sS'aggressively'
p2072
I1
sS'din'
p2073
I1
sS'respiratory'
p2074
I1
sS'clouds'
p2075
I1
sS'level'
p2076
I1
sS'die'
p2077
I3
sS'dig'
p2078
I1
sS'posts'
p2079
I3
sS'tkt'
p2080
I1
sS'keepers'
p2081
I1
sS'standards'
p2082
I3
sS'bikers'
p2083
I1
sS'item'
p2084
I1
sS'excellence'
p2085
I1
sS'denounces'
p2086
I1
sS'defaults'
p2087
I1
sS'team'
p2088
I6
sS'quick'
p2089
I1
sS'round'
p2090
I1
sS'fujian'
p2091
I1
sS'alfa'
p2092
I2
sS'dealing'
p2093
I1
sS'injunction'
p2094
I1
sS'discover'
p2095
I1
sS'cost'
p2096
I1
sS'talker'
p2097
I1
sS'documentwidth'
p2098
I1
sS'targets'
p2099
I1
sS'afghanistan'
p2100
I3
sS'adds'
p2101
I1
sS'contracted'
p2102
I1
sS'mall'
p2103
I1
sS'shares'
p2104
I9
sS'landslides'
p2105
I1
sS'current'
p2106
I2
sS'template'
p2107
I1
sS'badge'
p2108
I1
sS'era'
p2109
I1
sS'hairy'
p2110
I1
sS'supporting'
p2111
I3
sS'transportation'
p2112
I4
sS'guangzhou'
p2113
I3
sS'french'
p2114
I4
sS'understanding'
p2115
I1
sS'water'
p2116
I3
sS'kenyatta'
p2117
I1
sS'groups'
p2118
I1
sS'kilometers'
p2119
I1
sS'appears'
p2120
I1
sS'change'
p2121
I4
sS'wait'
p2122
I2
sS'box'
p2123
I1
sS'boy'
p2124
I1
sS'canadian'
p2125
I3
sS'institute'
p2126
I2
sS'dublin'
p2127
I1
sS'queue'
p2128
I2
sS'brazilian'
p2129
I2
sS'replycharacters'
p2130
I1
sS'history'
p2131
I4
sS'navigation'
p2132
I1
sS'easyjet'
p2133
I1
sS'love'
p2134
I1
sS'extra'
p2135
I1
sS'ipo'
p2136
I1
sS'italiano'
p2137
I1
sS'kayak'
p2138
I1
sS'licensing'
p2139
I1
sS'signaturehome'
p2140
I1
sS'crisis'
p2141
I3
sS'market'
p2142
I19
sS'hotels'
p2143
I1
sS'einpresswire'
p2144
I1
sS'allget'
p2145
I39
sS'angry'
p2146
I1
sS'give'
p2147
I1
sS'visit'
p2148
I1
sS'angela'
p2149
I1
sS'france'
p2150
I1
sS'papal'
p2151
I1
sS'live'
p2152
I7
sS'iphone'
p2153
I1
sS'https'
p2154
I1
sS'films'
p2155
I2
sS'pret'
p2156
I1
sS'australian'
p2157
I3
sS'saks'
p2158
I1
sS'sharing'
p2159
I1
sS'sessions'
p2160
I1
sS'refrain'
p2161
I1
sS'cases'
p2162
I1
sS'effort'
p2163
I1
sS'fly'
p2164
I1
sS'graphic'
p2165
I4
sS'tokyo'
p2166
I1
sS'alterra'
p2167
I1
sS'facilitating'
p2168
I2
sS'flu'
p2169
I2
sS'believes'
p2170
I3
sS'wallet'
p2171
I1
sS'printing'
p2172
I1
sS'cam'
p2173
I1
sS'growing'
p2174
I1
sS'lubricant'
p2175
I1
sS'esky'
p2176
I1
sS'marvell'
p2177
I1
sS'stream'
p2178
I1
sS'uruguay'
p2179
I1
sS'attribute'
p2180
I1
sS'chip'
p2181
I1
sS'newsletters'
p2182
I3
sS'topic'
p2183
I10
sS'contrave'
p2184
I2
sS'allowed'
p2185
I1
sS'dennis'
p2186
I1
sS'clothing'
p2187
I1
sS'discussion'
p2188
I4
sS'ping'
p2189
I1
sS'alzheimers'
p2190
I1
sS'chemical'
p2191
I2
sS'sunday'
p2192
I1
sS'parameter'
p2193
I1
sS'asml'
p2194
I1
sS'map'
p2195
I1
sS'product'
p2196
I3
sS'dive'
p2197
I2
sS'aol'
p2198
I19
sS'applications'
p2199
I6
sS'mac'
p2200
I1
sS'produce'
p2201
I1
sS'designed'
p2202
I4
sS'commit'
p2203
I1
sS'date'
p2204
I2
sS'wikileaks'
p2205
I1
sS'mak'
p2206
I2
sS'data'
p2207
I10
sS'grow'
p2208
I1
sS'mao'
p2209
I1
sS'man'
p2210
I3
sS'gorges'
p2211
I1
sS'csx'
p2212
I1
sS'natural'
p2213
I4
sS'sept'
p2214
I1
sS'futures'
p2215
I3
sS'thissign'
p2216
I4
sS'sk'
p2217
I1
sS'provide'
p2218
I1
sS'mango'
p2219
I3
sS'truck'
p2220
I1
sS'african'
p2221
I9
sS'invests'
p2222
I1
sS'talk'
p2223
I1
sS'exclusive'
p2224
I1
sS'tomlin'
p2225
I1
sS'words'
p2226
I1
sS'foreclosure'
p2227
I4
sS'blocker'
p2228
I1
sS'anthrazit'
p2229
I1
sS'logged'
p2230
I1
sS'argues'
p2231
I1
sS'statistical'
p2232
I1
sS'cuts'
p2233
I7
sS'irene'
p2234
I1
sS'birds'
p2235
I1
sS'police'
p2236
I5
sS'monitor'
p2237
I1
sS'acknowledge'
p2238
I1
sS'interesting'
p2239
I1
sS'jim'
p2240
I1
sS'platform'
p2241
I4
sS'window'
p2242
I4
sS'offers'
p2243
I3
sS'farmer'
p2244
I1
sS'tweets'
p2245
I1
sS'main'
p2246
I2
sS'texas'
p2247
I1
sS'kidron'
p2248
I1
sS'finance'
p2249
I4
sS'views'
p2250
I3
sS'smarter'
p2251
I1
sS'killer'
p2252
I1
sS'introduce'
p2253
I1
sS'nation'
p2254
I2
sS'answer'
p2255
I1
sS'taliban'
p2256
I1
sS'drilling'
p2257
I3
sS'safari'
p2258
I2
sS'half'
p2259
I19
sS'discuss'
p2260
I2
sS'permissions'
p2261
I1
sS'execute'
p2262
I1
sS'latinovoices'
p2263
I19
sS'tobacco'
p2264
I2
sS'james'
p2265
I1
sS'drop'
p2266
I1
sS'engadget'
p2267
I19
sS'boehner'
p2268
I1
sS'cadence'
p2269
I1
sS'rock'
p2270
I1
sS'instability'
p2271
I1
sS'amnesty'
p2272
I1
sS'quarter'
p2273
I5
sS'domain'
p2274
I1
sS'fired'
p2275
I1
sS'revised'
p2276
I1
sS'webinar'
p2277
I4
sS'hitmen'
p2278
I1
sS'challenges'
p2279
I2
sS'trademark'
p2280
I1
sS'eu'
p2281
I16
sS'ev'
p2282
I1
sS'disasters'
p2283
I2
sS'plans'
p2284
I7
sS'naked'
p2285
I2
sS'shown'
p2286
I1
sS'container'
p2287
I1
sS'webcasts'
p2288
I1
sS'space'
p2289
I2
sS'profit'
p2290
I2
sS'oklahoma'
p2291
I2
sS'factory'
p2292
I1
sS'increase'
p2293
I3
sS'bailout'
p2294
I1
sS'internet'
p2295
I8
sS'theory'
p2296
I1
sS'commons'
p2297
I3
sS'cari'
p2298
I1
sS'california'
p2299
I6
sS'yuri'
p2300
I1
sS'trademarks'
p2301
I1
sS'warrantless'
p2302
I1
sS'repurchase'
p2303
I1
sS'quits'
p2304
I1
sS'ore'
p2305
I1
sS'card'
p2306
I2
sS'care'
p2307
I4
sS'language'
p2308
I1
sS'ministry'
p2309
I2
sS'british'
p2310
I2
sS'initiate'
p2311
I1
sS'palaces'
p2312
I1
sS'massive'
p2313
I1
sS'turf'
p2314
I1
sS'littlefair'
p2315
I1
sS'xl'
p2316
I1
sS'revenue'
p2317
I1
sS'directly'
p2318
I1
sS'vote'
p2319
I2
sS'message'
p2320
I4
sS'open'
p2321
I4
sS'tomorrow'
p2322
I1
sS'engineer'
p2323
I1
sS'city'
p2324
I6
sS'santander'
p2325
I1
sS'bite'
p2326
I1
sS'aboutthe'
p2327
I1
sS'plastic'
p2328
I1
sS'returns'
p2329
I1
sS'bluestar'
p2330
I1
sS'walid'
p2331
I1
sS'fmc'
p2332
I1
sS'friend'
p2333
I2
sS'eyes'
p2334
I1
sS'taxation'
p2335
I1
sS'cops'
p2336
I1
sS'hillary'
p2337
I1
sS'hartford'
p2338
I1
sS'flexituff'
p2339
I1
sS'thai'
p2340
I1
sS'copy'
p2341
I2
sS'appreciated'
p2342
I1
sS'boulton'
p2343
I1
sS'connections'
p2344
I1
sS'television'
p2345
I1
sS'rugged'
p2346
I1
sS'require'
p2347
I2
sS'hsbc'
p2348
I1
sS'future'
p2349
I3
sS'accountorfill'
p2350
I1
sS'venture'
p2351
I1
sS'amid'
p2352
I2
sS'cards'
p2353
I2
sS'college'
p2354
I20
sS'browser'
p2355
I1
sS'talim'
p2356
I1
sS'san'
p2357
I1
sS'investors'
p2358
I2
sS'zumz'
p2359
I1
sS'medical'
p2360
I5
sS'sells'
p2361
I1
sS'sap'
p2362
I1
sS'nazi'
p2363
I1
sS'pageinsightserror'
p2364
I6
sS'speakers'
p2365
I2
sS'efficient'
p2366
I1
sS'veteran'
p2367
I1
sS'malta'
p2368
I1
sS'note'
p2369
I1
sS'sciences'
p2370
I1
sS'performance'
p2371
I2
sS'blunt'
p2372
I1
sS'channel'
p2373
I1
sS'multiple'
p2374
I3
sS'price'
p2375
I3
sS'falls'
p2376
I1
sS'visitors'
p2377
I1
sS'knee'
p2378
I1
sS'bombardier'
p2379
I1
sS'pages'
p2380
I23
sS'icon'
p2381
I1
sS'balilty'
p2382
I1
sS'tilikum'
p2383
I1
sS'sale'
p2384
I1
sS'spill'
p2385
I1
sS'federal'
p2386
I2
sS'professional'
p2387
I1
sS'filing'
p2388
I1
sS'laws'
p2389
I1
sS'event'
p2390
I6
sS'autoradioblende'
p2391
I1
sS'show'
p2392
I8
sS'german'
p2393
I2
sS'sites'
p2394
I2
sS'downpours'
p2395
I2
sS'elevate'
p2396
I1
sS'troy'
p2397
I24
sS'corner'
p2398
I1
sS'label'
p2399
I1
sS'ground'
p2400
I1
sS'helio'
p2401
I1
sS'upgrade'
p2402
I6
sS'villageby'
p2403
I1
sS'gulf'
p2404
I1
sS'title'
p2405
I1
sS'skits'
p2406
I1
sS'crime'
p2407
I19
sS'helix'
p2408
I1
sS'sierra'
p2409
I1
sS'awareness'
p2410
I2
sS'carolina'
p2411
I4
sS'merkel'
p2412
I1
sS'azerbaijan'
p2413
I1
sS'badgenominate'
p2414
I1
sS'tailor'
p2415
I1
sS'reveal'
p2416
I1
sS'resource'
p2417
I1
sS'resorts'
p2418
I1
sS'floods'
p2419
I8
sS'morning'
p2420
I1
sS'isclosed'
p2421
I1
sS'paper'
p2422
I3
sS'worries'
p2423
I1
sS'zahau'
p2424
I1
sS'discussing'
p2425
I1
sS'reveals'
p2426
I1
sS'concert'
p2427
I1
sS'keyboard'
p2428
I1
sS'seat'
p2429
I3
sS'famine'
p2430
I1
sS'milsatcom'
p2431
I1
sS'membersites'
p2432
I1
sS'surgery'
p2433
I1
sS'sport'
p2434
I2
sS'registering'
p2435
I1
sS'managing'
p2436
I1
sS'review'
p2437
I3
sS'outsourcing'
p2438
I1
sS'forecast'
p2439
I3
sS'weapons'
p2440
I1
sS'gaga'
p2441
I1
sS'import'
p2442
I3
sS'developer'
p2443
I2
sS'infrastructure'
p2444
I1
sS'august'
p2445
I5
sS'style'
p2446
I22
sS'wednesday'
p2447
I3
sS'blame'
p2448
I1
sS'gnss'
p2449
I1
sS'twitterwill'
p2450
I1
sS'volcker'
p2451
I1
sS'awards'
p2452
I1
sS'hurts'
p2453
I1
sS'comeback'
p2454
I1
sS'cities'
p2455
I1
sS'missions'
p2456
I1
sS'libya'
p2457
I3
sS'region'
p2458
I1
sS'berry'
p2459
I1
sS'pcs'
p2460
I1
sS'torrential'
p2461
I1
sS'pakistan'
p2462
I7
sS'googlebot'
p2463
I1
sS'jonssonking'
p2464
I1
sS'lace'
p2465
I1
sS'innovations'
p2466
I3
sS'mongolia'
p2467
I1
sS'learning'
p2468
I1
sS'article'
p2469
I3
sS'bokml'
p2470
I1
sS'cycling'
p2471
I1
sS'wobble'
p2472
I1
sS'airlines'
p2473
I1
sS'mark'
p2474
I2
sS'subscriber'
p2475
I1
sS'wherewereyou'
p2476
I1
sS'deadliest'
p2477
I1
sS'nikon'
p2478
I1
sS'photos'
p2479
I8
sS'geothermal'
p2480
I3
sS'minister'
p2481
I3
sS'case'
p2482
I3
sS'developing'
p2483
I1
sS'cash'
p2484
I1
sS'profiles'
p2485
I2
sS'offbeat'
p2486
I1
sS'scum'
p2487
I1
sS'landslide'
p2488
I1
sS'trader'
p2489
I1
sS'key'
p2490
I3
sS'franais'
p2491
I1
sS'commentcharacters'
p2492
I1
sS'affected'
p2493
I4
sS'missiles'
p2494
I1
sS'develop'
p2495
I1
sS'author'
p2496
I2
sS'magyar'
p2497
I1
sS'archive'
p2498
I3
sS'html'
p2499
I1
sS'pak'
p2500
I1
sS'breakdown'
p2501
I1
sS'aljazeeraenglish'
p2502
I1
sS'edged'
p2503
I1
sS'singapore'
p2504
I6
sS'drives'
p2505
I1
sS'director'
p2506
I1
sS'running'
p2507
I1
sS'advertisement'
p2508
I1
sS'changing'
p2509
I2
sS'renewable'
p2510
I1
sS'ogeechee'
p2511
I1
sS'charges'
p2512
I1
sS'markup'
p2513
I1
sS'caterpillar'
p2514
I1
sS'severe'
p2515
I1
sS'costs'
p2516
I1
sS'relief'
p2517
I1
sS'bundesarchiv'
p2518
I1
sS'bodies'
p2519
I1
sS'summer'
p2520
I1
sS'alerts'
p2521
I3
sS'money'
p2522
I4
sS'inregister'
p2523
I1
sS'gavin'
p2524
I1
sS'ngos'
p2525
I1
sS'recycled'
p2526
I1
sS'kill'
p2527
I2
sS'rousseff'
p2528
I2
sS'captured'
p2529
I3
sS'weekly'
p2530
I1
sS'announcement'
p2531
I1
sS'death'
p2532
I8
sS'ny'
p2533
I1
sS'bollywood'
p2534
I2
sS'geological'
p2535
I1
sS'blog'
p2536
I22
sS'bioenergy'
p2537
I1
sS'association'
p2538
I3
sS'realfeel'
p2539
I1
sS'potash'
p2540
I1
sS'poised'
p2541
I1
sS'tuesday'
p2542
I1
sS'careers'
p2543
I1
sS'schwarzenegger'
p2544
I1
sS'kills'
p2545
I1
sS'income'
p2546
I1
sS'early'
p2547
I1
sS'dari'
p2548
I1
sS'traffic'
p2549
I1
sS'schedules'
p2550
I1
sS'execution'
p2551
I2
sS'lady'
p2552
I2
sS'daewoo'
p2553
I2
sS'languagestimes'
p2554
I1
sS'mudslide'
p2555
I1
sS'ns'
p2556
I1
sS'nissan'
p2557
I3
sS'unsourced'
p2558
I1
sS'maker'
p2559
I5
sS'clay'
p2560
I1
sS'output'
p2561
I1
sS'shirky'
p2562
I1
sS'jews'
p2563
I1
sS'interdisciplinarity'
p2564
I2
sS'audiosocket'
p2565
I1
sS'pacific'
p2566
I1
sS'images'
p2567
I1
sS'divine'
p2568
I1
sS'organizing'
p2569
I1
sS'provided'
p2570
I2
sS'confirm'
p2571
I2
sS'sudan'
p2572
I2
sS'legal'
p2573
I3
sS'critical'
p2574
I2
sS'deficit'
p2575
I2
sS'optima'
p2576
I1
sS'biased'
p2577
I1
sS'assembly'
p2578
I2
sS'seconds'
p2579
I1
sS'dictators'
p2580
I1
sS'mediacorp'
p2581
I1
sS'monsoon'
p2582
I1
sS'pastors'
p2583
I1
sS'baffled'
p2584
I1
sS'stations'
p2585
I1
sS'island'
p2586
I2
sS'violence'
p2587
I1
sS'airline'
p2588
I1
sS'act'
p2589
I1
sS'road'
p2590
I3
sS'gansu'
p2591
I1
sS'outlook'
p2592
I2
sS'protests'
p2593
I1
sS'burning'
p2594
I1
sS'communication'
p2595
I4
sS'image'
p2596
I4
sS'references'
p2597
I1
sS'inbox'
p2598
I2
sS'parties'
p2599
I1
sS'adobe'
p2600
I3
sS'tropical'
p2601
I1
sS'log'
p2602
I3
sS'area'
p2603
I2
sS'alleged'
p2604
I1
sS'low'
p2605
I1
sS'stars'
p2606
I1
sS'house'
p2607
I7
sS'autoradios'
p2608
I1
sS'classifiedscopyright'
p2609
I1
sS'jul'
p2610
I2
sS'csm'
p2611
I1
sS'berschwemmungsopfer'
p2612
I1
sS'pericom'
p2613
I1
sS'mwst'
p2614
I2
sS'technologies'
p2615
I1
sS'promote'
p2616
I1
sS'october'
p2617
I1
sS'lionsgate'
p2618
I1
sS'chidambaram'
p2619
I1
sS'agree'
p2620
I1
sS'toilet'
p2621
I1
sS'taylor'
p2622
I1
sS'ad'
p2623
I1
sS'videos'
p2624
I5
sS'htmllink'
p2625
I1
sS'sales'
p2626
I3
sS'general'
p2627
I3
sS'ap'
p2628
I2
sS'britain'
p2629
I1
sS'file'
p2630
I3
sS'deed'
p2631
I1
sS'hospitals'
p2632
I2
sS'winaray'
p2633
I1
sS'film'
p2634
I2
sS'istanbul'
p2635
I1
sS'hybrid'
p2636
I1
sS'saturday'
p2637
I3
sS'nasa'
p2638
I1
sS'oxfam'
p2639
I1
sS'congress'
p2640
I1
sS'separate'
p2641
I2
sS'nederlands'
p2642
I1
sS'peak'
p2643
I1
sS'stocks'
p2644
I4
sS'calls'
p2645
I1
sS'invest'
p2646
I2
sS'cpc'
p2647
I1
sS'maliciously'
p2648
I2
sS'missouri'
p2649
I1
sS'apparel'
p2650
I1
sS'licensor'
p2651
I1
sS'resolution'
p2652
I1
sS'original'
p2653
I2
sS'bmw'
p2654
I3
sS'forget'
p2655
I1
sS'founder'
p2656
I2
sS'byindiatimesabout'
p2657
I1
sS'sms'
p2658
I2
sS'pte'
p2659
I1
sS'dollar'
p2660
I4
sS'month'
p2661
I1
sS'thoughtful'
p2662
I1
sS'browsers'
p2663
I1
sS'tours'
p2664
I2
sS'pty'
p2665
I1
sS'talks'
p2666
I4
sS'follow'
p2667
I7
sS'settlement'
p2668
I1
sS'religious'
p2669
I4
sS'children'
p2670
I6
sS'kutcher'
p2671
I19
sS'synthetic'
p2672
I1
sS'semiconductor'
p2673
I2
sS'apartment'
p2674
I2
sS'barrick'
p2675
I2
sS'nears'
p2676
I2
sS'participants'
p2677
I1
sS'alllikespolitics'
p2678
I1
sS'multiview'
p2679
I1
sS'tm'
p2680
I1
sS'ti'
p2681
I1
sS'lawmakers'
p2682
I1
sS'crest'
p2683
I2
sS'mandela'
p2684
I1
sS'khmer'
p2685
I1
sS'attribution'
p2686
I2
sS'returned'
p2687
I1
sS'song'
p2688
I1
sS'infringement'
p2689
I1
sS'horror'
p2690
I2
sS'icap'
p2691
I1
sS'rogue'
p2692
I1
sS'fan'
p2693
I1
sS'mps'
p2694
I3
sS'decide'
p2695
I1
sS'fall'
p2696
I6
sS'labor'
p2697
I2
sS'faa'
p2698
I1
sS'ticker'
p2699
I1
sS'exclusives'
p2700
I1
sS'cable'
p2701
I1
sS'stimulus'
p2702
I1
sS'ageing'
p2703
I1
sS'celebrity'
p2704
I19
sS'applicable'
p2705
I2
sS'gop'
p2706
I26
sS'scrapping'
p2707
I1
sS'saudi'
p2708
I1
sS'study'
p2709
I6
sS'mtvu'
p2710
I1
sS'cookies'
p2711
I1
sS'employing'
p2712
I1
sS'tel'
p2713
I1
sS'ten'
p2714
I1
sS'foundation'
p2715
I2
sS'tea'
p2716
I5
sS'past'
p2717
I1
sS'byrnes'
p2718
I1
sS'rate'
p2719
I4
sS'design'
p2720
I5
sS'arnold'
p2721
I1
sS'lawyer'
p2722
I1
sS'query'
p2723
I1
sS'casual'
p2724
I1
sS'aba'
p2725
I1
sS'sue'
p2726
I3
sS'defence'
p2727
I1
sS'richard'
p2728
I1
sS'investing'
p2729
I7
sS'anniversary'
p2730
I1
sS'testsieger'
p2731
I1
sS'monitorpatrik'
p2732
I1
sS'abu'
p2733
I1
sS'learned'
p2734
I1
sS'public'
p2735
I4
sS'full'
p2736
I5
sS'christian'
p2737
I3
sS'tags'
p2738
I1
sS'modify'
p2739
I1
sS'overactive'
p2740
I1
sS'hours'
p2741
I2
sS'voanews'
p2742
I1
sS'operating'
p2743
I2
sS'palin'
p2744
I3
sS'strong'
p2745
I2
sS'valu'
p2746
I1
sS'publishes'
p2747
I1
sS'publisher'
p2748
I2
sS'bible'
p2749
I2
sS'ahead'
p2750
I1
sS'compliance'
p2751
I1
sS'experience'
p2752
I2
sS'pics'
p2753
I1
sS'soldier'
p2754
I1
sS'airport'
p2755
I1
sS'advertising'
p2756
I3
sS'published'
p2757
I2
sS'action'
p2758
I5
sS'options'
p2759
I1
sS'trainer'
p2760
I1
sS'family'
p2761
I2
sS'semiconductors'
p2762
I1
sS'likeboxthe'
p2763
I1
sS'cosmetic'
p2764
I1
sS'aspi'
p2765
I3
sS'aimed'
p2766
I1
sS'vit'
p2767
I1
sS'select'
p2768
I2
sS'suspensions'
p2769
I1
sS'sanjay'
p2770
I1
sS'takes'
p2771
I2
sS'petroleum'
p2772
I2
sS'finally'
p2773
I2
sS'archives'
p2774
I1
sS'zzgl'
p2775
I2
sS'injury'
p2776
I1
sS'markets'
p2777
I10
sS'minor'
p2778
I1
sS'extrasslideshowdata'
p2779
I1
sS'flat'
p2780
I1
sS'israel'
p2781
I2
sS'durch'
p2782
I1
sS'mozilla'
p2783
I1
sS'atlas'
p2784
I1
sS'flag'
p2785
I1
sS'morethe'
p2786
I1
sS'webmaster'
p2787
I1
sS'displayedplease'
p2788
I1
sS'hour'
p2789
I1
sS'science'
p2790
I4
sS'remain'
p2791
I1
sS'resources'
p2792
I2
sS'den'
p2793
I1
sS'learn'
p2794
I1
sS'strategies'
p2795
I1
sS'male'
p2796
I2
sS'pick'
p2797
I1
sS'compare'
p2798
I1
sS'scam'
p2799
I1
sS'netbootcd'
p2800
I1
sS'suggestions'
p2801
I2
sS'collision'
p2802
I1
sS'rainstorm'
p2803
I1
sS'pong'
p2804
I1
sS'condemn'
p2805
I1
sS'concept'
p2806
I3
sS'huge'
p2807
I2
sS'court'
p2808
I4
sS'zhang'
p2809
I1
sS'magpie'
p2810
I1
sS'maps'
p2811
I2
sS'earnings'
p2812
I3
sS'automotive'
p2813
I5
sS'dailymotionvideoscategoriescommunitycontestsfamily'
p2814
I1
sS'fr'
p2815
I2
sS'burhanuddin'
p2816
I1
sS'intended'
p2817
I2
sS'fy'
p2818
I1
sS'advice'
p2819
I3
sS'alibaba'
p2820
I2
sS'triumphs'
p2821
I1
sS'blood'
p2822
I1
sS'coming'
p2823
I3
sS'invasion'
p2824
I1
sS'ethics'
p2825
I1
sS'lanka'
p2826
I2
sS'fuzzibunz'
p2827
I1
sS'short'
p2828
I2
sS'coal'
p2829
I1
sS'nvidia'
p2830
I1
sS'banks'
p2831
I5
sS'redirecting'
p2832
I1
sS'playing'
p2833
I1
sS'mexican'
p2834
I2
sS'hyderabad'
p2835
I1
sS'mission'
p2836
I1
sS'indiaindiatimes'
p2837
I1
sS'disabled'
p2838
I2
sS'radar'
p2839
I2
sS'embassy'
p2840
I2
sS'scott'
p2841
I1
sS'committee'
p2842
I2
sS'signs'
p2843
I2
sS'urdu'
p2844
I1
sS'hell'
p2845
I2
sS'mckinny'
p2846
I1
sS'astrology'
p2847
I1
sS'indiaindiatimesweb'
p2848
I1
sS'alle'
p2849
I1
sS'fined'
p2850
I2
sS'bangla'
p2851
I1
sS'late'
p2852
I1
sS'detected'
p2853
I1
sS'reuters'
p2854
I2
sS'systems'
p2855
I6
sS'mcilroy'
p2856
I1
sS'good'
p2857
I1
sS'commentemail'
p2858
I1
sS'ceo'
p2859
I7
sS'starbucks'
p2860
I1
sS'compound'
p2861
I1
sS'communities'
p2862
I1
sS'nowzoomyou'
p2863
I1
sS'android'
p2864
I1
sS'bigger'
p2865
I1
sS'mystery'
p2866
I1
sS'holiday'
p2867
I1
sS'buttonfollow'
p2868
I1
sS'token'
p2869
I1
sS'mastercard'
p2870
I1
sS'aligns'
p2871
I1
sS'found'
p2872
I2
sS'quintuple'
p2873
I1
sS'referred'
p2874
I1
sS'heavy'
p2875
I4
sS'mental'
p2876
I2
sS'generation'
p2877
I2
sS'jaws'
p2878
I1
sS'fish'
p2879
I1
sS'hard'
p2880
I1
sS'reduce'
p2881
I1
sS'idea'
p2882
I1
sS'mackenzie'
p2883
I1
sS'connect'
p2884
I20
sS'todd'
p2885
I1
sS'quantum'
p2886
I1
sS'advertisers'
p2887
I1
sS'gagana'
p2888
I1
sS'leave'
p2889
I2
sS'perry'
p2890
I5
sS'nepal'
p2891
I1
sS'publish'
p2892
I1
sS'faqs'
p2893
I1
sS'tomassive'
p2894
I1
sS'hill'
p2895
I20
sS'ministerial'
p2896
I1
sS'eliquis'
p2897
I1
sS'rabbani'
p2898
I1
sS'friday'
p2899
I2
sS'sonsini'
p2900
I1
sS'houses'
p2901
I2
sS'reason'
p2902
I1
sS'ase'
p2903
I1
sS'basa'
p2904
I1
sS'rises'
p2905
I1
sS'retained'
p2906
I2
sS'launch'
p2907
I6
sS'americas'
p2908
I2
sS'american'
p2909
I9
sS'elective'
p2910
I1
sS'threat'
p2911
I1
sS'divorce'
p2912
I2
sS'integra'
p2913
I1
sS'feed'
p2914
I5
sS'copper'
p2915
I1
sS'major'
p2916
I3
sS'usda'
p2917
I1
sS'encoding'
p2918
I1
sS'nach'
p2919
I1
sS'fees'
p2920
I2
sS'carter'
p2921
I1
sS'passes'
p2922
I2
sS'story'
p2923
I3
sS'benedict'
p2924
I1
sS'leading'
p2925
I1
sS'tata'
p2926
I1
sS'checkpoint'
p2927
I1
sS'storm'
p2928
I1
sS'store'
p2929
I1
sS'headache'
p2930
I1
sS'saint'
p2931
I1
sS'hotel'
p2932
I1
sS'park'
p2933
I2
sS'chair'
p2934
I1
sS'typhoon'
p2935
I3
sS'licensed'
p2936
I1
sS'financing'
p2937
I1
sS'slovenina'
p2938
I1
sS'zarlink'
p2939
I1
sS'dikes'
p2940
I1
sS'emirates'
p2941
I1
sS'kindle'
p2942
I1
sS'larkin'
p2943
I1
sS'cloudy'
p2944
I1
sS'deutsches'
p2945
I1
sS'biggest'
p2946
I2
sS'download'
p2947
I1
sS'alike'
p2948
I1
sS'sell'
p2949
I1
sS'mountain'
p2950
I2
sS'dancing'
p2951
I1
sS'trip'
p2952
I1
sS'cave'
p2953
I1
sS'port'
p2954
I1
sS'internal'
p2955
I1
sS'chairman'
p2956
I1
sS'kleinman'
p2957
I2
sS'play'
p2958
I1
sS'electric'
p2959
I4
sS'serena'
p2960
I1
sS'cargo'
p2961
I1
sS'chars'
p2962
I1
sS'sets'
p2963
I2
sS'reach'
p2964
I4
sS'cigarette'
p2965
I1
sS'sponsored'
p2966
I1
sS'kay'
p2967
I1
sS'kb'
p2968
I1
sS'mobile'
p2969
I8
sS'cover'
p2970
I1
sS'clean'
p2971
I3
sS'saloon'
p2972
I1
sS'institutions'
p2973
I2
sS'sector'
p2974
I1
sS'wikinews'
p2975
I2
sS'thomas'
p2976
I1
sS'golf'
p2977
I3
sS'rebels'
p2978
I2
sS'gold'
p2979
I4
sS'cdc'
p2980
I2
sS'indiapowered'
p2981
I1
sS'businesses'
p2982
I5
sS'facebookpost'
p2983
I1
sS'headlines'
p2984
I3
sS'fine'
p2985
I1
sS'find'
p2986
I4
sS'unfuckable'
p2987
I1
sS'impact'
p2988
I20
sS'access'
p2989
I3
sS'giant'
p2990
I1
sS'northern'
p2991
I5
sS'penalty'
p2992
I2
sS'flights'
p2993
I1
sS'indian'
p2994
I2
sS'factor'
p2995
I1
sS'moses'
p2996
I1
sS'columns'
p2997
I3
sS'hip'
p2998
I1
sS'executive'
p2999
I1
sS'founding'
p3000
I1
sS'gains'
p3001
I1
sS'hiv'
p3002
I1
sS'permission'
p3003
I1
sS'sights'
p3004
I1
sS'express'
p3005
I1
sS'fastest'
p3006
I1
sS'silk'
p3007
I2
sS'motorcycles'
p3008
I1
sS'celebrates'
p3009
I2
sS'medicines'
p3010
I1
sS'banking'
p3011
I1
sS'investigate'
p3012
I1
sS'activity'
p3013
I3
sS'river'
p3014
I4
sS'set'
p3015
I5
sS'art'
p3016
I1
sS'backtrack'
p3017
I1
sS'jada'
p3018
I1
sS'sex'
p3019
I2
sS'individual'
p3020
I2
sS'migration'
p3021
I1
sS'sea'
p3022
I1
sS'jury'
p3023
I1
sS'arm'
p3024
I1
sS'autoradio'
p3025
I1
sS'shower'
p3026
I1
sS'lauren'
p3027
I1
sS'chinas'
p3028
I1
sS'visiting'
p3029
I1
sS'guinea'
p3030
I1
sS'libraries'
p3031
I1
sS'pickup'
p3032
I2
sS'barbados'
p3033
I1
sS'marriage'
p3034
I1
sS'conditions'
p3035
I5
sS'korea'
p3036
I1
sS'responses'
p3037
I1
sS'rover'
p3038
I1
sS'sole'
p3039
I2
sS'disallow'
p3040
I1
sS'aircraft'
p3041
I1
sS'coffee'
p3042
I1
sS'dividend'
p3043
I1
sS'autolautsprecher'
p3044
I1
sS'license'
p3045
I4
sS'restaurant'
p3046
I1
sS'annual'
p3047
I6
sS'nanotech'
p3048
I1
sS'foreign'
p3049
I6
sS'connection'
p3050
I1
sS'context'
p3051
I1
sS'finds'
p3052
I1
sS'insurance'
p3053
I8
sS'bridge'
p3054
I2
sS'simple'
p3055
I4
sS'smith'
p3056
I1
sS'address'
p3057
I2
sS'community'
p3058
I4
sS'improper'
p3059
I1
sS'shutdown'
p3060
I2
sS'church'
p3061
I4
sS'raw'
p3062
I2
sS'decline'
p3063
I1
sS'brics'
p3064
I2
sS'raise'
p3065
I3
sS'create'
p3066
I6
sS'political'
p3067
I9
sS'portugus'
p3068
I3
sS'pc'
p3069
I1
sS'pg'
p3070
I1
sS'ireland'
p3071
I3
sS'aruba'
p3072
I1
sS'meeting'
p3073
I4
sS'empty'
p3074
I1
sS'gay'
p3075
I1
sS'fire'
p3076
I1
sS'dropout'
p3077
I1
sS'mine'
p3078
I2
sS'fund'
p3079
I3
sS'lives'
p3080
I2
sS'demand'
p3081
I1
sS'pact'
p3082
I1
sS'bild'
p3083
I1
sS'talking'
p3084
I1
sS'socialist'
p3085
I1
sS'bill'
p3086
I5
sS'governor'
p3087
I1
sS'healthy'
p3088
I19
sS'smart'
p3089
I3
sS'fleet'
p3090
I2
sS'guide'
p3091
I1
sS'miles'
p3092
I1
sS'mailitimes'
p3093
I1
sS'voa'
p3094
I1
sS'employees'
p3095
I1
sS'voters'
p3096
I1
sS'vom'
p3097
I1
sS'von'
p3098
I1
sS'motors'
p3099
I1
sS'rio'
p3100
I1
sS'ready'
p3101
I2
sS'pagecreate'
p3102
I1
sS'audi'
p3103
I1
sS'aches'
p3104
I1
sS'provisions'
p3105
I1
sS'fibers'
p3106
I1
sS'migraine'
p3107
I1
sS'textile'
p3108
I1
sS'dhabi'
p3109
I1
sS'lawyers'
p3110
I1
sS'affairs'
p3111
I2
sS'blair'
p3112
I1
sS'levels'
p3113
I1
sS'moving'
p3114
I1
sS'purpose'
p3115
I2
sS'euro'
p3116
I4
sS'messagetime'
p3117
I1
sS'poland'
p3118
I1
sS'analysis'
p3119
I1
sS'picks'
p3120
I9
sS'gaddafi'
p3121
I1
sS'organization'
p3122
I1
sS'prevention'
p3123
I1
sS'seminarby'
p3124
I1
sS'shareswashington'
p3125
I1
sS'macedonian'
p3126
I1
sS'questions'
p3127
I3
sS'alternative'
p3128
I2
sS'summaries'
p3129
I1
sS'apple'
p3130
I2
sS'hotpot'
p3131
I1
sS'tables'
p3132
I1
sS'cut'
p3133
I1
sS'tablet'
p3134
I1
sS'cup'
p3135
I2
sS'recipient'
p3136
I2
sS'workers'
p3137
I2
sS'barack'
p3138
I1
sS'governmental'
p3139
I1
sS'hyperlinks'
p3140
I1
sS'location'
p3141
I1
sS'remaining'
p3142
I1
sS'build'
p3143
I1
sS'victims'
p3144
I1
sS'format'
p3145
I4
sS'big'
p3146
I3
sS'couple'
p3147
I1
sS'results'
p3148
I3
sS'matters'
p3149
I1
sS'game'
p3150
I1
sS'boost'
p3151
I1
sS'biz'
p3152
I1
sS'clemency'
p3153
I19
sS'commas'
p3154
I2
sS'bis'
p3155
I1
sS'projects'
p3156
I1
sS'miptec'
p3157
I1
sS'toyota'
p3158
I5
sS'rainstorms'
p3159
I1
sS'collect'
p3160
I1
sS'arthur'
p3161
I1
sS'individuals'
p3162
I1
sS'premium'
p3163
I2
sS'google'
p3164
I5
sS'gardening'
p3165
I1
sS'senate'
p3166
I2
sS'hinten'
p3167
I1
sS'back'
p3168
I5
sS'economic'
p3169
I7
sS'pricing'
p3170
I2
sS'zhouqu'
p3171
I1
sS'newsletter'
p3172
I3
sS'delivered'
p3173
I3
sS'pet'
p3174
I1
sS'singing'
p3175
I1
sS'decision'
p3176
I2
sS'warnings'
p3177
I2
sS'integration'
p3178
I1
sS'saab'
p3179
I3
sS'run'
p3180
I1
sS'lose'
p3181
I1
sS'continuing'
p3182
I1
sS'fed'
p3183
I4
sS'outdoor'
p3184
I2
sS'bp'
p3185
I1
sS'optionsconnect'
p3186
I1
sS'roundup'
p3187
I1
sS'faith'
p3188
I1
sS'pipeline'
p3189
I3
sS'conrad'
p3190
I1
sS'pfizer'
p3191
I1
sS'pains'
p3192
I1
sS'livingsocial'
p3193
I1
sS'dwight'
p3194
I1
sS'block'
p3195
I1
sS'pollution'
p3196
I1
sS'disclosure'
p3197
I1
sS'colorado'
p3198
I4
sS'ethnic'
p3199
I1
sS'hometown'
p3200
I1
sS'ahmadinejad'
p3201
I1
sS'pentagon'
p3202
I1
sS'bankruptcy'
p3203
I1
sS'computer'
p3204
I2
sS'spam'
p3205
I2
sS'spending'
p3206
I1
sS'capsizes'
p3207
I1
sS'long'
p3208
I1
sS'accountability'
p3209
I1
sS'vendors'
p3210
I1
sS'shel'
p3211
I1
sS'files'
p3212
I1
sS'peru'
p3213
I1
sS'jewish'
p3214
I1
sS'registered'
p3215
I1
sS'screven'
p3216
I1
sS'specialty'
p3217
I1
sS'link'
p3218
I2
sS'russian'
p3219
I1
sS'foursquarecreate'
p3220
I1
sS'line'
p3221
I2
sS'posted'
p3222
I2
sS'info'
p3223
I2
sS'originals'
p3224
I1
sS'windows'
p3225
I4
sS'called'
p3226
I1
sS'nationalist'
p3227
I1
sS'soars'
p3228
I1
sS'doclose'
p3229
I1
sS'chan'
p3230
I1
sS'metals'
p3231
I1
sS'warning'
p3232
I1
sS'chat'
p3233
I1
sS'cotton'
p3234
I1
sS'rains'
p3235
I1
sS'pat'
p3236
I1
sS'fears'
p3237
I3
sS'application'
p3238
I4
sS'recognition'
p3239
I1
sS'radioblenden'
p3240
I1
sS'emailsend'
p3241
I1
sS'users'
p3242
I2
sS'thefts'
p3243
I1
sS'srpski'
p3244
I1
sS'william'
p3245
I1
sS'drag'
p3246
I1
sS'oregon'
p3247
I2
sS'eval'
p3248
I1
sS'prepares'
p3249
I1
sS'aggregated'
p3250
I1
sS'ago'
p3251
I2
sS'land'
p3252
I1
sS'fighter'
p3253
I1
sS'vice'
p3254
I2
sS'rescued'
p3255
I1
sS'vehicles'
p3256
I1
sS'youtube'
p3257
I3
sS'microsoft'
p3258
I2
sS'summit'
p3259
I2
sS'rallies'
p3260
I1
sS'fresh'
p3261
I1
sS'zagg'
p3262
I1
sS'moveit'
p3263
I1
sS'speednews'
p3264
I1
sS'gt'
p3265
I1
sS'nowindiatimes'
p3266
I1
sS'receiver'
p3267
I1
sS'tokelau'
p3268
I1
sS'amplifies'
p3269
I1
sS'ge'
p3270
I1
sS'edt'
p3271
I1
sS'gossip'
p3272
I1
sS'gm'
p3273
I5
sS'issues'
p3274
I6
sS'contacted'
p3275
I1
sS'monaco'
p3276
I1
sS'disposal'
p3277
I1
sS'description'
p3278
I1
sS'young'
p3279
I1
sS'send'
p3280
I4
sS'outlooks'
p3281
I1
sS'helps'
p3282
I2
sS'soiree'
p3283
I1
sS'quarterly'
p3284
I2
sS'suite'
p3285
I1
sS'include'
p3286
I1
sS'dramatically'
p3287
I1
sS'scarlett'
p3288
I1
sS'lunar'
p3289
I1
sS'probe'
p3290
I1
sS'garden'
p3291
I3
sS'ophelia'
p3292
I1
sS'maas'
p3293
I1
sS'migrants'
p3294
I2
sS'zhejiang'
p3295
I1
sS'nanomaterials'
p3296
I1
sS'surgeon'
p3297
I1
sS'continued'
p3298
I1
sS'categories'
p3299
I2
sS'timely'
p3300
I1
sS'stiff'
p3301
I2
sS'gender'
p3302
I1
sS'button'
p3303
I2
sS'michael'
p3304
I2
sS'deals'
p3305
I2
sS'race'
p3306
I1
sS'obesity'
p3307
I2
sS'challenge'
p3308
I1
sS'disclaimer'
p3309
I1
sS'logistics'
p3310
I3
sS'freight'
p3311
I1
sS'abortion'
p3312
I1
sS'participate'
p3313
I1
sS'sensation'
p3314
I1
sS'crop'
p3315
I1
sS'rivers'
p3316
I1
sS'jump'
p3317
I1
sS'picked'
p3318
I2
sS'plead'
p3319
I1
sS'licenses'
p3320
I1
sS'dynamics'
p3321
I1
sS'growers'
p3322
I1
sS'honors'
p3323
I1
sS'onsign'
p3324
I1
sS'universities'
p3325
I1
sS'index'
p3326
I11
sS'plays'
p3327
I1
sS'chicago'
p3328
I20
sS'cell'
p3329
I1
sS'consistently'
p3330
I1
sS'accuweather'
p3331
I2
sS'microprocessor'
p3332
I1
sS'capital'
p3333
I1
sS'firms'
p3334
I3
sS'body'
p3335
I19
sS'led'
p3336
I1
sS'stance'
p3337
I1
sS'exchange'
p3338
I1
sS'commercial'
p3339
I3
sS'fla'
p3340
I1
sS'objects'
p3341
I1
sS'poverty'
p3342
I1
sS'great'
p3343
I1
sS'talent'
p3344
I1
sS'copyright'
p3345
I4
sS'joystiq'
p3346
I19
sS'receive'
p3347
I4
sS'leaving'
p3348
I1
sS'analitica'
p3349
I2
sS'opinion'
p3350
I4
sS'gene'
p3351
I3
sS'makes'
p3352
I3
sS'delays'
p3353
I1
sS'patents'
p3354
I1
sS'holmes'
p3355
I1
sS'examining'
p3356
I1
sS'named'
p3357
I3
sS'firefox'
p3358
I2
sS'addresses'
p3359
I2
sS'deputy'
p3360
I1
sS'apr'
p3361
I1
sS'win'
p3362
I1
sS'app'
p3363
I3
sS'manage'
p3364
I1
sS'supergrid'
p3365
I2
sS'homepage'
p3366
I2
sS'api'
p3367
I1
sS'sgl'
p3368
I1
sS'motor'
p3369
I2
sS'festivals'
p3370
I1
sS'tools'
p3371
I1
sS'cloud'
p3372
I2
sS'confidence'
p3373
I1
sS'andreas'
p3374
I1
sS'gere'
p3375
I1
sS'illegal'
p3376
I1
sS'camera'
p3377
I1
sS'chu'
p3378
I1
sS'vehicle'
p3379
I1
sS'congratulates'
p3380
I1
sS'edgewood'
p3381
I1
sS'parliament'
p3382
I1
sS'journalists'
p3383
I3
sS'started'
p3384
I1
sS'silberalfa'
p3385
I1
sS'appointed'
p3386
I1
sS'subscription'
p3387
I1
sS'customer'
p3388
I2
sS'account'
p3389
I2
sS'ride'
p3390
I1
sS'package'
p3391
I1
sS'recession'
p3392
I2
sS'reserves'
p3393
I1
sS'nixes'
p3394
I1
sS'microsemi'
p3395
I1
sS'drill'
p3396
I1
sS'meet'
p3397
I1
sS'drops'
p3398
I4
sS'control'
p3399
I4
sS'beijing'
p3400
I2
sS'guidechina'
p3401
I1
sS'tap'
p3402
I7
sS'process'
p3403
I2
sS'halloween'
p3404
I1
sS'purposes'
p3405
I1
sS'promotional'
p3406
I1
sS'high'
p3407
I3
sS'tag'
p3408
I1
sS'hilton'
p3409
I1
sS'recognized'
p3410
I1
sS'tab'
p3411
I1
sS'publicity'
p3412
I1
sS'voice'
p3413
I1
sS'hereinafter'
p3414
I1
sS'native'
p3415
I1
sS'chevrolet'
p3416
I2
sS'immigrants'
p3417
I1
sS'stewardship'
p3418
I1
sS'traders'
p3419
I1
sS'winners'
p3420
I1
sS'sie'
p3421
I1
sS'comedy'
p3422
I1
sS'afp'
p3423
I1
sS'memoir'
p3424
I1
sS'stock'
p3425
I5
sS'profile'
p3426
I1
sS'farm'
p3427
I2
sS'watch'
p3428
I1
sS'highs'
p3429
I1
sS'underway'
p3430
I1
sS'collection'
p3431
I4
sS'abuse'
p3432
I1
sS'leisure'
p3433
I1
sS'seaworld'
p3434
I1
sS'ties'
p3435
I1
sS'prostate'
p3436
I3
sS'eritrea'
p3437
I1
sS'boeing'
p3438
I1
sS'displayedwill'
p3439
I1
sS'robot'
p3440
I2
sS'commodities'
p3441
I1
sS'chief'
p3442
I2
sS'advocates'
p3443
I1
sS'divided'
p3444
I1
sS'breast'
p3445
I2
sS'houston'
p3446
I1
sS'nhuatlahtlli'
p3447
I1
sS'move'
p3448
I3
sS'sikkimtn'
p3449
I1
sS'including'
p3450
I2
sS'motorcycle'
p3451
I1
sS'quake'
p3452
I2
sS'agricultural'
p3453
I1
sS'badges'
p3454
I1
sS'warren'
p3455
I1
sS'industries'
p3456
I1
sS'spotify'
p3457
I1
sS'reprint'
p3458
I1
sS'responsebatch'
p3459
I1
sS'lithuania'
p3460
I1
sS'winning'
p3461
I2
sS'usaid'
p3462
I1
sS'degrees'
p3463
I1
sS'choose'
p3464
I3
sS'puerto'
p3465
I1
sS'imbalance'
p3466
I1
sS'techcrunch'
p3467
I19
sS'eur'
p3468
I1
sS'crash'
p3469
I1
sS'auto'
p3470
I5
sS'usterms'
p3471
I1
sS'toshiba'
p3472
I1
sS'das'
p3473
I1
sS'front'
p3474
I21
sS'republican'
p3475
I1
sS'flee'
p3476
I1
sS'handy'
p3477
I1
sS'presidential'
p3478
I5
sS'worlds'
p3479
I1
sS'edit'
p3480
I3
sS'warned'
p3481
I1
sS'university'
p3482
I4
sS'countries'
p3483
I4
sS'unpredictable'
p3484
I1
sS'doppel'
p3485
I1
sS'warner'
p3486
I1
sS'studios'
p3487
I1
sS'sando'
p3488
I1
sS'liaoning'
p3489
I1
sS'related'
p3490
I1
sS'books'
p3491
I21
sS'measure'
p3492
I1
sS'special'
p3493
I5
sS'category'
p3494
I1
sS'integrates'
p3495
I1
sS'chaos'
p3496
I1
sS'werden'
p3497
I1
sS'activist'
p3498
I1
sS'arkansas'
p3499
I1
sS'evacuation'
p3500
I1
sS'electronics'
p3501
I2
sS'calif'
p3502
I1
sS'math'
p3503
I1
sS'disclose'
p3504
I1
sS'await'
p3505
I1
sS'eco'
p3506
I1
sS'recommendations'
p3507
I1
sS'payroll'
p3508
I1
sS'regulators'
p3509
I1
sS'hazard'
p3510
I1
sS'regulatory'
p3511
I1
sS'ipos'
p3512
I2
sS'islamic'
p3513
I1
sS'florida'
p3514
I4
sS'timer'
p3515
I1
sS'times'
p3516
I6
sS'pigs'
p3517
I1
sS'davis'
p3518
I5
sS'retail'
p3519
I1
sS'museum'
p3520
I1
sS'berlusconi'
p3521
I1
sS'plastics'
p3522
I1
sS'isbn'
p3523
I1
sS'dounique'
p3524
I1
sS'ihs'
p3525
I1
sS'shenyang'
p3526
I1
sS'owned'
p3527
I1
sS'strategic'
p3528
I1
sS'hugo'
p3529
I1
sS'drastic'
p3530
I1
sS'reached'
p3531
I1
sS'destinations'
p3532
I1
sS'playlist'
p3533
I2
sS'festival'
p3534
I2
sS'system'
p3535
I5
sS'relations'
p3536
I1
sS'inmate'
p3537
I1
sS'attack'
p3538
I4
sS'palestine'
p3539
I1
sS'jellyfish'
p3540
I1
sS'tourists'
p3541
I1
sS'evacuated'
p3542
I1
sS'stck'
p3543
I1
sS'acquire'
p3544
I1
sS'debate'
p3545
I7
sS'environmental'
p3546
I1
sS'chemicals'
p3547
I1
sS'july'
p3548
I2
sS'pageinsightserroryou'
p3549
I7
sS'petrobras'
p3550
I2
sS'ipad'
p3551
I1
sS'warfare'
p3552
I1
sS'suomi'
p3553
I1
sS'submitted'
p3554
I2
sS'patients'
p3555
I3
sS'vorne'
p3556
I1
sS'providing'
p3557
I1
sS'steep'
p3558
I2
sS'exhibit'
p3559
I1
sS'showbiz'
p3560
I1
sS'plaintext'
p3561
I1
sS'lines'
p3562
I1
sS'partnership'
p3563
I1
sS'versandkosteninkl'
p3564
I2
sS'close'
p3565
I3
sS'sky'
p3566
I3
sS'border'
p3567
I1
sS'linked'
p3568
I2
sS'catholic'
p3569
I1
sS'dallas'
p3570
I1
sS'allergies'
p3571
I1
sS'agency'
p3572
I1
sS'espaol'
p3573
I1
sS'anglo'
p3574
I1
sS'klasse'
p3575
I1
sS'bus'
p3576
I1
sS'accuracy'
p3577
I1
sS'parenting'
p3578
I1
sS'class'
p3579
I1
sS'cellphone'
p3580
I1
sS'barista'
p3581
I1
sS'breach'
p3582
I2
sS'stranded'
p3583
I1
sS'request'
p3584
I3
sS'disease'
p3585
I2
sS'lietuvi'
p3586
I1
sS'movie'
p3587
I1
sS'bret'
p3588
I1
sS'fact'
p3589
I2
sS'affair'
p3590
I1
sS'selection'
p3591
I3
sS'nanotubes'
p3592
I1
sS'text'
p3593
I4
sS'supported'
p3594
I1
sS'spanking'
p3595
I1
sS'democrats'
p3596
I1
sS'portfolio'
p3597
I1
sS'pleased'
p3598
I2
sS'decade'
p3599
I1
sS'staff'
p3600
I1
sS'partners'
p3601
I3
sS'forex'
p3602
I2
sS'based'
p3603
I1
sS'hutong'
p3604
I1
sS'sheriff'
p3605
I1
sS'mumbai'
p3606
I3
sS'woo'
p3607
I1
sS'controls'
p3608
I1
sS'candidates'
p3609
I4
sS'employee'
p3610
I1
sS'local'
p3611
I23
sS'hope'
p3612
I4
sS'melissa'
p3613
I1
sS'dodge'
p3614
I1
sS'specifications'
p3615
I1
sS'joint'
p3616
I1
sS'hifi'
p3617
I2
sS'fraud'
p3618
I1
sS'sues'
p3619
I1
sS'joins'
p3620
I2
sS'entity'
p3621
I1
sS'procedures'
p3622
I1
sS'areas'
p3623
I3
sS'committees'
p3624
I1
sS'unauthorized'
p3625
I1
sS'gbk'
p3626
I1
sS'taxes'
p3627
I1
sS'mercedes'
p3628
I1
sS'ohio'
p3629
I2
sS'grab'
p3630
I2
sS'autoblog'
p3631
I19
sS'view'
p3632
I4
sS'enhancer'
p3633
I1
sS'strengthened'
p3634
I1
sS'accuser'
p3635
I1
sS'svenska'
p3636
I1
sS'makers'
p3637
I3
sS'popup'
p3638
I1
sS'spotter'
p3639
I1
sS'greece'
p3640
I3
sS'atlantic'
p3641
I7
sS'textiles'
p3642
I1
sS'reform'
p3643
I2
sS'whiteglove'
p3644
I1
sS'nuclear'
p3645
I4
sS'missing'
p3646
I2
sS'written'
p3647
I1
sS'schleicher'
p3648
I1
sS'crude'
p3649
I2
sS'muslim'
p3650
I1
sS'overthrown'
p3651
I1
sS'email'
p3652
I4
sS'publishers'
p3653
I1
sS'keynote'
p3654
I1
sS'contentcopyright'
p3655
I1
sS'agencies'
p3656
I1
sS'efficiency'
p3657
I2
sS'job'
p3658
I2
sS'armenia'
p3659
I1
sS'vte'
p3660
I1
sS'precious'
p3661
I1
sS'lawsuit'
p3662
I2
sS'distribution'
p3663
I2
sS'hits'
p3664
I1
sS'defense'
p3665
I1
sS'plugin'
p3666
I2
sS'admin'
p3667
I1
sS'miners'
p3668
I1
sS'incident'
p3669
I1
sS'drug'
p3670
I3
sS'april'
p3671
I1
sS'bachmann'
p3672
I1
sS'bristol'
p3673
I1
sS'comment'
p3674
I5
sS'motionmakers'
p3675
I1
sS'relevant'
p3676
I2
sS'cc'
p3677
I1
sS'ca'
p3678
I2
sS'subscribe'
p3679
I3
sS'ab'
p3680
I1
sS'llanagail'
p3681
I1
sS'table'
p3682
I1
sS'cp'
p3683
I2
sS'quit'
p3684
I1
sS'provinces'
p3685
I1
sS'silvio'
p3686
I1
sS'bbc'
p3687
I1
sS'inhalt'
p3688
I1
sS'tyler'
p3689
I1
sS'waste'
p3690
I1
sS'partial'
p3691
I4
sS'eurozone'
p3692
I1
sS'contribute'
p3693
I1
sS'protect'
p3694
I1
sS'radioadapter'
p3695
I1
sS'plogs'
p3696
I1
sS'writechatdiv'
p3697
I1
sS'derivative'
p3698
I1
sS'present'
p3699
I2
sS'homes'
p3700
I1
sS'therefor'
p3701
I1
sS'vimeo'
p3702
I1
sS'rbs'
p3703
I1
sS'salman'
p3704
I1
sS'podcasts'
p3705
I1
sS'rbi'
p3706
I1
sS'watson'
p3707
I1
sS'upfacebook'
p3708
I1
sS'golic'
p3709
I1
sS'hardware'
p3710
I1
sS'vw'
p3711
I2
sS'halt'
p3712
I1
sS'euskara'
p3713
I1
sS'terrorist'
p3714
I1
sS'began'
p3715
I1
sS'administration'
p3716
I1
sS'tripoli'
p3717
I1
sS'kazakhstan'
p3718
I1
sS'strange'
p3719
I1
sS'dam'
p3720
I2
sS'terrorism'
p3721
I12
sS'paula'
p3722
I1
sS'columbia'
p3723
I6
sS'unconventional'
p3724
I1
sS'reporting'
p3725
I1
sS'forecasts'
p3726
I2
sS'bullying'
p3727
I1
sS'nanofibers'
p3728
I1
sS'infiniti'
p3729
I1
sS'afghan'
p3730
I1
sS'login'
p3731
I1
sS'rift'
p3732
I2
sS'center'
p3733
I1
sS'builder'
p3734
I1
sS'indonesia'
p3735
I2
sS'fighting'
p3736
I1
sS'thought'
p3737
I1
sS'guo'
p3738
I1
sS'english'
p3739
I2
sS'yangtze'
p3740
I1
sS'load'
p3741
I3
sS'stores'
p3742
I1
sS'subscribers'
p3743
I2
sS'interlingua'
p3744
I1
sS'click'
p3745
I7
sS'skincare'
p3746
I1
sS'sources'
p3747
I8
sS'dakota'
p3748
I1
sS'paul'
p3749
I1
sS'binladin'
p3750
I1
sS'web'
p3751
I7
sS'wea'
p3752
I1
sS'bicycles'
p3753
I1
sS'ads'
p3754
I2
sS'veracruz'
p3755
I1
sS'residential'
p3756
I1
sS'podcast'
p3757
I1
sS'demographic'
p3758
I1
sS'lake'
p3759
I2
sS'killed'
p3760
I2
sS'battery'
p3761
I1
sS'extends'
p3762
I1
sS'cosmetics'
p3763
I1
sS'nanoparticles'
p3764
I1
sS'somali'
p3765
I1
sS'usage'
p3766
I2
sS'rehn'
p3767
I1
sS'tax'
p3768
I4
sS'ski'
p3769
I2
sS'volapk'
p3770
I1
sS'match'
p3771
I1
sS'resolved'
p3772
I2
sS'recycling'
p3773
I1
sS'fhfa'
p3774
I1
sS'liberia'
p3775
I1
sS'term'
p3776
I1
sS'djibouti'
p3777
I1
sS'zimbabwe'
p3778
I1
sS'kirundi'
p3779
I1
sS'belgium'
p3780
I1
sS'nanotechnology'
p3781
I1
sS'password'
p3782
I1
sS'prominent'
p3783
I1
sS'loss'
p3784
I3
sS'ownerspat'
p3785
I1
sS'chairs'
p3786
I1
sS'newsfeeds'
p3787
I1
sS'leaves'
p3788
I1
sS'works'
p3789
I1
sS'italian'
p3790
I1
sS'accessible'
p3791
I1
sS'twitter'
p3792
I26
sS'linux'
p3793
I1
sS'library'
p3794
I1
sS'hair'
p3795
I1
sS'growth'
p3796
I3
sS'choosing'
p3797
I2
sS'employment'
p3798
I1
sS'transport'
p3799
I2
sS'versandkostenalfa'
p3800
I1
sS'lead'
p3801
I1
sS'hurricane'
p3802
I2
sS'pashto'
p3803
I1
sS'fedex'
p3804
I1
sS'moderated'
p3805
I1
sS'leader'
p3806
I2
sS'warranties'
p3807
I1
sS'limitations'
p3808
I1
sS'locata'
p3809
I1
sS'mitt'
p3810
I2
sS'usaf'
p3811
I1
sS'balkans'
p3812
I1
sS'lockheed'
p3813
I2
sS'mondale'
p3814
I1
sS'publishing'
p3815
I1
sS'rare'
p3816
I1
sS'huaihe'
p3817
I1
sS'introduces'
p3818
I1
sS'shipping'
p3819
I1
sS'statement'
p3820
I3
sS'hier'
p3821
I1
sS'pressrelease'
p3822
I3
sS'urges'
p3823
I2
sS'clooney'
p3824
I19
sS'software'
p3825
I3
sS'alliance'
p3826
I1
sS'washington'
p3827
I6
sS'functional'
p3828
I1
sS'weather'
p3829
I8
sS'lung'
p3830
I1
sS'eine'
p3831
I1
sS'registration'
p3832
I2
sS'postal'
p3833
I2
sS'housing'
p3834
I1
sS'dinar'
p3835
I1
sS'var'
p3836
I1
sS'picturesin'
p3837
I1
sS'huai'
p3838
I1
sS'function'
p3839
I1
sS'cricket'
p3840
I1
sS'buy'
p3841
I2
sS'triggered'
p3842
I1
sS'funds'
p3843
I1
sS'overflow'
p3844
I1
sS'editing'
p3845
I1
sS'hd'
p3846
I1
sS'made'
p3847
I2
sS'official'
p3848
I1
sS'hosting'
p3849
I1
sS'record'
p3850
I3
sS'problem'
p3851
I1
sS'display'
p3852
I1
sS'stylelist'
p3853
I19
sS'motionmakerbecome'
p3854
I1
sS'universal'
p3855
I1
sS'pic'
p3856
I1
sS'romney'
p3857
I3
sS'pie'
p3858
I1
sS'resumption'
p3859
I1
sS'replica'
p3860
I1
sS'worse'
p3861
I1
sS'motionmaker'
p3862
I1
sS'renowned'
p3863
I1
sS'variety'
p3864
I1
sS'deadly'
p3865
I1
sS'book'
p3866
I1
sS'details'
p3867
I5
sS'stumps'
p3868
I1
sS'symposium'
p3869
I2
sS'repeat'
p3870
I1
sS'star'
p3871
I1
sS'monday'
p3872
I1
sS'ubs'
p3873
I1
sS'outlets'
p3874
I2
sS'directory'
p3875
I1
sS'friends'
p3876
I25
sS'christians'
p3877
I1
sS'searches'
p3878
I1
sS'blogs'
p3879
I7
sS'martin'
p3880
I2
sS'rule'
p3881
I2
sS'portion'
p3882
I1
sS'write'
p3883
I1
sS'ideological'
p3884
I1
sS'icagen'
p3885
I1
sS'irony'
p3886
I2
sS'melayu'
p3887
I1
stp3888
Rp3889
sg1435
I3198
sg1436
F6606.0
sbssS'_label_probdist'
p3890
g0
(g14
g2
Ntp3891
Rp3892
(dp3893
g18
F0.5
sg19
I8768
sg20
g21
((dp3894
g8
I5007
sg9
I3761
stp3895
Rp3896
sg1435
I2
sg1436
F8769.0
sbsb.