ccopy_reg
_reconstructor
p0
(cnltk.classify.naivebayes
NaiveBayesClassifier
p1
c__builtin__
object
p2
Ntp3
Rp4
(dp5
S'_labels'
p6
(lp7
S'neg'
p8
aS'pos'
p9
asS'_feature_probdist'
p10
(dp11
(g9
S'word'
p12
tp13
g0
(cnltk.probability
ELEProbDist
p14
g2
Ntp15
Rp16
(dp17
S'_gamma'
p18
F0.5
sS'_N'
p19
I3937
sS'_freqdist'
p20
cnltk.probability
FreqDist
p21
((dp22
S'limited'
p23
I2
sS'swirls'
p24
I1
sS'mccaffrey'
p25
I1
sS'beware'
p26
I1
sS'dollar'
p27
I2
sS'yellow'
p28
I7
sS'month'
p29
I4
sS'sichuan'
p30
I8
sS'facilities'
p31
I4
sS'protest'
p32
I1
sS'woods'
p33
I1
sS'khanun'
p34
I1
sS'talks'
p35
I3
sS'follow'
p36
I5
sS'saved'
p37
I1
sS'children'
p38
I1
sS'likerecommendconfirmyou'
p39
I3
sS'votes'
p40
I4
sS'aug'
p41
I1
sS'electricity'
p42
I1
sS'jianguo'
p43
I1
sS'hulan'
p44
I2
sS'pensions'
p45
I1
sS'program'
p46
I2
sS'dairy'
p47
I1
sS'swap'
p48
I1
sS'caused'
p49
I19
sS'alberta'
p50
I1
sS'siblings'
p51
I1
sS'popola'
p52
I6
sS'crest'
p53
I1
sS'worth'
p54
I1
sS'khmer'
p55
I1
sS'woman'
p56
I1
sS'premium'
p57
I1
sS'rescue'
p58
I6
sS'confidential'
p59
I1
sS'rise'
p60
I3
sS'fav'
p61
I3
sS'focus'
p62
I3
sS'puzzles'
p63
I1
sS'worst'
p64
I12
sS'plenary'
p65
I1
sS'reforms'
p66
I2
sS'affect'
p67
I4
sS'difference'
p68
I1
sS'ticker'
p69
I1
sS'cnet'
p70
I2
sS'rainfalls'
p71
I1
sS'school'
p72
I4
sS'betamore'
p73
I3
sS'crops'
p74
I8
sS'celebrity'
p75
I2
sS'wsj'
p76
I1
sS'companies'
p77
I1
sS'solution'
p78
I3
sS'claudio'
p79
I1
sS'large'
p80
I1
sS'circuit'
p81
I1
sS'monsanto'
p82
I1
sS'smith'
p83
I1
sS'commented'
p84
I1
sS'programme'
p85
I1
sS'tirec'
p86
I1
sS'bicycle'
p87
I2
sS'leaders'
p88
I4
sS'ten'
p89
I1
sS'tea'
p90
I1
sS'warns'
p91
I1
sS'guidelines'
p92
I3
sS'bacon'
p93
I1
sS'direct'
p94
I4
sS'tksensei'
p95
I3
sS'past'
p96
I3
sS'ents'
p97
I1
sS'street'
p98
I3
sS'design'
p99
I1
sS'chen'
p100
I2
sS'estimated'
p101
I3
sS'chair'
p102
I1
sS'redistributed'
p103
I1
sS'investing'
p104
I3
sS'thunder'
p105
I1
sS'version'
p106
I2
sS'fossil'
p107
I1
sS'toll'
p108
I3
sS'supplies'
p109
I2
sS'racing'
p110
I2
sS'public'
p111
I1
sS'full'
p112
I5
sS'christian'
p113
I2
sS'tags'
p114
I1
sS'chinaby'
p115
I1
sS'hundreds'
p116
I6
sS'hours'
p117
I2
sS'reported'
p118
I13
sS'protection'
p119
I3
sS'fleet'
p120
I1
sS'strong'
p121
I2
sS'koreapakistanrussiasomaliasouth'
p122
I1
sS'chongqing'
p123
I1
sS'dry'
p124
I1
sS'kids'
p125
I2
sS'tx'
p126
I1
sS'ahead'
p127
I1
sS'siamese'
p128
I1
sS'items'
p129
I1
sS'study'
p130
I3
sS'climbed'
p131
I1
sS'reports'
p132
I9
sS'guide'
p133
I1
sS'soldier'
p134
I1
sS'advertising'
p135
I3
sS'karin'
p136
I1
sS'published'
p137
I1
sS'action'
p138
I3
sS'military'
p139
I2
sS'tweet'
p140
I4
sS'millimetres'
p141
I1
sS'prints'
p142
I1
sS'shanghai'
p143
I2
sS'secure'
p144
I1
sS'campaign'
p145
I1
sS'feelings'
p146
I1
sS'county'
p147
I9
sS'drowned'
p148
I1
sS'glance'
p149
I1
sS'armed'
p150
I1
sS'voa'
p151
I1
sS'archived'
p152
I1
sS'rises'
p153
I3
sS'palestinian'
p154
I2
sS'century'
p155
I2
sS'arms'
p156
I1
sS'oecd'
p157
I1
sS'sample'
p158
I1
sS'call'
p159
I1
sS'telegraph'
p160
I1
sS'recommend'
p161
I3
sS'preview'
p162
I1
sS'markets'
p163
I6
sS'flng'
p164
I1
sS'extrasslideshowdata'
p165
I3
sS'supporters'
p166
I2
sS'wars'
p167
I3
sS'billowing'
p168
I1
sS'farmland'
p169
I1
sS'excellent'
p170
I1
sS'town'
p171
I1
sS'mg'
p172
I1
sS'taihu'
p173
I3
sS'mm'
p174
I2
sS'science'
p175
I11
sS'breakingviews'
p176
I1
sS'work'
p177
I5
sS'resources'
p178
I6
sS'learn'
p179
I1
sS'history'
p180
I5
sS'owes'
p181
I1
sS'give'
p182
I1
sS'onslaught'
p183
I1
sS'suggestions'
p184
I1
sS'dailymotion'
p185
I3
sS'autumn'
p186
I1
sS'claimed'
p187
I1
sS'rainstorm'
p188
I4
sS'beale'
p189
I1
sS'returned'
p190
I1
sS'provincial'
p191
I5
sS'tornadoes'
p192
I2
sS'answer'
p193
I1
sS'end'
p194
I4
sS'january'
p195
I1
sS'provide'
p196
I1
sS'daiichi'
p197
I1
sS'damage'
p198
I2
sS'kabul'
p199
I3
sS'maps'
p200
I1
sS'hot'
p201
I9
sS'ophelia'
p202
I1
sS'boats'
p203
I1
sS'beach'
p204
I1
sS'css'
p205
I2
sS'dailymotionvideoscategoriescommunitycontestsfamily'
p206
I3
sS'lai'
p207
I1
sS'rudd'
p208
I1
sS'lotteries'
p209
I1
sS'alibaba'
p210
I11
sS'piaohe'
p211
I2
sS'streets'
p212
I1
sS'waves'
p213
I2
sS'law'
p214
I3
sS'short'
p215
I1
sS'amid'
p216
I2
sS'register'
p217
I1
sS'headquarters'
p218
I4
sS'enter'
p219
I1
sS'banks'
p220
I1
sS'order'
p221
I2
sS'wind'
p222
I1
sS'updates'
p223
I2
sS'operations'
p224
I1
sS'executed'
p225
I2
sS'anticyclone'
p226
I1
sS'feedback'
p227
I17
sS'office'
p228
I7
sS'swamped'
p229
I3
sS'consent'
p230
I2
sS'fall'
p231
I2
sS'mission'
p232
I1
sS'rightminds'
p233
I1
sS'helena'
p234
I1
sS'paper'
p235
I1
sS'london'
p236
I2
sS'replies'
p237
I3
sS'japan'
p238
I10
sS'nets'
p239
I1
sS'lijiadu'
p240
I3
sS'mckinny'
p241
I1
sS'dont'
p242
I1
sS'planning'
p243
I1
sS'style'
p244
I6
sS'anhui'
p245
I4
sS'mamata'
p246
I1
sS'personal'
p247
I6
sS'fined'
p248
I1
sS'gaddafis'
p249
I1
sS'destroyed'
p250
I9
sS'production'
p251
I2
sS'peanuts'
p252
I2
sS'weeks'
p253
I1
sS'easier'
p254
I1
sS'shear'
p255
I1
sS'evening'
p256
I3
sS'affected'
p257
I26
sS'diseases'
p258
I4
sS'alfredsson'
p259
I1
sS'ceo'
p260
I1
sS'safe'
p261
I2
sS'cet'
p262
I1
sS'effects'
p263
I1
sS'schools'
p264
I1
sS'sanvu'
p265
I1
sS'bank'
p266
I1
sS'snowmail'
p267
I1
sS'occasions'
p268
I1
sS'evo'
p269
I1
sS'newscore'
p270
I1
sS'rocks'
p271
I1
sS'herald'
p272
I1
sS'ashes'
p273
I1
sS'fitness'
p274
I2
sS'volcano'
p275
I1
sS'feeds'
p276
I2
sS'wulong'
p277
I3
sS'carlos'
p278
I1
sS'heavy'
p279
I31
sS'financial'
p280
I1
sS'swathe'
p281
I4
sS'generation'
p282
I3
sS'house'
p283
I6
sS'fishpond'
p284
I1
sS'wednesday'
p285
I4
sS'literature'
p286
I1
sS'connect'
p287
I1
sS'flock'
p288
I1
sS'saturday'
p289
I6
sS'deals'
p290
I3
sS'funding'
p291
I1
sS'driving'
p292
I1
sS'rs'
p293
I1
sS'load'
p294
I1
sS'content'
p295
I12
sS'hague'
p296
I1
sS'reader'
p297
I3
sS'print'
p298
I7
sS'xu'
p299
I1
sS'gop'
p300
I1
sS'foundation'
p301
I4
sS'scottish'
p302
I1
sS'friday'
p303
I7
sS'fugitive'
p304
I1
sS'mourning'
p305
I1
sS'houses'
p306
I2
sS'worse'
p307
I1
sS'struggle'
p308
I1
sS'members'
p309
I1
sS'enlarge'
p310
I1
sS'ash'
p311
I1
sS'drench'
p312
I1
sS'nightly'
p313
I3
sS'shaanxi'
p314
I4
sS'thread'
p315
I3
sS'days'
p316
I8
sS'americas'
p317
I3
sS'bookmark'
p318
I2
sS'american'
p319
I1
sS'incorporated'
p320
I1
sS'corrections'
p321
I1
sS'scheme'
p322
I1
sS'size'
p323
I3
sS'major'
p324
I5
sS'features'
p325
I2
sS'prevent'
p326
I1
sS'number'
p327
I1
sS'delicious'
p328
I1
sS'force'
p329
I6
sS'ditch'
p330
I1
sS'story'
p331
I7
sS'rated'
p332
I1
sS'heads'
p333
I1
sS'temperature'
p334
I1
sS'hanjiang'
p335
I2
sS'attack'
p336
I3
sS'regulation'
p337
I1
sS'station'
p338
I4
sS'warming'
p339
I1
sS'storm'
p340
I8
sS'farming'
p341
I1
sS'store'
p342
I1
sS'listen'
p343
I1
sS'helpfaqcontact'
p344
I3
sS'erupted'
p345
I1
sS'tool'
p346
I1
sS'extratropical'
p347
I1
sS'park'
p348
I2
sS'typhoon'
p349
I7
sS'crop'
p350
I1
sS'presstv'
p351
I1
sS'digg'
p352
I1
sS'mercy'
p353
I1
sS'john'
p354
I1
sS'showed'
p355
I1
sS'diario'
p356
I1
sS'rate'
p357
I1
sS'project'
p358
I1
sS'articlesend'
p359
I1
sS'evacuated'
p360
I20
sS'ousted'
p361
I1
sS'kilometers'
p362
I1
sS'interactive'
p363
I2
sS'informationprivacy'
p364
I1
sS'fashion'
p365
I2
sS'macau'
p366
I1
sS'strengthen'
p367
I1
sS'raw'
p368
I1
sS'unaffected'
p369
I1
sS'orders'
p370
I1
sS'karl'
p371
I1
sS'dozen'
p372
I1
sS'forced'
p373
I4
sS'wanzhou'
p374
I1
sS'lin'
p375
I1
sS'responsible'
p376
I5
sS'click'
p377
I7
sS'liu'
p378
I2
sS'high'
p379
I1
sS'brace'
p380
I1
sS'villager'
p381
I1
sS'clarifications'
p382
I1
sS'play'
p383
I3
sS'hotel'
p384
I1
sS'warnings'
p385
I1
sS'chars'
p386
I2
sS'shale'
p387
I1
sS'abc'
p388
I1
sS'germany'
p389
I2
sS'drought'
p390
I24
sS'tibetan'
p391
I1
sS'xijiang'
p392
I3
sS'mobilised'
p393
I1
sS'environmental'
p394
I1
sS'mobile'
p395
I8
sS'clear'
p396
I1
sS'km'
p397
I1
sS'sources'
p398
I7
sS'clean'
p399
I1
sS'sun'
p400
I1
sS'dow'
p401
I1
sS'harbin'
p402
I2
sS'wikinews'
p403
I1
sS'golf'
p404
I1
sS'reactor'
p405
I1
sS'pope'
p406
I2
sS'kosovo'
p407
I3
sS'lewis'
p408
I1
sS'league'
p409
I1
sS'radio'
p410
I16
sS'solutions'
p411
I1
sS'stalker'
p412
I1
sS'headlines'
p413
I3
sS'font'
p414
I1
sS'overwhelmed'
p415
I1
sS'completion'
p416
I1
sS'cell'
p417
I1
sS'northeast'
p418
I5
sS'northern'
p419
I3
sS'menu'
p420
I1
sS'guidance'
p421
I1
sS'lightspeed'
p422
I3
sS'flights'
p423
I1
sS'indian'
p424
I1
sS'factor'
p425
I1
sS'rice'
p426
I5
sS'hardball'
p427
I3
sS'brecher'
p428
I1
sS'seminarby'
p429
I1
sS'cots'
p430
I1
sS'hiv'
p431
I1
sS'embankments'
p432
I2
sS'de'
p433
I1
sS'watch'
p434
I8
sS'geek'
p435
I1
sS'amazon'
p436
I2
sS'observatory'
p437
I3
sS'batter'
p438
I5
sS'heilongjiang'
p439
I1
sS'danjiangkou'
p440
I1
sS'disqus'
p441
I1
sS'dr'
p442
I1
sS'xinjiang'
p443
I3
sS'countries'
p444
I3
sS'fields'
p445
I1
sS'cry'
p446
I2
sS'toraw'
p447
I1
sS'investigate'
p448
I1
sS'recommendations'
p449
I2
sS'guizhou'
p450
I7
sS'hongze'
p451
I3
sS'floodlands'
p452
I1
sS'newspaper'
p453
I3
sS'disaster'
p454
I8
sS'fair'
p455
I3
sS'rockstar'
p456
I1
sS'dikes'
p457
I1
sS'culture'
p458
I4
sS'torrents'
p459
I1
sS'iran'
p460
I2
sS'expert'
p461
I1
sS'wikipedia'
p462
I2
sS'continent'
p463
I1
sS'mud'
p464
I1
sS'fans'
p465
I4
sS'bookmarking'
p466
I1
sS'captured'
p467
I1
sS'afflicted'
p468
I1
sS'adchoices'
p469
I3
sS'reddit'
p470
I2
sS'pushing'
p471
I1
sS'terms'
p472
I8
sS'nationwide'
p473
I1
sS'nature'
p474
I1
sS'wo'
p475
I1
sS'qionghai'
p476
I1
sS'javascript'
p477
I3
sS'apiplayer'
p478
I3
sS'cut'
p479
I1
sS'useprivacy'
p480
I3
sS'carbon'
p481
I2
sS'debt'
p482
I1
sS'wuhan'
p483
I4
sS'climate'
p484
I9
sS'planner'
p485
I1
sS'license'
p486
I1
sS'uncertainty'
p487
I1
sS'buzz'
p488
I1
sS'login'
p489
I2
sS'southeastern'
p490
I1
sS'upgraded'
p491
I1
sS'guangxi'
p492
I1
sS'supply'
p493
I1
sS'sky'
p494
I1
sS'jinan'
p495
I2
sS'community'
p496
I2
sS'wen'
p497
I1
sS'village'
p498
I4
sS'ravaged'
p499
I1
sS'expensive'
p500
I1
sS'speak'
p501
I1
sS'code'
p502
I2
sS'decline'
p503
I1
sS'roke'
p504
I2
sS'dams'
p505
I6
sS'create'
p506
I1
sS'due'
p507
I3
sS'pc'
p508
I1
sS'trigger'
p509
I1
sS'ireland'
p510
I1
sS'expected'
p511
I1
sS'screener'
p512
I1
sS'dozens'
p513
I3
sS'website'
p514
I1
sS'nrl'
p515
I1
sS'termsterms'
p516
I3
sS'bible'
p517
I1
sS'lives'
p518
I4
sS'chile'
p519
I1
sS'tormented'
p520
I1
sS'towns'
p521
I1
sS'plants'
p522
I1
sS'highest'
p523
I1
sS'carbuyer'
p524
I1
sS'ski'
p525
I1
sS'mln'
p526
I1
sS'air'
p527
I3
sS'cern'
p528
I3
sS'aid'
p529
I6
sS'afghanistanaustraliabrazilcanadachilechinacolombiacubaegypteurozonefrancegeorgiagermanyhaitihondurasindiaindonesiairaniraqirelandisraelitalyjapanlibyamexiconorth'
p530
I1
sS'property'
p531
I1
sS'flooding'
p532
I31
sS'radarplus'
p533
I1
sS'losses'
p534
I2
sS'hunan'
p535
I5
sS'mexico'
p536
I3
sS'player'
p537
I4
sS'experts'
p538
I1
sS'late'
p539
I1
sS'leaving'
p540
I6
sS'result'
p541
I1
sS'italy'
p542
I1
sS'defence'
p543
I1
sS'things'
p544
I1
sS'shares'
p545
I1
sS'grand'
p546
I1
sS'vegetable'
p547
I1
sS'couple'
p548
I3
sS'higher'
p549
I1
sS'independent'
p550
I1
sS'satellite'
p551
I6
sS'currencies'
p552
I1
sS'temporary'
p553
I1
sS'affairs'
p554
I4
sS'flooded'
p555
I6
sS'gallery'
p556
I4
sS'social'
p557
I1
sS'speakers'
p558
I1
sS'rain'
p559
I28
sS'alert'
p560
I2
sS'hectares'
p561
I1
sS'levels'
p562
I9
sS'moving'
p563
I1
sS'bloomberg'
p564
I1
sS'yuan'
p565
I6
sS'residents'
p566
I12
sS'recent'
p567
I2
sS'lower'
p568
I3
sS'ninemsn'
p569
I1
sS'programs'
p570
I2
sS'makes'
p571
I2
sS'picks'
p572
I2
sS'person'
p573
I2
sS'mother'
p574
I1
sS'claims'
p575
I2
sS'corporate'
p576
I1
sS'left'
p577
I9
sS'seasonal'
p578
I1
sS'soaked'
p579
I1
sS'capitol'
p580
I1
sS'photo'
p581
I6
sS'warmest'
p582
I1
sS'distribute'
p583
I1
sS'xihai'
p584
I3
sS'judge'
p585
I3
sS'fighters'
p586
I1
sS'questions'
p587
I2
sS'sidebar'
p588
I2
sS'rushing'
p589
I1
sS'adding'
p590
I4
sS'loading'
p591
I6
sS'songhua'
p592
I3
sS'myanmar'
p593
I1
sS'workers'
p594
I5
sS'percent'
p595
I5
sS'relatives'
p596
I1
sS'kingdomvenezuelayemen'
p597
I1
sS'barack'
p598
I1
sS'spread'
p599
I4
sS'usda'
p600
I1
sS'exhibition'
p601
I1
sS'circumcision'
p602
I1
sS'contestant'
p603
I1
sS'violations'
p604
I3
sS'save'
p605
I2
sS'meteorologic'
p606
I1
sS'opt'
p607
I1
sS'customers'
p608
I1
sS'emergency'
p609
I1
sS'loss'
p610
I3
sS'big'
p611
I4
sS'bid'
p612
I1
sS'rapidly'
p613
I1
sS'govt'
p614
I1
sS'cape'
p615
I1
sS'precipitation'
p616
I1
sS'advanced'
p617
I1
sS'brought'
p618
I2
sS'counterintuitive'
p619
I1
sS'footy'
p620
I1
sS'rainstorms'
p621
I7
sS'communications'
p622
I1
sS'smtwtfs'
p623
I1
sS'steps'
p624
I1
sS'security'
p625
I5
sS'biofuels'
p626
I1
sS'nanning'
p627
I3
sS'sitemap'
p628
I4
sS'jazeera'
p629
I2
sS'google'
p630
I2
sS'loudi'
p631
I1
sS'deal'
p632
I4
sS'back'
p633
I2
sS'dead'
p634
I30
sS'streaming'
p635
I1
sS'scooter'
p636
I1
sS'meters'
p637
I2
sS'election'
p638
I1
sS'advertise'
p639
I6
sS'newsletter'
p640
I2
sS'fuels'
p641
I2
sS'describing'
p642
I1
sS'affects'
p643
I1
sS'decision'
p644
I1
sS'gateway'
p645
I1
sS'yujiang'
p646
I3
sS'tornado'
p647
I1
sS'continue'
p648
I2
sS'cloud'
p649
I1
sS'innovation'
p650
I1
sS'icp'
p651
I1
sS'marketing'
p652
I1
sS'dental'
p653
I1
sS'hubei'
p654
I9
sS'bp'
p655
I1
sS'agreesextension'
p656
I1
sS'wujiang'
p657
I3
sS'super'
p658
I4
sS'chilean'
p659
I1
sS'dollars'
p660
I1
sS'months'
p661
I1
sS'beijing'
p662
I14
sS'stricken'
p663
I1
sS'bariloche'
p664
I1
sS'slams'
p665
I1
sS'afternoon'
p666
I1
sS'islands'
p667
I1
sS'efforts'
p668
I1
sS'associatedpress'
p669
I1
sS'silence'
p670
I1
sS'pollution'
p671
I1
sS'mudslides'
p672
I1
sS'raised'
p673
I1
sS'civil'
p674
I4
sS'mudflows'
p675
I1
sS'refines'
p676
I3
sS'higos'
p677
I1
sS'rapid'
p678
I1
sS'noticias'
p679
I1
sS'telegraphpics'
p680
I1
sS'guangdong'
p681
I1
sS'risk'
p682
I1
sS'logged'
p683
I2
sS'rely'
p684
I1
sS'lashes'
p685
I1
sS'support'
p686
I1
sS'question'
p687
I1
sS'pages'
p688
I4
sS'music'
p689
I1
sS'war'
p690
I1
sS'archives'
p691
I1
sS'mountains'
p692
I1
sS'form'
p693
I1
sS'registered'
p694
I1
sS'fisheries'
p695
I1
sS'link'
p696
I1
sS'solar'
p697
I1
sS'line'
p698
I1
sS'removed'
p699
I3
sS'junior'
p700
I1
sS'posted'
p701
I2
sS'info'
p702
I1
sS'dailymotionunited'
p703
I3
sS'wenzhou'
p704
I1
sS'inside'
p705
I2
sS'access'
p706
I1
sS'economic'
p707
I3
sS'planes'
p708
I1
sS'autonomous'
p709
I1
sS'called'
p710
I1
sS'accessibility'
p711
I7
sS'continued'
p712
I4
sS'warning'
p713
I3
sS'held'
p714
I2
sS'trip'
p715
I1
sS'cotton'
p716
I1
sS'rainy'
p717
I1
sS'rains'
p718
I27
sS'alerts'
p719
I3
sS'fears'
p720
I5
sS'ne'
p721
I1
sS'cambodia'
p722
I1
sS'teams'
p723
I1
sS'flood'
p724
I38
sS'conditions'
p725
I2
sS'recognition'
p726
I1
sS'department'
p727
I2
sS'developers'
p728
I1
sS'picture'
p729
I4
sS'cinio'
p730
I3
sS'dies'
p731
I1
sS'freeland'
p732
I1
sS'realclearworld'
p733
I1
sS'authorities'
p734
I3
sS'globalpost'
p735
I1
sS'weekend'
p736
I1
sS'sides'
p737
I1
sS'billion'
p738
I4
sS'urged'
p739
I1
sS'rescued'
p740
I1
sS'qiongzhou'
p741
I1
sS'youtube'
p742
I1
sS'emailpasswordkeep'
p743
I1
sS'nasa'
p744
I2
sS'push'
p745
I1
sS'scroll'
p746
I2
sS'mobilized'
p747
I1
sS'taize'
p748
I1
sS'irrigation'
p749
I1
sS'coach'
p750
I1
sS'edf'
p751
I1
sS'euronews'
p752
I1
sS'gp'
p753
I1
sS'skip'
p754
I14
sS'taizi'
p755
I1
sS'aptn'
p756
I1
sS'leads'
p757
I4
sS'crocodile'
p758
I1
sS'liangyu'
p759
I1
sS'newssportsfinancelifestyleentertainmentvideotravelcarsebayjobsdatingpropertymore'
p760
I1
sS'edt'
p761
I5
sS'winds'
p762
I2
sS'query'
p763
I1
sS'boluo'
p764
I3
sS'centers'
p765
I1
sS'issues'
p766
I2
sS'row'
p767
I2
sS'simon'
p768
I1
sS'depend'
p769
I1
sS'gold'
p770
I5
sS'zone'
p771
I2
sS'turkish'
p772
I1
sS'disposal'
p773
I1
sS'concerned'
p774
I1
sS'flash'
p775
I2
sS'father'
p776
I1
sS'young'
p777
I2
sS'send'
p778
I7
sS'environment'
p779
I14
sS'finally'
p780
I2
sS'reptiles'
p781
I1
sS'helps'
p782
I3
sS'marks'
p783
I1
sS'atlas'
p784
I1
sS'breach'
p785
I1
sS'suffered'
p786
I1
sS'fatal'
p787
I1
sS'relocated'
p788
I1
sS'southwest'
p789
I6
sS'dandy'
p790
I1
sS'mosquitoes'
p791
I1
sS'garden'
p792
I3
sS'beibei'
p793
I3
sS'frequencies'
p794
I1
sS'osofar'
p795
I3
sS'gvdebug'
p796
I1
sS'wave'
p797
I2
sS'zhejiang'
p798
I18
sS'cook'
p799
I6
sS'acres'
p800
I1
sS'blast'
p801
I1
sS'multistory'
p802
I1
sS'categories'
p803
I3
sS'lijin'
p804
I3
sS'dating'
p805
I1
sS'magic'
p806
I1
sS'staples'
p807
I1
sS'level'
p808
I11
sS'harbor'
p809
I1
sS'turns'
p810
I2
sS'leveled'
p811
I1
sS'steeply'
p812
I1
sS'posts'
p813
I1
sS'troy'
p814
I4
sS'leave'
p815
I10
sS'race'
p816
I1
sS'team'
p817
I1
sS'businesses'
p818
I2
sS'round'
p819
I1
sS'sewage'
p820
I1
sS'fujian'
p821
I4
sS'upper'
p822
I1
sS'smaller'
p823
I1
sS'baffle'
p824
I3
sS'cyber'
p825
I1
sS'rivers'
p826
I9
sS'jump'
p827
I5
sS'cost'
p828
I2
sS'download'
p829
I1
sS'acid'
p830
I1
sS'croc'
p831
I1
sS'depression'
p832
I1
sS'index'
p833
I4
sS'developed'
p834
I1
sS'unavailable'
p835
I2
sS'zhao'
p836
I1
sS'havoc'
p837
I1
sS'landslides'
p838
I11
sS'lhasa'
p839
I3
sS'accuweather'
p840
I1
sS'capital'
p841
I1
sS'reply'
p842
I1
sS'falling'
p843
I3
sS'staff'
p844
I1
sS'corn'
p845
I1
sS'body'
p846
I1
sS'unsure'
p847
I1
sS'stance'
p848
I1
sS'guardian'
p849
I2
sS'muslim'
p850
I1
sS'french'
p851
I1
sS'water'
p852
I29
sS'explore'
p853
I1
sS'forex'
p854
I1
sS'issued'
p855
I3
sS'groups'
p856
I1
sS'address'
p857
I6
sS'change'
p858
I6
sS'extreme'
p859
I1
sS'copyright'
p860
I14
sS'healthy'
p861
I1
sS'suizhou'
p862
I1
sS'queue'
p863
I1
sS'suggests'
p864
I1
sS'bicycles'
p865
I1
sS'cousins'
p866
I2
sS'opinion'
p867
I7
sS'weird'
p868
I3
sS'navigation'
p869
I8
sS'explain'
p870
I1
sS'taipei'
p871
I1
sS'named'
p872
I1
sS'love'
p873
I1
sS'ago'
p874
I7
sS'danger'
p875
I1
sS'manage'
p876
I1
sS'decrease'
p877
I1
sS'ians'
p878
I1
sS'bookmarks'
p879
I2
sS'tools'
p880
I1
sS'crisis'
p881
I1
sS'market'
p882
I6
sS'argentinas'
p883
I1
sS'fed'
p884
I1
sS'usd'
p885
I1
sS'troops'
p886
I1
sS'working'
p887
I1
sS'allget'
p888
I2
sS'prompting'
p889
I1
sS'visit'
p890
I3
sS'france'
p891
I3
sS'msn'
p892
I3
sS'live'
p893
I10
sS'films'
p894
I1
sS'australian'
p895
I1
sS'panel'
p896
I1
sS'arrest'
p897
I3
sS'rainfall'
p898
I8
sS'commissioner'
p899
I1
sS'newsletters'
p900
I1
sS'started'
p901
I1
sS'local'
p902
I14
sS'occurred'
p903
I1
sS'clients'
p904
I1
sS'amelia'
p905
I1
sS'harvest'
p906
I1
sS'stumbleupon'
p907
I1
sS'account'
p908
I2
sS'animals'
p909
I1
sS'evolution'
p910
I1
sS'tunnel'
p911
I1
sS'crossword'
p912
I1
sS'nanyang'
p913
I3
sS'abortion'
p914
I1
sS'reviews'
p915
I2
sS'cai'
p916
I1
sS'growing'
p917
I2
sS'making'
p918
I2
sS'closing'
p919
I1
sS'control'
p920
I6
sS'claim'
p921
I1
sS'xiushui'
p922
I3
sS'stream'
p923
I1
sS'subsidies'
p924
I1
sS'benxi'
p925
I1
sS'topic'
p926
I2
sS'battered'
p927
I4
sS'council'
p928
I1
sS'zhuang'
p929
I1
sS'dennis'
p930
I1
sS'occur'
p931
I1
sS'autobiography'
p932
I1
sS'locky'
p933
I1
sS'winter'
p934
I1
sS'printemailtweet'
p935
I1
sS'discussion'
p936
I3
sS'write'
p937
I1
sS'located'
p938
I1
sS'sunday'
p939
I7
sS'afp'
p940
I2
sS'secures'
p941
I1
sS'stock'
p942
I3
sS'profile'
p943
I1
sS'map'
p944
I2
sS'buildings'
p945
I2
sS'express'
p946
I1
sS'tel'
p947
I4
sS'farm'
p948
I3
sS'stop'
p949
I1
sS'waters'
p950
I1
sS'aol'
p951
I1
sS'sustainability'
p952
I1
sS'abuse'
p953
I1
sS'designed'
p954
I1
sS'mai'
p955
I1
sS'data'
p956
I5
sS'mao'
p957
I2
sS'man'
p958
I3
sS'gorges'
p959
I3
sS'permalink'
p960
I4
sS'natural'
p961
I4
sS'futures'
p962
I1
sS'commodities'
p963
I3
sS'african'
p964
I2
sS'notificationchild'
p965
I3
sS'favourites'
p966
I1
sS'talk'
p967
I1
sS'embassies'
p968
I14
sS'producer'
p969
I3
sS'reeling'
p970
I1
sS'areas'
p971
I20
sS'move'
p972
I4
sS'find'
p973
I10
sS'cropland'
p974
I2
sS'meter'
p975
I3
sS'thomson'
p976
I8
sS'ended'
p977
I1
sS'religious'
p978
I1
sS'including'
p979
I2
sS'nbsp'
p980
I1
sS'quake'
p981
I2
sS'cuts'
p982
I1
sS'cold'
p983
I1
sS'irene'
p984
I1
sS'badges'
p985
I3
sS'regions'
p986
I4
sS'police'
p987
I4
sS'monitor'
p988
I1
sS'macuser'
p989
I1
sS'chosen'
p990
I1
sS'intensify'
p991
I1
sS'linyi'
p992
I3
sS'li'
p993
I3
sS'platform'
p994
I2
sS'osorno'
p995
I1
sS'newsgroup'
p996
I1
sS'degrees'
p997
I2
sS'automation'
p998
I1
sS'hometown'
p999
I1
sS'orange'
p1000
I1
sS'mail'
p1001
I2
sS'msnbc'
p1002
I3
sS'main'
p1003
I6
sS'decades'
p1004
I1
sS'texas'
p1005
I2
sS'eur'
p1006
I1
sS'hainan'
p1007
I1
sS'crash'
p1008
I3
sS'finance'
p1009
I5
sS'views'
p1010
I5
sS'dam'
p1011
I3
sS'moshan'
p1012
I2
sS'evacuation'
p1013
I4
sS'nation'
p1014
I4
sS'newman'
p1015
I1
sS'records'
p1016
I2
sS'cutting'
p1017
I1
sS'femail'
p1018
I1
sS'half'
p1019
I5
sS'fushun'
p1020
I4
sS'republican'
p1021
I4
sS'flee'
p1022
I4
sS'discuss'
p1023
I3
sS'developments'
p1024
I3
sS'auto'
p1025
I1
sS'edit'
p1026
I3
sS'james'
p1027
I1
sS'drop'
p1028
I1
sS'slide'
p1029
I1
sS'el'
p1030
I3
sS'bridging'
p1031
I1
sS'casinos'
p1032
I1
sS'tents'
p1033
I1
sS'ed'
p1034
I3
sS'related'
p1035
I9
sS'society'
p1036
I1
sS'muniland'
p1037
I1
sS'eu'
p1038
I5
sS'reprints'
p1039
I2
sS'sexual'
p1040
I1
sS'disasters'
p1041
I8
sS'special'
p1042
I2
sS'ahmadinejad'
p1043
I1
sS'webcasts'
p1044
I1
sS'chaos'
p1045
I2
sS'ret'
p1046
I1
sS'increase'
p1047
I2
sS'internet'
p1048
I3
sS'calif'
p1049
I1
sS'red'
p1050
I2
sS'debris'
p1051
I1
sS'retrieved'
p1052
I1
sS'pumping'
p1053
I2
sS'qi'
p1054
I1
sS'trademarks'
p1055
I1
sS'resumed'
p1056
I1
sS'river'
p1057
I30
sS'ministry'
p1058
I9
sS'florida'
p1059
I1
sS'british'
p1060
I1
sS'times'
p1061
I6
sS'thing'
p1062
I1
sS'pigs'
p1063
I3
sS'massive'
p1064
I1
sS'davis'
p1065
I5
sS'municipality'
p1066
I1
sS'reaches'
p1067
I4
sS'tier'
p1068
I1
sS'suspended'
p1069
I1
sS'vote'
p1070
I5
sS'reached'
p1071
I2
sS'braces'
p1072
I1
sS'millions'
p1073
I4
sS'city'
p1074
I16
sS'playlist'
p1075
I1
sS'hurricane'
p1076
I3
sS'swept'
p1077
I1
sS'district'
p1078
I1
sS'start'
p1079
I1
sS'evacuates'
p1080
I1
sS'myspace'
p1081
I1
sS'hilary'
p1082
I1
sS'relations'
p1083
I1
sS'plains'
p1084
I1
sS'lianyungang'
p1085
I1
sS'ibtimes'
p1086
I1
sS'white'
p1087
I1
sS'jellyfish'
p1088
I1
sS'rebels'
p1089
I1
sS'final'
p1090
I2
sS'friend'
p1091
I1
sS'low'
p1092
I2
sS'season'
p1093
I4
sS'released'
p1094
I2
sS'alertnet'
p1095
I4
sS'searchhow'
p1096
I1
sS'qujiang'
p1097
I1
sS'july'
p1098
I2
sS'copy'
p1099
I1
sS'pageinsightserroryou'
p1100
I3
sS'rss'
p1101
I3
sS'colleagues'
p1102
I1
sS'future'
p1103
I2
sS'ferry'
p1104
I1
sS'steep'
p1105
I1
sS'browser'
p1106
I5
sS'talim'
p1107
I4
sS'voanews'
p1108
I1
sS'san'
p1109
I1
sS'pro'
p1110
I1
sS'buy'
p1111
I3
sS'close'
p1112
I6
sS'rescuers'
p1113
I4
sS'leiva'
p1114
I1
sS'uranium'
p1115
I1
sS'pageinsightserror'
p1116
I3
sS'dailymotionaboutpressjobsall'
p1117
I3
sS'inches'
p1118
I1
sS'dishes'
p1119
I1
sS'agency'
p1120
I22
sS'parks'
p1121
I1
sS'endangered'
p1122
I1
sS'ideal'
p1123
I1
sS'potential'
p1124
I1
sS'channel'
p1125
I1
sS'santiago'
p1126
I1
sS'combat'
p1127
I1
sS'track'
p1128
I1
sS'price'
p1129
I2
sS'agriculture'
p1130
I2
sS'sheets'
p1131
I2
sS'preliminary'
p1132
I1
sS'transcript'
p1133
I1
sS'highertorrential'
p1134
I1
sS'wangmo'
p1135
I3
sS'neighboring'
p1136
I1
sS'average'
p1137
I1
sS'stranded'
p1138
I2
sS'professional'
p1139
I1
sS'parris'
p1140
I1
sS'jiangxi'
p1141
I2
sS'rating'
p1142
I2
sS'atmosphere'
p1143
I1
sS'shot'
p1144
I1
sS'hongzehong'
p1145
I3
sS'show'
p1146
I12
sS'text'
p1147
I6
sS'charles'
p1148
I1
sS'fifty'
p1149
I1
sS'downpours'
p1150
I11
sS'bring'
p1151
I8
sS'tkt'
p1152
I1
sS'dateline'
p1153
I3
sS'southwestern'
p1154
I4
sS'soldiers'
p1155
I1
sS'fear'
p1156
I1
sS'forecast'
p1157
I6
sS'azerbaijan'
p1158
I2
sS'debate'
p1159
I4
sS'decade'
p1160
I5
sS'ground'
p1161
I3
sS'feng'
p1162
I1
sS'upgrade'
p1163
I4
sS'reservoir'
p1164
I2
sS'title'
p1165
I1
sS'clutching'
p1166
I1
sS'winner'
p1167
I1
sS'storms'
p1168
I6
sS'shareadd'
p1169
I3
sS'xunjiang'
p1170
I3
sS'muffin'
p1171
I2
sS'fuel'
p1172
I2
sS'gillard'
p1173
I1
sS'hope'
p1174
I2
sS'tuojiang'
p1175
I3
sS'bonds'
p1176
I1
sS'sst'
p1177
I1
sS'photography'
p1178
I1
sS'prolonged'
p1179
I1
sS'cross'
p1180
I1
sS'fallout'
p1181
I1
sS'spur'
p1182
I1
sS'jiamusi'
p1183
I3
sS'tianhe'
p1184
I3
sS'manager'
p1185
I1
sS'shu'
p1186
I2
sS'radar'
p1187
I1
sS'floods'
p1188
I72
sS'morning'
p1189
I4
sS'hangzhou'
p1190
I1
sS'miles'
p1191
I1
sS'inforgot'
p1192
I2
sS'predicted'
p1193
I1
sS'worries'
p1194
I1
sS'scott'
p1195
I1
sS'husband'
p1196
I1
sS'view'
p1197
I4
sS'accuses'
p1198
I1
sS'hour'
p1199
I2
sS'humiliation'
p1200
I1
sS'africasyriathailandtunisiaturkeyunited'
p1201
I1
sS'edition'
p1202
I3
sS'officials'
p1203
I5
sS'declares'
p1204
I1
sS'enhanced'
p1205
I1
sS'hell'
p1206
I2
sS'atlantic'
p1207
I2
sS'europa'
p1208
I1
sS'calendar'
p1209
I3
sS'sport'
p1210
I6
sS'fails'
p1211
I1
sS'results'
p1212
I5
sS'maddow'
p1213
I2
sS'farmers'
p1214
I3
sS'ways'
p1215
I1
sS'nuclear'
p1216
I5
sS'review'
p1217
I16
sS'missing'
p1218
I40
sS'sites'
p1219
I10
sS'mayor'
p1220
I1
sS'pte'
p1221
I3
sS'bureau'
p1222
I3
sS'injustice'
p1223
I2
sS'affecting'
p1224
I2
sS'import'
p1225
I1
sS'yesterday'
p1226
I4
sS'reading'
p1227
I1
sS'thishurricane'
p1228
I1
sS'email'
p1229
I12
sS'luo'
p1230
I1
sS'zeitgeist'
p1231
I2
sS'puyehue'
p1232
I1
sS'august'
p1233
I2
sS'spares'
p1234
I1
sS'contentcopyright'
p1235
I3
sS'killing'
p1236
I1
sS'job'
p1237
I2
sS'awards'
p1238
I1
sS'key'
p1239
I1
sS'article'
p1240
I7
sS'cities'
p1241
I2
sS'lanxi'
p1242
I2
sS'hits'
p1243
I3
sS'rugby'
p1244
I1
sS'libya'
p1245
I1
sS'region'
p1246
I4
sS'la'
p1247
I1
sS'recession'
p1248
I2
sS'tour'
p1249
I1
sS'sanjiangkou'
p1250
I2
sS'torrential'
p1251
I11
sS'comment'
p1252
I15
sS'pakistan'
p1253
I9
sS'onemillion'
p1254
I1
sS'relevant'
p1255
I1
sS'wall'
p1256
I1
sS'tuesday'
p1257
I6
sS'ce'
p1258
I1
sS'subscribe'
p1259
I2
sS'learning'
p1260
I4
sS'fukushima'
p1261
I1
sS'cp'
p1262
I1
sS'boat'
p1263
I3
sS'survivors'
p1264
I2
sS'arts'
p1265
I3
sS'powered'
p1266
I4
sS'barry'
p1267
I1
sS'bbc'
p1268
I5
sS'copies'
p1269
I1
sS'cent'
p1270
I1
sS'mark'
p1271
I1
sS'tropical'
p1272
I3
sS'reuters'
p1273
I15
sS'hindi'
p1274
I1
sS'technical'
p1275
I1
sS'waste'
p1276
I2
sS'partial'
p1277
I1
sS'username'
p1278
I1
sS'enable'
p1279
I1
sS'shortages'
p1280
I1
sS'netanyahu'
p1281
I1
sS'al'
p1282
I2
sS'photos'
p1283
I5
sS'minister'
p1284
I1
sS'covered'
p1285
I1
sS'stonecutters'
p1286
I1
sS'pig'
p1287
I1
sS'argentina'
p1288
I3
sS'spain'
p1289
I1
sS'homes'
p1290
I8
sS'zambians'
p1291
I1
sS'ap'
p1292
I3
sS'podcasts'
p1293
I2
sS'qianting'
p1294
I1
sS'scum'
p1295
I1
sS'reservoirs'
p1296
I1
sS'dmexco'
p1297
I1
sS'landslide'
p1298
I2
sS'myindependent'
p1299
I1
sS'evacuees'
p1300
I1
sS'telangana'
p1301
I1
sS'annual'
p1302
I1
sS'upfacebook'
p1303
I1
sS'strait'
p1304
I1
sS'linkedin'
p1305
I1
sS'helped'
p1306
I2
sS'thug'
p1307
I1
sS'halt'
p1308
I1
sS'author'
p1309
I1
sS'toembedreport'
p1310
I3
sS'archive'
p1311
I2
sS'policyhelpcontact'
p1312
I1
sS'parts'
p1313
I11
sS'buys'
p1314
I1
sS'terrorism'
p1315
I1
sS'killed'
p1316
I27
sS'columbia'
p1317
I2
sS'bali'
p1318
I1
sS'assist'
p1319
I1
sS'forecasts'
p1320
I2
sS'director'
p1321
I1
sS'advertisement'
p1322
I2
sS'railway'
p1323
I1
sS'renewable'
p1324
I1
sS'center'
p1325
I5
sS'fighting'
p1326
I2
sS'severe'
p1327
I3
sS'relief'
p1328
I16
sS'english'
p1329
I2
sS'yangtze'
p1330
I7
sS'audio'
p1331
I1
sS'scientists'
p1332
I1
sS'bodies'
p1333
I2
sS'summer'
p1334
I7
sS'outdoor'
p1335
I1
sS'livestock'
p1336
I1
sS'poach'
p1337
I1
sS'money'
p1338
I10
sS'hands'
p1339
I1
sS'inregister'
p1340
I3
sS'hukou'
p1341
I3
sS'kill'
p1342
I12
sS'changjiang'
p1343
I3
sS'touch'
p1344
I1
sS'speed'
p1345
I1
sS'incurring'
p1346
I1
sS'weekly'
p1347
I12
sS'depthtoday'
p1348
I1
sS'web'
p1349
I13
sS'death'
p1350
I9
sS'rose'
p1351
I5
sS'point'
p1352
I1
sS'photoshot'
p1353
I1
sS'lake'
p1354
I3
sS'geological'
p1355
I1
sS'improvement'
p1356
I1
sS'blog'
p1357
I1
sS'crocodiles'
p1358
I1
sS'treatment'
p1359
I1
sS'delegations'
p1360
I1
sS'struck'
p1361
I1
sS'villagers'
p1362
I3
sS'careers'
p1363
I4
sS'kingdom'
p1364
I1
sS'recycling'
p1365
I1
sS'kills'
p1366
I3
sS'kesko'
p1367
I1
sS'delhi'
p1368
I1
sS'early'
p1369
I3
sS'traffic'
p1370
I2
sS'mon'
p1371
I1
sS'execution'
p1372
I1
sS'mof'
p1373
I1
sS'clan'
p1374
I1
sS'mudslide'
p1375
I3
sS'displaced'
p1376
I5
sS'showing'
p1377
I1
sS'lost'
p1378
I2
sS'chairs'
p1379
I1
sS'suppliers'
p1380
I8
sS'herong'
p1381
I3
sS'oddly'
p1382
I1
sS'displaces'
p1383
I3
sS'warned'
p1384
I2
sS'leaves'
p1385
I4
sS'works'
p1386
I1
sS'tumble'
p1387
I1
sS'twitter'
p1388
I9
sS'church'
p1389
I1
sS'pacific'
p1390
I4
sS'cyberport'
p1391
I1
sS'elements'
p1392
I1
sS'act'
p1393
I1
sS'recommendation'
p1394
I2
sS'images'
p1395
I10
sS'gave'
p1396
I1
sS'pakistanis'
p1397
I4
sS'distribution'
p1398
I1
sS'octane'
p1399
I1
sS'disrupting'
p1400
I1
sS'dumps'
p1401
I1
sS'zhou'
p1402
I2
sS'drenched'
p1403
I3
sS'avoid'
p1404
I1
sS'recorded'
p1405
I2
sS'pashto'
p1406
I1
sS'legal'
p1407
I6
sS'drenches'
p1408
I1
sS'schedule'
p1409
I1
sS'seconds'
p1410
I1
sS'journal'
p1411
I4
sS'provinces'
p1412
I16
sS'host'
p1413
I1
sS'found'
p1414
I1
sS'usadvertiseterms'
p1415
I1
sS'counties'
p1416
I3
sS'stage'
p1417
I1
sS'lifestyle'
p1418
I2
sS'stations'
p1419
I4
sS'huaihe'
p1420
I3
sS'island'
p1421
I2
sS'violence'
p1422
I3
sS'shipping'
p1423
I1
sS'angeles'
p1424
I1
sS'zhuji'
p1425
I1
sS'andes'
p1426
I1
sS'underway'
p1427
I1
sS'urges'
p1428
I2
sS'joplin'
p1429
I1
sS'tributary'
p1430
I2
sS'irishman'
p1431
I1
sS'road'
p1432
I1
sS'letters'
p1433
I2
sS'image'
p1434
I3
sS'washington'
p1435
I2
sS'weather'
p1436
I23
sS'liaoning'
p1437
I3
sS'adobe'
p1438
I1
sS'subscriber'
p1439
I1
sS'mississippi'
p1440
I1
sS'area'
p1441
I6
sS'friends'
p1442
I4
sS'paddle'
p1443
I1
sS'los'
p1444
I1
sS'minjiang'
p1445
I3
sS'biggest'
p1446
I2
sS'picturesin'
p1447
I1
sS'jason'
p1448
I2
sS'jones'
p1449
I1
sS'hard'
p1450
I1
sS'complete'
p1451
I2
sS'triggered'
p1452
I9
sS'funds'
p1453
I1
sS'jun'
p1454
I4
sS'evacuate'
p1455
I5
sS'xinhua'
p1456
I33
sS'construction'
p1457
I1
sS'hurricanes'
p1458
I2
sS'weihe'
p1459
I5
sS'podcast'
p1460
I1
sS'october'
p1461
I2
sS'official'
p1462
I2
sS'hosting'
p1463
I1
sS'record'
p1464
I1
sS'weinan'
p1465
I1
sS'severely'
p1466
I1
sS'lightning'
p1467
I2
sS'display'
p1468
I1
sS'cbc'
p1469
I1
sS'irish'
p1470
I1
sS'motionmakerbecome'
p1471
I3
sS'videos'
p1472
I9
sS'deaths'
p1473
I3
sS'describe'
p1474
I2
sS'moved'
p1475
I1
sS'sales'
p1476
I1
sS'general'
p1477
I1
sS'cbs'
p1478
I2
sS'britain'
p1479
I1
sS'operation'
p1480
I2
sS'film'
p1481
I1
sS'wild'
p1482
I1
sS'deadly'
p1483
I5
sS'offensive'
p1484
I2
sS'event'
p1485
I1
sS'field'
p1486
I1
sS'shenzhen'
p1487
I1
sS'poor'
p1488
I1
sS'usblogfacebooktwitter'
p1489
I3
sS'monday'
p1490
I5
sS'students'
p1491
I1
sS'peak'
p1492
I2
sS'stocks'
p1493
I2
sS'presidential'
p1494
I4
sS'farms'
p1495
I1
sS'blogs'
p1496
I2
sS'password'
p1497
I3
sS'mass'
p1498
I1
sS'directory'
p1499
I6
sS'thunderstorms'
p1500
I1
sS'external'
p1501
I1
stp1502
Rp1503
sS'_bins'
p1504
I3854
sS'_divisor'
p1505
F5864.0
sbs(g8
g12
tp1506
g0
(g14
g2
Ntp1507
Rp1508
(dp1509
g18
F0.5
sg19
I6853
sg20
g21
((dp1510
S'aided'
p1511
I1
sS'gadhafi'
p1512
I2
sS'seaworld'
p1513
I1
sS'sweetening'
p1514
I1
sS'scientistsby'
p1515
I1
sS'implants'
p1516
I1
sS'kinyarwanda'
p1517
I2
sS'uzbekistan'
p1518
I1
sS'facilities'
p1519
I7
sS'protest'
p1520
I2
sS'gpcrs'
p1521
I1
sS'mansion'
p1522
I1
sS'dietetic'
p1523
I1
sS'likelikeconfirmyou'
p1524
I2
sS'cyprus'
p1525
I2
sS'likerecommendconfirmyou'
p1526
I4
sS'votes'
p1527
I1
sS'therapeutics'
p1528
I4
sS'aug'
p1529
I23
sS'electricity'
p1530
I3
sS'crises'
p1531
I1
sS'tweet'
p1532
I1
sS'homevideosnewsentertainmentcelebsmovieslifestylesportsbusinessautofunnyet'
p1533
I1
sS'bailout'
p1534
I1
sS'isolux'
p1535
I1
sS'swap'
p1536
I2
sS'caused'
p1537
I3
sS'popola'
p1538
I1
sS'worth'
p1539
I1
sS'thrifty'
p1540
I1
sS'plants'
p1541
I5
sS'lure'
p1542
I1
sS'risk'
p1543
I13
sS'dollar'
p1544
I6
sS'rise'
p1545
I7
sS'georgia'
p1546
I3
sS'updates'
p1547
I3
sS'reforms'
p1548
I1
sS'affect'
p1549
I1
sS'bringing'
p1550
I1
sS'dreamworks'
p1551
I1
sS'tickets'
p1552
I2
sS'sichuan'
p1553
I1
sS'school'
p1554
I9
sS'medline'
p1555
I1
sS'prize'
p1556
I1
sS'exaggerate'
p1557
I1
sS'skills'
p1558
I1
sS'pinch'
p1559
I1
sS'elevance'
p1560
I1
sS'companies'
p1561
I15
sS'solution'
p1562
I4
sS'monsanto'
p1563
I1
sS'red'
p1564
I3
sS'indices'
p1565
I1
sS'enhance'
p1566
I2
sS'ups'
p1567
I1
sS'tirec'
p1568
I2
sS'jamaica'
p1569
I1
sS'force'
p1570
I4
sS'leaders'
p1571
I13
sS'deutsch'
p1572
I1
sS'miller'
p1573
I2
sS'warns'
p1574
I6
sS'guidelines'
p1575
I1
sS'bacon'
p1576
I1
sS'direct'
p1577
I1
sS'pulse'
p1578
I1
sS'horn'
p1579
I1
sS'cameron'
p1580
I2
sS'street'
p1581
I1
sS'eurovision'
p1582
I1
sS'lasers'
p1583
I1
sS'blue'
p1584
I2
sS'established'
p1585
I1
sS'hide'
p1586
I1
sS'preferences'
p1587
I1
sS'prisons'
p1588
I1
sS'saved'
p1589
I1
sS'liberty'
p1590
I1
sS'decoding'
p1591
I1
sS'paphos'
p1592
I1
sS'toll'
p1593
I2
sS'supplies'
p1594
I2
sS'tips'
p1595
I3
sS'disney'
p1596
I2
sS'told'
p1597
I3
sS'courteney'
p1598
I1
sS'catal'
p1599
I1
sS'statehood'
p1600
I2
sS'icap'
p1601
I1
sS'men'
p1602
I25
sS'chinaby'
p1603
I1
sS'affiliates'
p1604
I3
sS'hundreds'
p1605
I1
sS'reported'
p1606
I2
sS'protection'
p1607
I2
sS'ethanol'
p1608
I2
sS'celebration'
p1609
I2
sS'kids'
p1610
I3
sS'forum'
p1611
I7
sS'auction'
p1612
I2
sS'oman'
p1613
I1
sS'elaborate'
p1614
I2
sS'changed'
p1615
I1
sS'reports'
p1616
I6
sS'credit'
p1617
I5
sS'chrysler'
p1618
I1
sS'permit'
p1619
I2
sS'military'
p1620
I7
sS'rebel'
p1621
I1
sS'golden'
p1622
I1
sS'norsk'
p1623
I1
sS'campaign'
p1624
I8
sS'wikimedia'
p1625
I2
sS'schooling'
p1626
I1
sS'county'
p1627
I2
sS'visible'
p1628
I1
sS'pataudi'
p1629
I2
sS'moral'
p1630
I1
sS'opportunities'
p1631
I4
sS'soybean'
p1632
I1
sS'orenburg'
p1633
I1
sS'total'
p1634
I3
sS'landscape'
p1635
I1
sS'sarah'
p1636
I2
sS'marketers'
p1637
I1
sS'army'
p1638
I2
sS'arms'
p1639
I3
sS'garners'
p1640
I2
sS'leaks'
p1641
I1
sS'plog'
p1642
I3
sS'program'
p1643
I5
sS'call'
p1644
I2
sS'asset'
p1645
I1
sS'recommend'
p1646
I8
sS'strike'
p1647
I2
sS'indiana'
p1648
I4
sS'preview'
p1649
I4
sS'type'
p1650
I2
sS'slaughtered'
p1651
I1
sS'successful'
p1652
I2
sS'brings'
p1653
I4
sS'wars'
p1654
I1
sS'award'
p1655
I4
sS'phone'
p1656
I11
sS'berlin'
p1657
I2
sS'hold'
p1658
I4
sS'kumar'
p1659
I1
sS'join'
p1660
I8
sS'room'
p1661
I1
sS'permits'
p1662
I1
sS'pursue'
p1663
I1
sS'midwest'
p1664
I6
sS'mo'
p1665
I1
sS'work'
p1666
I9
sS'eclipse'
p1667
I1
sS'advocacy'
p1668
I1
sS'movies'
p1669
I1
sS'mw'
p1670
I4
sS'usersubscribe'
p1671
I1
sS'mp'
p1672
I1
sS'transparency'
p1673
I1
sS'exceptions'
p1674
I1
sS'experts'
p1675
I1
sS'plunges'
p1676
I2
sS'newfoundland'
p1677
I1
sS'hyatt'
p1678
I1
sS'dailymotion'
p1679
I1
sS'uaw'
p1680
I1
sS'currency'
p1681
I3
sS'foods'
p1682
I3
sS'walsh'
p1683
I1
sS'veggies'
p1684
I1
sS'scrollbars'
p1685
I1
sS'appointment'
p1686
I1
sS'guarantee'
p1687
I1
sS'ceremony'
p1688
I1
sS'provincial'
p1689
I1
sS'tornadoes'
p1690
I1
sS'end'
p1691
I13
sS'recovery'
p1692
I1
sS'carriers'
p1693
I1
sS'hon'
p1694
I1
sS'kabul'
p1695
I1
sS'hot'
p1696
I4
sS'allied'
p1697
I1
sS'trusted'
p1698
I3
sS'lisa'
p1699
I1
sS'toxic'
p1700
I1
sS'place'
p1701
I2
sS'beach'
p1702
I3
sS'charging'
p1703
I1
sS'offshore'
p1704
I4
sS'massive'
p1705
I1
sS'chaddockpage'
p1706
I1
sS'regional'
p1707
I3
sS'elizabeth'
p1708
I1
sS'beauty'
p1709
I1
sS'earlier'
p1710
I3
sS'scottsdale'
p1711
I1
sS'customs'
p1712
I1
sS'davis'
p1713
I5
sS'documentheight'
p1714
I1
sS'law'
p1715
I6
sS'lesbian'
p1716
I1
sS'las'
p1717
I1
sS'purchase'
p1718
I1
sS'sets'
p1719
I2
sS'wins'
p1720
I11
sS'fibers'
p1721
I1
sS'greet'
p1722
I1
sS'luring'
p1723
I1
sS'bator'
p1724
I1
sS'bahasa'
p1725
I1
sS'enter'
p1726
I4
sS'sortiert'
p1727
I1
sS'diary'
p1728
I1
sS'order'
p1729
I3
sS'wind'
p1730
I32
sS'wine'
p1731
I1
sS'operations'
p1732
I5
sS'kendall'
p1733
I1
sS'executed'
p1734
I2
sS'beihai'
p1735
I1
sS'feedback'
p1736
I2
sS'office'
p1737
I4
sS'deck'
p1738
I1
sS'papiamentu'
p1739
I1
sS'consent'
p1740
I2
sS'murray'
p1741
I1
sS'london'
p1742
I7
sS'rsshome'
p1743
I1
sS'innovative'
p1744
I1
sS'japan'
p1745
I12
sS'biofuels'
p1746
I2
sS'welcomes'
p1747
I1
sS'austerity'
p1748
I1
sS'anhui'
p1749
I1
sS'imf'
p1750
I3
sS'personal'
p1751
I7
sS'highlights'
p1752
I6
sS'fix'
p1753
I2
sS'denver'
p1754
I24
sS'writing'
p1755
I2
sS'destroyed'
p1756
I2
sS'production'
p1757
I14
sS'hidden'
p1758
I1
sS'cree'
p1759
I1
sS'prius'
p1760
I3
sS'ftse'
p1761
I2
sS'iowa'
p1762
I3
sS'diseases'
p1763
I1
sS'bans'
p1764
I1
sS'safe'
p1765
I2
sS'nownews'
p1766
I1
sS'band'
p1767
I1
sS'bang'
p1768
I1
sS'gazprom'
p1769
I1
sS'therapy'
p1770
I2
sS'versandkosten'
p1771
I2
sS'flotation'
p1772
I1
sS'schools'
p1773
I3
sS'solyndra'
p1774
I1
sS'tourism'
p1775
I1
sS'silver'
p1776
I3
sS'bank'
p1777
I17
sS'gloom'
p1778
I1
sS'netherlands'
p1779
I2
sS'sanya'
p1780
I1
sS'debut'
p1781
I21
sS'rocks'
p1782
I1
sS'fitness'
p1783
I1
sS'volcano'
p1784
I1
sS'feeds'
p1785
I2
sS'meal'
p1786
I1
sS'bond'
p1787
I1
sS'itcn'
p1788
I1
sS'financial'
p1789
I8
sS'logs'
p1790
I1
sS'series'
p1791
I1
sS'crimes'
p1792
I1
sS'shatner'
p1793
I1
sS'upload'
p1794
I3
sS'literature'
p1795
I4
sS'trading'
p1796
I5
sS'navy'
p1797
I2
sS'dawn'
p1798
I2
sS'blinded'
p1799
I1
sS'driving'
p1800
I4
sS'rs'
p1801
I2
sS'god'
p1802
I1
sS'dst'
p1803
I1
sS'diesel'
p1804
I2
sS'sand'
p1805
I1
sS'trainers'
p1806
I1
sS'smp'
p1807
I1
sS'content'
p1808
I7
sS'neft'
p1809
I1
sS'encourage'
p1810
I2
sS'reader'
p1811
I1
sS'exxonmobil'
p1812
I3
sS'gov'
p1813
I1
sS'venezuela'
p1814
I1
sS'pagethe'
p1815
I1
sS'lesbians'
p1816
I1
sS'mullen'
p1817
I2
sS'turning'
p1818
I1
sS'paen'
p1819
I1
sS'buttonfollow'
p1820
I1
sS'managerial'
p1821
I1
sS'campaigns'
p1822
I1
sS'appointments'
p1823
I1
sS'jennie'
p1824
I1
sS'rain'
p1825
I4
sS'dailyfinance'
p1826
I19
sS'shaanxi'
p1827
I1
sS'starts'
p1828
I2
sS'messages'
p1829
I1
sS'days'
p1830
I2
sS'creates'
p1831
I1
sS'ministries'
p1832
I1
sS'aspiro'
p1833
I1
sS'baltic'
p1834
I1
sS'transexpo'
p1835
I3
sS'size'
p1836
I1
sS'trke'
p1837
I1
sS'industrial'
p1838
I2
sS'features'
p1839
I2
sS'primary'
p1840
I3
sS'fantasy'
p1841
I1
sS'featured'
p1842
I2
sS'customization'
p1843
I1
sS'samoa'
p1844
I1
sS'esperanto'
p1845
I1
sS'mercury'
p1846
I1
sS'priority'
p1847
I1
sS'rated'
p1848
I1
sS'guinness'
p1849
I1
sS'deadliest'
p1850
I1
sS'pesticides'
p1851
I1
sS'girls'
p1852
I1
sS'checker'
p1853
I2
sS'antiques'
p1854
I1
sS'needed'
p1855
I1
sS'rates'
p1856
I6
sS'listed'
p1857
I2
sS'forecasts'
p1858
I3
sS'john'
p1859
I1
sS'dogs'
p1860
I1
sS'urban'
p1861
I1
sS'tool'
p1862
I2
sS'wisdom'
p1863
I1
sS'white'
p1864
I5
sS'begins'
p1865
I1
sS'past'
p1866
I1
sS'trek'
p1867
I1
sS'medimmune'
p1868
I1
sS'target'
p1869
I1
sS'facebooklikeconfirmyou'
p1870
I2
sS'byrnes'
p1871
I1
sS'expr'
p1872
I1
sS'forensic'
p1873
I1
sS'tree'
p1874
I1
sS'nations'
p1875
I3
sS'project'
p1876
I10
sS'merck'
p1877
I1
sS'expo'
p1878
I7
sS'sheen'
p1879
I1
sS'silverstein'
p1880
I1
sS'mini'
p1881
I1
sS'fashion'
p1882
I2
sS'sees'
p1883
I2
sS'lawyer'
p1884
I2
sS'gazproms'
p1885
I1
sS'navigate'
p1886
I1
sS'ram'
p1887
I2
sS'paddles'
p1888
I1
sS'assange'
p1889
I2
sS'souris'
p1890
I1
sS'shell'
p1891
I1
sS'chura'
p1892
I1
sS'onlive'
p1893
I1
sS'lautsprecher'
p1894
I1
sS'reprieve'
p1895
I1
sS'rebrand'
p1896
I1
sS'responsible'
p1897
I2
sS'snow'
p1898
I2
sS'investment'
p1899
I8
sS'recommended'
p1900
I1
sS'materials'
p1901
I2
sS'lumpur'
p1902
I2
sS'paris'
p1903
I1
sS'layoffs'
p1904
I1
sS'workforce'
p1905
I1
sS'transactions'
p1906
I1
sS'iceland'
p1907
I1
sS'object'
p1908
I1
sS'wells'
p1909
I3
sS'germany'
p1910
I5
sS'letter'
p1911
I1
sS'entry'
p1912
I2
sS'phase'
p1913
I3
sS'drought'
p1914
I1
sS'tibetan'
p1915
I1
sS'germans'
p1916
I1
sS'glow'
p1917
I1
sS'zealand'
p1918
I1
sS'consumers'
p1919
I6
sS'rogers'
p1920
I1
sS'released'
p1921
I1
sS'emailing'
p1922
I2
sS'tanzania'
p1923
I1
sS'displayedshare'
p1924
I1
sS'points'
p1925
I2
sS'enterprise'
p1926
I1
sS'newsfeed'
p1927
I1
sS'epa'
p1928
I1
sS'lancashire'
p1929
I3
sS'dow'
p1930
I1
sS'trials'
p1931
I1
sS'silber'
p1932
I1
sS'pope'
p1933
I5
sS'hunger'
p1934
I1
sS'ringtones'
p1935
I1
sS'visitor'
p1936
I1
sS'labels'
p1937
I1
sS'religions'
p1938
I1
sS'radio'
p1939
I5
sS'solutions'
p1940
I6
sS'sexism'
p1941
I1
sS'keywords'
p1942
I2
sS'hungary'
p1943
I2
sS'nevada'
p1944
I1
sS'northeast'
p1945
I3
sS'menu'
p1946
I1
sS'guidance'
p1947
I1
sS'unemployment'
p1948
I1
sS'fhfa'
p1949
I1
sS'kessler'
p1950
I1
sS'rico'
p1951
I1
sS'bush'
p1952
I1
sS'rick'
p1953
I3
sS'integrate'
p1954
I3
sS'announce'
p1955
I2
sS'rss'
p1956
I7
sS'exports'
p1957
I1
sS'dj'
p1958
I3
sS'asbestos'
p1959
I1
sS'honda'
p1960
I4
sS'stop'
p1961
I2
sS'dc'
p1962
I20
sS'integrity'
p1963
I1
sS'coast'
p1964
I1
sS'amazon'
p1965
I2
sS'anxious'
p1966
I1
sS'dansk'
p1967
I1
sS'societies'
p1968
I1
sS'hall'
p1969
I1
sS'runs'
p1970
I1
sS'bar'
p1971
I1
sS'autistic'
p1972
I1
sS'covering'
p1973
I7
sS'fields'
p1974
I1
sS'fighters'
p1975
I2
sS'patch'
p1976
I19
sS'shots'
p1977
I1
sS'ban'
p1978
I2
sS'metadata'
p1979
I1
sS'gigaom'
p1980
I1
sS'playstation'
p1981
I1
sS'disaster'
p1982
I2
sS'fair'
p1983
I6
sS'testing'
p1984
I1
sS'analytics'
p1985
I1
sS'izon'
p1986
I1
sS'fail'
p1987
I1
sS'iran'
p1988
I1
sS'frontline'
p1989
I1
sS'subject'
p1990
I1
sS'voyage'
p1991
I1
sS'capacity'
p1992
I1
sS'wikipedia'
p1993
I3
sS'patients'
p1994
I5
sS'xvi'
p1995
I1
sS'tainted'
p1996
I1
sS'discovers'
p1997
I1
sS'erlong'
p1998
I1
sS'college'
p1999
I20
sS'menschen'
p2000
I1
sS'terms'
p2001
I5
sS'nationwide'
p2002
I1
sS'supports'
p2003
I2
sS'loading'
p2004
I24
sS'carbon'
p2005
I2
sS'debt'
p2006
I1
sS'received'
p2007
I1
sS'climate'
p2008
I1
sS'planner'
p2009
I2
sS'bloggers'
p2010
I1
sS'adapter'
p2011
I2
sS'readers'
p2012
I1
sS'heating'
p2013
I1
sS'und'
p2014
I2
sS'receives'
p2015
I5
sS'faces'
p2016
I1
sS'requests'
p2017
I1
sS'blackvoices'
p2018
I19
sS'libyan'
p2019
I1
sS'goodrich'
p2020
I1
sS'initiative'
p2021
I3
sS'chahine'
p2022
I1
sS'tony'
p2023
I1
sS'speak'
p2024
I1
sS'code'
p2025
I4
sS'signals'
p2026
I1
sS'iraq'
p2027
I2
sS'beef'
p2028
I1
sS'union'
p2029
I1
sS'buffett'
p2030
I1
sS'beneficiary'
p2031
I1
sS'beer'
p2032
I1
sS'noem'
p2033
I1
sS'pro'
p2034
I1
sS'monavie'
p2035
I1
sS'exhibition'
p2036
I12
sS'website'
p2037
I2
sS'families'
p2038
I1
sS'drugs'
p2039
I6
sS'republicans'
p2040
I2
sS'worker'
p2041
I1
sS'tajikistan'
p2042
I1
sS'transatlantic'
p2043
I1
sS'lift'
p2044
I1
sS'child'
p2045
I2
sS'aviation'
p2046
I2
sS'mortgage'
p2047
I2
sS'tank'
p2048
I1
sS'launches'
p2049
I14
sS'noi'
p2050
I1
sS'air'
p2051
I7
sS'radiohalterung'
p2052
I1
sS'seeds'
p2053
I2
sS'aid'
p2054
I1
sS'property'
p2055
I5
sS'flooding'
p2056
I4
sS'radarplus'
p2057
I2
sS'launched'
p2058
I1
sS'biotech'
p2059
I2
sS'settles'
p2060
I1
sS'hunan'
p2061
I1
sS'mexico'
p2062
I3
sS'accessories'
p2063
I1
sS'player'
p2064
I4
sS'tissue'
p2065
I1
sS'im'
p2066
I1
sS'id'
p2067
I1
sS'disappear'
p2068
I1
sS'grown'
p2069
I2
sS'dhl'
p2070
I1
sS'bottles'
p2071
I2
sS'patent'
p2072
I1
sS'yellow'
p2073
I20
sS'xicheng'
p2074
I1
sS'damages'
p2075
I1
sS'bid'
p2076
I4
sS'european'
p2077
I12
sS'independent'
p2078
I2
sS'satellite'
p2079
I1
sS'social'
p2080
I16
sS'speakers'
p2081
I2
sS'buyback'
p2082
I1
sS'producers'
p2083
I1
sS'characters'
p2084
I2
sS'kia'
p2085
I2
sS'programs'
p2086
I2
sS'charlie'
p2087
I1
sS'failing'
p2088
I1
sS'charity'
p2089
I1
sS'client'
p2090
I1
sS'cigna'
p2091
I1
sS'roma'
p2092
I1
sS'romn'
p2093
I1
sS'claims'
p2094
I3
sS'alabama'
p2095
I1
sS'settimeout'
p2096
I1
sS'investments'
p2097
I1
sS'left'
p2098
I2
sS'seasonal'
p2099
I2
sS'opinions'
p2100
I2
sS'videoshare'
p2101
I1
sS'proposed'
p2102
I1
sS'yen'
p2103
I1
sS'photo'
p2104
I6
sS'distribute'
p2105
I2
sS'proposes'
p2106
I1
sS'toraw'
p2107
I2
sS'identify'
p2108
I1
sS'malta'
p2109
I1
sS'human'
p2110
I4
sS'trestles'
p2111
I1
sS'swahili'
p2112
I1
sS'adding'
p2113
I1
sS'eli'
p2114
I1
sS'bhutan'
p2115
I1
sS'equipment'
p2116
I1
sS'royal'
p2117
I1
sS'board'
p2118
I5
sS'prison'
p2119
I1
sS'contestant'
p2120
I1
sS'save'
p2121
I3
sS'wissen'
p2122
I1
sS'buttontweet'
p2123
I1
sS'awaydelhi'
p2124
I1
sS'boxen'
p2125
I1
sS'arab'
p2126
I1
sS'eigene'
p2127
I1
sS'cape'
p2128
I2
sS'designers'
p2129
I1
sS'advanced'
p2130
I1
sS'reconsidering'
p2131
I1
sS'alimta'
p2132
I1
sS'exxon'
p2133
I2
sS'mansions'
p2134
I1
sS'orlando'
p2135
I1
sS'shimal'
p2136
I1
sS'xbox'
p2137
I1
sS'guiyang'
p2138
I1
sS'steps'
p2139
I2
sS'night'
p2140
I1
sS'security'
p2141
I5
sS'battlefield'
p2142
I1
sS'appliances'
p2143
I1
sS'deal'
p2144
I8
sS'staff'
p2145
I1
sS'congos'
p2146
I1
sS'dead'
p2147
I3
sS'eyeing'
p2148
I2
sS'malaysia'
p2149
I1
sS'pain'
p2150
I2
sS'contests'
p2151
I1
sS'bottom'
p2152
I1
sS'notification'
p2153
I1
sS'creative'
p2154
I3
sS'tracker'
p2155
I1
sS'unit'
p2156
I2
sS'beating'
p2157
I2
sS'taiwans'
p2158
I1
sS'proactivediv'
p2159
I1
sS'marketing'
p2160
I4
sS'dental'
p2161
I2
sS'hubei'
p2162
I1
sS'metastatic'
p2163
I2
sS'corp'
p2164
I3
sS'confrontation'
p2165
I1
sS'losing'
p2166
I2
sS'manufacturing'
p2167
I6
sS'tyntec'
p2168
I1
sS'tyres'
p2169
I1
sS'limitation'
p2170
I1
sS'census'
p2171
I1
sS'attacks'
p2172
I2
sS'months'
p2173
I1
sS'accepts'
p2174
I1
sS'magazine'
p2175
I1
sS'islands'
p2176
I1
sS'efforts'
p2177
I2
sS'palestinians'
p2178
I2
sS'associatedpress'
p2179
I1
sS'discharging'
p2180
I1
sS'statements'
p2181
I1
sS'publishing'
p2182
I1
sS'facility'
p2183
I2
sS'civil'
p2184
I1
sS'intellectual'
p2185
I2
sS'son'
p2186
I1
sS'tribune'
p2187
I1
sS'raises'
p2188
I2
sS'dreamliners'
p2189
I1
sS'rely'
p2190
I3
sS'lashes'
p2191
I1
sS'lunar'
p2192
I1
sS'support'
p2193
I6
sS'tennis'
p2194
I1
sS'legislation'
p2195
I1
sS'fight'
p2196
I3
sS'virgin'
p2197
I1
sS'clinical'
p2198
I2
sS'music'
p2199
I6
sS'war'
p2200
I3
sS'offer'
p2201
I2
sS'pollster'
p2202
I19
sS'spike'
p2203
I3
sS'ford'
p2204
I2
sS'wireless'
p2205
I1
sS'lows'
p2206
I1
sS'solar'
p2207
I4
sS'survive'
p2208
I1
sS'vietnamese'
p2209
I1
sS'approval'
p2210
I4
sS'tinto'
p2211
I1
sS'assessment'
p2212
I1
sS'inside'
p2213
I2
sS'maximum'
p2214
I1
sS'polski'
p2215
I1
sS'supplied'
p2216
I2
sS'url'
p2217
I1
sS'anacortes'
p2218
I1
sS'delete'
p2219
I1
sS'extrasslideshowdata'
p2220
I1
sS'bohai'
p2221
I1
sS'tournament'
p2222
I1
sS'drive'
p2223
I1
sS'agodana'
p2224
I1
sS'floating'
p2225
I1
sS'check'
p2226
I3
sS'ni'
p2227
I1
sS'pollthe'
p2228
I1
sS'glacier'
p2229
I1
sS'stake'
p2230
I2
sS'generally'
p2231
I1
sS'ne'
p2232
I1
sS'actor'
p2233
I2
sS'reality'
p2234
I1
sS'flood'
p2235
I5
sS'interested'
p2236
I1
sS'role'
p2237
I1
sS'oscar'
p2238
I1
sS'test'
p2239
I1
sS'tie'
p2240
I1
sS'andorra'
p2241
I1
sS'developers'
p2242
I1
sS'picture'
p2243
I1
sS'cinio'
p2244
I1
sS'models'
p2245
I2
sS'update'
p2246
I8
sS'authorities'
p2247
I1
sS'billion'
p2248
I9
sS'fsa'
p2249
I1
sS'twitterplease'
p2250
I1
sS'vietnam'
p2251
I1
sS'push'
p2252
I3
sS'profits'
p2253
I1
sS'cessna'
p2254
I1
sS'customary'
p2255
I1
sS'ron'
p2256
I1
sS'diplomacy'
p2257
I1
sS'skip'
p2258
I1
sS'rob'
p2259
I1
sS'focus'
p2260
I2
sS'leads'
p2261
I3
sS'manager'
p2262
I1
sS'medalist'
p2263
I1
sS'skin'
p2264
I3
sS'llc'
p2265
I3
sS'mill'
p2266
I1
sS'row'
p2267
I1
sS'disorders'
p2268
I1
sS'graph'
p2269
I1
sS'flash'
p2270
I5
sS'editors'
p2271
I4
sS'environment'
p2272
I4
sS'charge'
p2273
I12
sS'marks'
p2274
I3
sS'terror'
p2275
I1
sS'suffered'
p2276
I1
sS'goodyear'
p2277
I1
sS'southwest'
p2278
I1
sS'automarken'
p2279
I1
sS'outposts'
p2280
I1
sS'paychecks'
p2281
I1
sS'federation'
p2282
I2
sS'md'
p2283
I1
sS'sponsors'
p2284
I1
sS'vegan'
p2285
I1
sS'liability'
p2286
I1
sS'ideacentre'
p2287
I1
sS'vegas'
p2288
I1
sS'mourn'
p2289
I1
sS'entries'
p2290
I1
sS'cook'
p2291
I1
sS'ma'
p2292
I1
sS'blast'
p2293
I1
sS'exact'
p2294
I1
sS'silcolease'
p2295
I1
sS'governments'
p2296
I3
sS'aggressively'
p2297
I1
sS'din'
p2298
I1
sS'respiratory'
p2299
I1
sS'clouds'
p2300
I1
sS'portugal'
p2301
I1
sS'presented'
p2302
I1
sS'die'
p2303
I3
sS'dig'
p2304
I1
sS'posts'
p2305
I3
sS'tkt'
p2306
I1
sS'keepers'
p2307
I1
sS'standards'
p2308
I4
sS'bikers'
p2309
I1
sS'item'
p2310
I1
sS'excellence'
p2311
I1
sS'subway'
p2312
I1
sS'defaults'
p2313
I1
sS'team'
p2314
I8
sS'quick'
p2315
I1
sS'round'
p2316
I1
sS'fujian'
p2317
I1
sS'prevent'
p2318
I1
sS'olympic'
p2319
I2
sS'alfa'
p2320
I2
sS'findings'
p2321
I1
sS'tougher'
p2322
I1
sS'trend'
p2323
I2
sS'gasoline'
p2324
I1
sS'injunction'
p2325
I1
sS'discover'
p2326
I1
sS'cyber'
p2327
I1
sS'cost'
p2328
I1
sS'talker'
p2329
I1
sS'documentwidth'
p2330
I1
sS'targets'
p2331
I1
sS'drinks'
p2332
I1
sS'afghanistan'
p2333
I3
sS'adds'
p2334
I2
sS'antwerp'
p2335
I1
sS'contracted'
p2336
I1
sS'mall'
p2337
I1
sS'shares'
p2338
I16
sS'landslides'
p2339
I1
sS'current'
p2340
I2
sS'somalia'
p2341
I1
sS'template'
p2342
I1
sS'appeal'
p2343
I1
sS'celebrates'
p2344
I2
sS'corn'
p2345
I1
sS'era'
p2346
I1
sS'hairy'
p2347
I1
sS'supporting'
p2348
I5
sS'transportation'
p2349
I7
sS'guangzhou'
p2350
I5
sS'french'
p2351
I5
sS'understanding'
p2352
I1
sS'water'
p2353
I5
sS'kenyatta'
p2354
I1
sS'groups'
p2355
I2
sS'address'
p2356
I2
sS'apache'
p2357
I2
sS'portugus'
p2358
I3
sS'toolbar'
p2359
I1
sS'wait'
p2360
I2
sS'box'
p2361
I1
sS'boy'
p2362
I2
sS'male'
p2363
I2
sS'sheriff'
p2364
I1
sS'canadian'
p2365
I3
sS'institute'
p2366
I4
sS'rethink'
p2367
I1
sS'dublin'
p2368
I1
sS'queue'
p2369
I2
sS'brazilian'
p2370
I2
sS'cargill'
p2371
I1
sS'replycharacters'
p2372
I1
sS'plc'
p2373
I1
sS'history'
p2374
I4
sS'navigation'
p2375
I1
sS'easyjet'
p2376
I2
sS'teenage'
p2377
I1
sS'love'
p2378
I1
sS'extra'
p2379
I2
sS'ethiopian'
p2380
I1
sS'ipo'
p2381
I1
sS'italiano'
p2382
I1
sS'kayak'
p2383
I1
sS'licensing'
p2384
I1
sS'signaturehome'
p2385
I1
sS'mobil'
p2386
I2
sS'crisis'
p2387
I3
sS'market'
p2388
I31
sS'hotels'
p2389
I1
sS'einpresswire'
p2390
I1
sS'sake'
p2391
I1
sS'allget'
p2392
I64
sS'angry'
p2393
I1
sS'give'
p2394
I2
sS'visit'
p2395
I2
sS'angela'
p2396
I1
sS'france'
p2397
I1
sS'insider'
p2398
I1
sS'live'
p2399
I8
sS'iphone'
p2400
I1
sS'https'
p2401
I1
sS'memory'
p2402
I1
sS'films'
p2403
I2
sS'pret'
p2404
I1
sS'australian'
p2405
I4
sS'saks'
p2406
I1
sS'sharing'
p2407
I1
sS'symantec'
p2408
I1
sS'continue'
p2409
I1
sS'sessions'
p2410
I1
sS'freestyle'
p2411
I1
sS'refrain'
p2412
I1
sS'fuel'
p2413
I2
sS'cases'
p2414
I1
sS'effort'
p2415
I2
sS'insights'
p2416
I1
sS'fly'
p2417
I1
sS'organizations'
p2418
I1
sS'graphic'
p2419
I4
sS'tokyo'
p2420
I3
sS'alterra'
p2421
I1
sS'local'
p2422
I23
sS'facilitating'
p2423
I2
sS'flu'
p2424
I3
sS'believes'
p2425
I5
sS'wallet'
p2426
I1
sS'printing'
p2427
I1
sS'drags'
p2428
I1
sS'cam'
p2429
I1
sS'growing'
p2430
I2
sS'lubricant'
p2431
I2
sS'jinkosolar'
p2432
I1
sS'esky'
p2433
I1
sS'heart'
p2434
I1
sS'stream'
p2435
I2
sS'uruguay'
p2436
I1
sS'predict'
p2437
I1
sS'attribute'
p2438
I1
sS'chip'
p2439
I2
sS'newsletters'
p2440
I3
sS'nascar'
p2441
I1
sS'topic'
p2442
I23
sS'stroke'
p2443
I1
sS'contrave'
p2444
I2
sS'allowed'
p2445
I1
sS'dennis'
p2446
I1
sS'clothing'
p2447
I1
sS'pink'
p2448
I1
sS'winter'
p2449
I1
sS'discussion'
p2450
I4
sS'ping'
p2451
I1
sS'alzheimers'
p2452
I1
sS'chemical'
p2453
I3
sS'sunday'
p2454
I1
sS'parameter'
p2455
I1
sS'taco'
p2456
I1
sS'asml'
p2457
I1
sS'map'
p2458
I2
sS'product'
p2459
I3
sS'mar'
p2460
I2
sS'huge'
p2461
I6
sS'dive'
p2462
I3
sS'aol'
p2463
I19
sS'spot'
p2464
I1
sS'applications'
p2465
I6
sS'mac'
p2466
I1
sS'produce'
p2467
I4
sS'designed'
p2468
I5
sS'commit'
p2469
I1
sS'date'
p2470
I2
sS'wikileaks'
p2471
I1
sS'mak'
p2472
I2
sS'data'
p2473
I12
sS'grow'
p2474
I1
sS'mao'
p2475
I1
sS'man'
p2476
I6
sS'gorges'
p2477
I1
sS'csx'
p2478
I1
sS'natural'
p2479
I10
sS'varieties'
p2480
I1
sS'liquid'
p2481
I1
sS'sept'
p2482
I1
sS'futures'
p2483
I4
sS'thissign'
p2484
I4
sS'sk'
p2485
I1
sS'provide'
p2486
I3
sS'mango'
p2487
I8
sS'truck'
p2488
I4
sS'african'
p2489
I14
sS'invests'
p2490
I1
sS'talk'
p2491
I1
sS'exclusive'
p2492
I1
sS'ulan'
p2493
I1
sS'tomlin'
p2494
I1
sS'words'
p2495
I1
sS'canberra'
p2496
I1
sS'blocker'
p2497
I1
sS'anthrazit'
p2498
I1
sS'logged'
p2499
I1
sS'reaffirms'
p2500
I1
sS'argues'
p2501
I1
sS'brain'
p2502
I1
sS'statistical'
p2503
I1
sS'cuts'
p2504
I8
sS'kanye'
p2505
I1
sS'irene'
p2506
I1
sS'birds'
p2507
I1
sS'cola'
p2508
I1
sS'machine'
p2509
I1
sS'police'
p2510
I5
sS'monitor'
p2511
I1
sS'acknowledge'
p2512
I2
sS'willow'
p2513
I1
sS'interesting'
p2514
I1
sS'seegrid'
p2515
I1
sS'jim'
p2516
I1
sS'platform'
p2517
I6
sS'window'
p2518
I4
sS'offers'
p2519
I5
sS'farmer'
p2520
I2
sS'tweets'
p2521
I1
sS'main'
p2522
I2
sS'texas'
p2523
I6
sS'kidron'
p2524
I1
sS'finance'
p2525
I4
sS'views'
p2526
I3
sS'smarter'
p2527
I1
sS'killer'
p2528
I1
sS'introduce'
p2529
I1
sS'nation'
p2530
I2
sS'records'
p2531
I1
sS'taliban'
p2532
I1
sS'drilling'
p2533
I7
sS'safari'
p2534
I2
sS'half'
p2535
I20
sS'killed'
p2536
I2
sS'permissions'
p2537
I1
sS'taishan'
p2538
I1
sS'execute'
p2539
I1
sS'latinovoices'
p2540
I19
sS'trucks'
p2541
I1
sS'james'
p2542
I1
sS'drop'
p2543
I2
sS'engadget'
p2544
I19
sS'boehner'
p2545
I1
sS'cadence'
p2546
I1
sS'denmark'
p2547
I1
sS'instability'
p2548
I1
sS'amnesty'
p2549
I1
sS'quarter'
p2550
I5
sS'el'
p2551
I1
sS'domain'
p2552
I1
sS'fired'
p2553
I1
sS'revised'
p2554
I1
sS'webinar'
p2555
I8
sS'hitmen'
p2556
I1
sS'challenges'
p2557
I2
sS'trademark'
p2558
I1
sS'speculators'
p2559
I1
sS'eu'
p2560
I19
sS'ev'
p2561
I1
sS'disasters'
p2562
I2
sS'plans'
p2563
I13
sS'naked'
p2564
I2
sS'shown'
p2565
I2
sS'container'
p2566
I1
sS'gamers'
p2567
I1
sS'webcasts'
p2568
I1
sS'space'
p2569
I2
sS'profit'
p2570
I4
sS'oklahoma'
p2571
I4
sS'factory'
p2572
I1
sS'cancels'
p2573
I1
sS'increase'
p2574
I5
sS'bln'
p2575
I1
sS'internet'
p2576
I10
sS'theory'
p2577
I1
sS'ezchip'
p2578
I1
sS'xinlong'
p2579
I1
sS'commons'
p2580
I3
sS'cari'
p2581
I1
sS'california'
p2582
I10
sS'yuri'
p2583
I1
sS'trademarks'
p2584
I1
sS'warrantless'
p2585
I1
sS'repurchase'
p2586
I1
sS'quits'
p2587
I1
sS'ore'
p2588
I1
sS'card'
p2589
I2
sS'care'
p2590
I6
sS'advance'
p2591
I1
sS'language'
p2592
I2
sS'ministry'
p2593
I2
sS'british'
p2594
I3
sS'autoblog'
p2595
I19
sS'initiate'
p2596
I1
sS'palaces'
p2597
I1
sS'closethe'
p2598
I1
sS'turf'
p2599
I1
sS'littlefair'
p2600
I3
sS'xl'
p2601
I1
sS'revenue'
p2602
I1
sS'parkinson'
p2603
I1
sS'americans'
p2604
I1
sS'fast'
p2605
I1
sS'directly'
p2606
I1
sS'invasion'
p2607
I1
sS'vote'
p2608
I2
sS'message'
p2609
I4
sS'open'
p2610
I5
sS'tomorrow'
p2611
I1
sS'engineer'
p2612
I1
sS'airbus'
p2613
I1
sS'city'
p2614
I8
sS'limited'
p2615
I4
sS'santander'
p2616
I1
sS'bite'
p2617
I1
sS'aboutthe'
p2618
I1
sS'plastic'
p2619
I2
sS'returns'
p2620
I1
sS'bluestar'
p2621
I1
sS'convention'
p2622
I1
sS'walid'
p2623
I1
sS'fmc'
p2624
I1
sS'friend'
p2625
I2
sS'nutrition'
p2626
I1
sS'eyes'
p2627
I1
sS'copa'
p2628
I1
sS'season'
p2629
I1
sS'taxation'
p2630
I1
sS'cops'
p2631
I1
sS'hillary'
p2632
I1
sS'hartford'
p2633
I1
sS'flexituff'
p2634
I1
sS'thai'
p2635
I1
sS'copy'
p2636
I2
sS'representing'
p2637
I1
sS'appreciated'
p2638
I1
sS'boulton'
p2639
I1
sS'connections'
p2640
I1
sS'television'
p2641
I1
sS'rugged'
p2642
I1
sS'require'
p2643
I2
sS'hsbc'
p2644
I1
sS'future'
p2645
I6
sS'accountorfill'
p2646
I1
sS'venture'
p2647
I1
sS'fruits'
p2648
I1
sS'cards'
p2649
I2
sS'poisoning'
p2650
I1
sS'wern'
p2651
I1
sS'browser'
p2652
I1
sS'talim'
p2653
I1
sS'cellulosic'
p2654
I1
sS'san'
p2655
I2
sS'investors'
p2656
I4
sS'zumz'
p2657
I1
sS'phrma'
p2658
I1
sS'medical'
p2659
I15
sS'sells'
p2660
I3
sS'sap'
p2661
I1
sS'nazi'
p2662
I1
sS'surgery'
p2663
I2
sS'pageinsightserror'
p2664
I7
sS'conversion'
p2665
I1
sS'greek'
p2666
I1
sS'efficient'
p2667
I2
sS'veteran'
p2668
I1
sS'shocked'
p2669
I1
sS'note'
p2670
I1
sS'sciences'
p2671
I1
sS'performance'
p2672
I3
sS'blunt'
p2673
I1
sS'registered'
p2674
I1
sS'channel'
p2675
I1
sS'aspen'
p2676
I1
sS'price'
p2677
I6
sS'falls'
p2678
I2
sS'visitors'
p2679
I1
sS'donation'
p2680
I1
sS'knee'
p2681
I1
sS'bombardier'
p2682
I1
sS'pages'
p2683
I23
sS'icon'
p2684
I2
sS'balilty'
p2685
I1
sS'neuro'
p2686
I1
sS'tilikum'
p2687
I1
sS'jakarta'
p2688
I1
sS'seafood'
p2689
I1
sS'sale'
p2690
I2
sS'spill'
p2691
I4
sS'julian'
p2692
I2
sS'federal'
p2693
I2
sS'conrad'
p2694
I1
sS'htld'
p2695
I1
sS'professional'
p2696
I1
sS'salt'
p2697
I1
sS'filing'
p2698
I1
sS'laws'
p2699
I1
sS'event'
p2700
I9
sS'momenta'
p2701
I1
sS'autoradioblende'
p2702
I1
sS'shot'
p2703
I1
sS'show'
p2704
I11
sS'german'
p2705
I3
sS'papal'
p2706
I1
sS'sites'
p2707
I4
sS'downpours'
p2708
I2
sS'elevate'
p2709
I1
sS'troy'
p2710
I24
sS'colombo'
p2711
I1
sS'corner'
p2712
I1
sS'label'
p2713
I1
sS'maine'
p2714
I1
sS'ground'
p2715
I1
sS'weapons'
p2716
I1
sS'helio'
p2717
I1
sS'upgrade'
p2718
I6
sS'villageby'
p2719
I1
sS'gulf'
p2720
I4
sS'title'
p2721
I1
sS'skits'
p2722
I1
sS'crime'
p2723
I19
sS'black'
p2724
I1
sS'helix'
p2725
I1
sS'sierra'
p2726
I1
sS'awareness'
p2727
I5
sS'carolina'
p2728
I6
sS'fda'
p2729
I2
sS'schleicher'
p2730
I1
sS'contracts'
p2731
I1
sS'biodiesel'
p2732
I1
sS'merkel'
p2733
I1
sS'azerbaijan'
p2734
I2
sS'badgenominate'
p2735
I1
sS'tailor'
p2736
I1
sS'conjunction'
p2737
I1
sS'celebrate'
p2738
I1
sS'prime'
p2739
I1
sS'reveal'
p2740
I2
sS'resource'
p2741
I1
sS'held'
p2742
I2
sS'floods'
p2743
I8
sS'morning'
p2744
I1
sS'isclosed'
p2745
I1
sS'hangzhou'
p2746
I1
sS'paper'
p2747
I3
sS'worries'
p2748
I1
sS'zahau'
p2749
I1
sS'discussing'
p2750
I1
sS'bulgaria'
p2751
I1
sS'reveals'
p2752
I2
sS'concert'
p2753
I1
sS'signs'
p2754
I2
sS'seat'
p2755
I4
sS'relative'
p2756
I1
sS'elected'
p2757
I1
sS'milsatcom'
p2758
I1
sS'membersites'
p2759
I1
sS'calendar'
p2760
I1
sS'sport'
p2761
I2
sS'fails'
p2762
I1
sS'cml'
p2763
I1
sS'registering'
p2764
I1
sS'managing'
p2765
I1
sS'review'
p2766
I5
sS'outsourcing'
p2767
I1
sS'forecast'
p2768
I4
sS'vaccines'
p2769
I1
sS'gaga'
p2770
I1
sS'import'
p2771
I4
sS'developer'
p2772
I3
sS'notice'
p2773
I1
sS'infrastructure'
p2774
I1
sS'august'
p2775
I6
sS'genetic'
p2776
I1
sS'style'
p2777
I22
sS'wednesday'
p2778
I4
sS'blame'
p2779
I1
sS'gnss'
p2780
I1
sS'twitterwill'
p2781
I1
sS'volcker'
p2782
I1
sS'awards'
p2783
I1
sS'wison'
p2784
I1
sS'hurts'
p2785
I1
sS'comeback'
p2786
I1
sS'cities'
p2787
I2
sS'tochina'
p2788
I1
sS'missions'
p2789
I1
sS'libya'
p2790
I3
sS'region'
p2791
I3
sS'parts'
p2792
I1
sS'berry'
p2793
I1
sS'pcs'
p2794
I1
sS'torrential'
p2795
I1
sS'pakistan'
p2796
I7
sS'key'
p2797
I3
sS'jonssonking'
p2798
I1
sS'overview'
p2799
I1
sS'mandate'
p2800
I1
sS'innovations'
p2801
I3
sS'mongolia'
p2802
I1
sS'learning'
p2803
I3
sS'article'
p2804
I3
sS'eads'
p2805
I1
sS'bokml'
p2806
I1
sS'adults'
p2807
I1
sS'tumour'
p2808
I1
sS'cycling'
p2809
I1
sS'wobble'
p2810
I1
sS'airlines'
p2811
I3
sS'mark'
p2812
I3
sS'tropical'
p2813
I2
sS'wherewereyou'
p2814
I1
sS'renewables'
p2815
I1
sS'income'
p2816
I1
sS'measles'
p2817
I1
sS'offered'
p2818
I1
sS'nikon'
p2819
I1
sS'photos'
p2820
I8
sS'geothermal'
p2821
I3
sS'minister'
p2822
I4
sS'gamble'
p2823
I1
sS'standard'
p2824
I1
sS'case'
p2825
I3
sS'developing'
p2826
I1
sS'cash'
p2827
I1
sS'profiles'
p2828
I2
sS'offbeat'
p2829
I1
sS'coca'
p2830
I1
sS'scum'
p2831
I1
sS'landslide'
p2832
I1
sS'trader'
p2833
I1
sS'franais'
p2834
I1
sS'nanning'
p2835
I1
sS'commentcharacters'
p2836
I1
sS'refinery'
p2837
I2
sS'affected'
p2838
I4
sS'ivy'
p2839
I1
sS'missiles'
p2840
I1
sS'pat'
p2841
I1
sS'author'
p2842
I3
sS'pay'
p2843
I1
sS'tort'
p2844
I1
sS'magyar'
p2845
I1
sS'archive'
p2846
I3
sS'html'
p2847
I1
sS'buys'
p2848
I1
sS'grain'
p2849
I1
sS'pak'
p2850
I1
sS'breakdown'
p2851
I1
sS'aljazeeraenglish'
p2852
I1
sS'administration'
p2853
I2
sS'edged'
p2854
I1
sS'singapore'
p2855
I8
sS'arctic'
p2856
I2
sS'assist'
p2857
I1
sS'driver'
p2858
I1
sS'drives'
p2859
I1
sS'director'
p2860
I1
sS'persons'
p2861
I1
sS'running'
p2862
I1
sS'cullen'
p2863
I1
sS'advertisement'
p2864
I1
sS'changing'
p2865
I2
sS'renewable'
p2866
I3
sS'ogeechee'
p2867
I1
sS'charges'
p2868
I1
sS'markup'
p2869
I1
sS'caterpillar'
p2870
I1
sS'severe'
p2871
I1
sS'costs'
p2872
I3
sS'relief'
p2873
I3
sS'bundesarchiv'
p2874
I1
sS'researchers'
p2875
I1
sS'summer'
p2876
I1
sS'alerts'
p2877
I3
sS'violence'
p2878
I1
sS'brisbane'
p2879
I1
sS'money'
p2880
I6
sS'inregister'
p2881
I1
sS'gavin'
p2882
I1
sS'ngos'
p2883
I1
sS'recycled'
p2884
I2
sS'kill'
p2885
I2
sS'rousseff'
p2886
I2
sS'captured'
p2887
I3
sS'weekly'
p2888
I2
sS'zhengzhou'
p2889
I1
sS'death'
p2890
I9
sS'application'
p2891
I4
sS'mcdonald'
p2892
I1
sS'bollywood'
p2893
I2
sS'geological'
p2894
I1
sS'blog'
p2895
I22
sS'jiuzhaigou'
p2896
I1
sS'bioenergy'
p2897
I2
sS'perth'
p2898
I1
sS'association'
p2899
I6
sS'realfeel'
p2900
I1
sS'potash'
p2901
I1
sS'poised'
p2902
I1
sS'tuesday'
p2903
I1
sS'careers'
p2904
I1
sS'kingdom'
p2905
I1
sS'socialist'
p2906
I1
sS'schwarzenegger'
p2907
I1
sS'kills'
p2908
I2
sS'rules'
p2909
I1
sS'delhi'
p2910
I1
sS'virginia'
p2911
I2
sS'early'
p2912
I1
sS'dari'
p2913
I1
sS'inflation'
p2914
I2
sS'grid'
p2915
I1
sS'schedules'
p2916
I1
sS'execution'
p2917
I2
sS'lady'
p2918
I2
sS'daewoo'
p2919
I2
sS'languagestimes'
p2920
I1
sS'mudslide'
p2921
I1
sS'ns'
p2922
I1
sS'patrick'
p2923
I1
sS'nissan'
p2924
I3
sS'unsourced'
p2925
I1
sS'amatil'
p2926
I1
sS'benefit'
p2927
I2
sS'maker'
p2928
I7
sS'clay'
p2929
I1
sS'output'
p2930
I2
sS'shirky'
p2931
I1
sS'cisco'
p2932
I1
sS'jews'
p2933
I1
sS'interdisciplinarity'
p2934
I2
sS'audiosocket'
p2935
I1
sS'pacific'
p2936
I3
sS'japanese'
p2937
I1
sS'nutrastar'
p2938
I1
sS'resorts'
p2939
I1
sS'images'
p2940
I1
sS'divine'
p2941
I1
sS'organizing'
p2942
I1
sS'provided'
p2943
I3
sS'oakland'
p2944
I1
sS'confirm'
p2945
I2
sS'sudan'
p2946
I2
sS'legal'
p2947
I6
sS'critical'
p2948
I2
sS'deficit'
p2949
I2
sS'optima'
p2950
I1
sS'biased'
p2951
I1
sS'assembly'
p2952
I2
sS'seconds'
p2953
I1
sS'sixth'
p2954
I1
sS'iconic'
p2955
I1
sS'dictators'
p2956
I1
sS'mediacorp'
p2957
I2
sS'monsoon'
p2958
I1
sS'pastors'
p2959
I1
sS'undercuts'
p2960
I1
sS'william'
p2961
I1
sS'stations'
p2962
I1
sS'island'
p2963
I4
sS'sri'
p2964
I1
sS'tumor'
p2965
I1
sS'airline'
p2966
I1
sS'act'
p2967
I1
sS'road'
p2968
I3
sS'gansu'
p2969
I1
sS'outlook'
p2970
I2
sS'protests'
p2971
I1
sS'burning'
p2972
I1
sS'communication'
p2973
I4
sS'image'
p2974
I4
sS'carey'
p2975
I1
sS'vigil'
p2976
I1
sS'references'
p2977
I1
sS'inbox'
p2978
I2
sS'parties'
p2979
I2
sS'adobe'
p2980
I3
sS'pirates'
p2981
I1
sS'pharmaceutical'
p2982
I1
sS'log'
p2983
I4
sS'area'
p2984
I2
sS'alleged'
p2985
I1
sS'start'
p2986
I1
sS'low'
p2987
I1
sS'stars'
p2988
I1
sS'house'
p2989
I8
sS'autoradios'
p2990
I1
sS'jones'
p2991
I1
sS'tycoon'
p2992
I1
sS'classifiedscopyright'
p2993
I1
sS'complete'
p2994
I6
sS'saatchi'
p2995
I1
sS'bacteria'
p2996
I1
sS'jun'
p2997
I2
sS'jul'
p2998
I3
sS'spider'
p2999
I1
sS'csm'
p3000
I1
sS'pericom'
p3001
I1
sS'mwst'
p3002
I2
sS'technologies'
p3003
I3
sS'promote'
p3004
I2
sS'october'
p3005
I2
sS'lionsgate'
p3006
I1
sS'emissions'
p3007
I1
sS'chidambaram'
p3008
I1
sS'agree'
p3009
I2
sS'toilet'
p3010
I1
sS'taylor'
p3011
I1
sS'ad'
p3012
I2
sS'videos'
p3013
I5
sS'youtube'
p3014
I3
sS'htmllink'
p3015
I1
sS'sales'
p3016
I4
sS'general'
p3017
I3
sS'ap'
p3018
I2
sS'britain'
p3019
I1
sS'file'
p3020
I3
sS'deed'
p3021
I1
sS'hospitals'
p3022
I2
sS'winaray'
p3023
I1
sS'film'
p3024
I2
sS'istanbul'
p3025
I1
sS'hybrid'
p3026
I1
sS'saturday'
p3027
I3
sS'field'
p3028
I1
sS'nasa'
p3029
I2
sS'oxfam'
p3030
I1
sS'ny'
p3031
I1
sS'poor'
p3032
I1
sS'congress'
p3033
I4
sS'separate'
p3034
I2
sS'nederlands'
p3035
I1
sS'peak'
p3036
I1
sS'brands'
p3037
I1
sS'stocks'
p3038
I4
sS'lundin'
p3039
I1
sS'assets'
p3040
I1
sS'calls'
p3041
I1
sS'invest'
p3042
I3
sS'cpc'
p3043
I1
sS'maliciously'
p3044
I2
sS'directors'
p3045
I1
sS'missouri'
p3046
I1
sS'apparel'
p3047
I1
sS'licensor'
p3048
I1
sS'resolution'
p3049
I1
sS'original'
p3050
I2
sS'bmw'
p3051
I3
sS'monte'
p3052
I1
sS'influenza'
p3053
I1
sS'forget'
p3054
I1
sS'founder'
p3055
I2
sS'byindiatimesabout'
p3056
I1
sS'sms'
p3057
I2
sS'pte'
p3058
I1
sS'rasul'
p3059
I1
sS'month'
p3060
I3
sS'thoughtful'
p3061
I1
sS'browsers'
p3062
I1
sS'tours'
p3063
I2
sS'pty'
p3064
I1
sS'talks'
p3065
I6
sS'follow'
p3066
I7
sS'settlement'
p3067
I3
sS'religious'
p3068
I4
sS'children'
p3069
I11
sS'kutcher'
p3070
I19
sS'synthetic'
p3071
I2
sS'semiconductor'
p3072
I2
sS'apartment'
p3073
I2
sS'auckland'
p3074
I1
sS'barrick'
p3075
I2
sS'nears'
p3076
I2
sS'participants'
p3077
I1
sS'alllikespolitics'
p3078
I1
sS'removal'
p3079
I2
sS'multiview'
p3080
I1
sS'tm'
p3081
I2
sS'dairy'
p3082
I2
sS'present'
p3083
I2
sS'ti'
p3084
I1
sS'alberta'
p3085
I1
sS'smile'
p3086
I1
sS'lawmakers'
p3087
I1
sS'crest'
p3088
I2
sS'mandela'
p3089
I1
sS'ghana'
p3090
I1
sS'activities'
p3091
I1
sS'khmer'
p3092
I1
sS'attribution'
p3093
I2
sS'returned'
p3094
I1
sS'song'
p3095
I1
sS'infringement'
p3096
I1
sS'horror'
p3097
I2
sS'rc'
p3098
I1
sS'amplifies'
p3099
I1
sS'lovenox'
p3100
I1
sS'rogue'
p3101
I1
sS'fan'
p3102
I1
sS'mps'
p3103
I5
sS'decide'
p3104
I1
sS'fall'
p3105
I9
sS'sony'
p3106
I1
sS'faa'
p3107
I1
sS'ticker'
p3108
I1
sS'exclusives'
p3109
I1
sS'neurological'
p3110
I1
sS'alma'
p3111
I1
sS'cable'
p3112
I1
sS'stimulus'
p3113
I1
sS'ageing'
p3114
I1
sS'celebrity'
p3115
I19
sS'applicable'
p3116
I2
sS'sliding'
p3117
I1
sS'scrapping'
p3118
I1
sS'mulondon'
p3119
I1
sS'saudi'
p3120
I2
sS'study'
p3121
I12
sS'mtvu'
p3122
I1
sS'cookies'
p3123
I1
sS'employing'
p3124
I1
sS'tel'
p3125
I3
sS'ten'
p3126
I1
sS'foundation'
p3127
I5
sS'tea'
p3128
I23
sS'valero'
p3129
I1
sS'synergy'
p3130
I1
sS'burger'
p3131
I1
sS'rate'
p3132
I5
sS'design'
p3133
I10
sS'arnold'
p3134
I1
sS'brillo'
p3135
I1
sS'query'
p3136
I1
sS'casual'
p3137
I1
sS'aba'
p3138
I1
sS'sue'
p3139
I5
sS'defence'
p3140
I1
sS'bridgestone'
p3141
I1
sS'richard'
p3142
I1
sS'investing'
p3143
I7
sS'magnolia'
p3144
I1
sS'anniversary'
p3145
I1
sS'testsieger'
p3146
I1
sS'monitorpatrik'
p3147
I1
sS'abu'
p3148
I1
sS'learned'
p3149
I1
sS'racing'
p3150
I1
sS'public'
p3151
I7
sS'movement'
p3152
I1
sS'full'
p3153
I5
sS'christian'
p3154
I3
sS'tags'
p3155
I1
sS'modify'
p3156
I1
sS'overactive'
p3157
I1
sS'hours'
p3158
I2
sS'voanews'
p3159
I1
sS'operating'
p3160
I2
sS'palin'
p3161
I3
sS'november'
p3162
I2
sS'strong'
p3163
I2
sS'valu'
p3164
I1
sS'publishes'
p3165
I1
sS'publisher'
p3166
I2
sS'bible'
p3167
I2
sS'zone'
p3168
I2
sS'ahead'
p3169
I1
sS'exablate'
p3170
I1
sS'compliance'
p3171
I1
sS'experience'
p3172
I2
sS'pics'
p3173
I1
sS'soldier'
p3174
I1
sS'airport'
p3175
I1
sS'advertising'
p3176
I5
sS'published'
p3177
I2
sS'action'
p3178
I7
sS'options'
p3179
I1
sS'trainer'
p3180
I1
sS'family'
p3181
I4
sS'semiconductors'
p3182
I1
sS'likeboxthe'
p3183
I1
sS'cosmetic'
p3184
I1
sS'aspi'
p3185
I5
sS'vip'
p3186
I1
sS'aimed'
p3187
I1
sS'vit'
p3188
I1
sS'toys'
p3189
I1
sS'pulls'
p3190
I1
sS'establish'
p3191
I1
sS'select'
p3192
I2
sS'suspensions'
p3193
I1
sS'shareholders'
p3194
I2
sS'sanjay'
p3195
I1
sS'takes'
p3196
I3
sS'petroleum'
p3197
I4
sS'finally'
p3198
I2
sS'archives'
p3199
I1
sS'upfacebook'
p3200
I1
sS'glaxo'
p3201
I1
sS'zzgl'
p3202
I2
sS'injury'
p3203
I2
sS'markets'
p3204
I17
sS'wipes'
p3205
I1
sS'minor'
p3206
I1
sS'teen'
p3207
I2
sS'flat'
p3208
I1
sS'israel'
p3209
I2
sS'durch'
p3210
I1
sS'mozilla'
p3211
I2
sS'emission'
p3212
I1
sS'atlas'
p3213
I2
sS'flag'
p3214
I1
sS'morethe'
p3215
I1
sS'webmaster'
p3216
I1
sS'include'
p3217
I3
sS'displayedplease'
p3218
I1
sS'hour'
p3219
I1
sS'science'
p3220
I4
sS'remain'
p3221
I1
sS'del'
p3222
I2
sS'resources'
p3223
I2
sS'den'
p3224
I1
sS'learn'
p3225
I1
sS'dea'
p3226
I2
sS'dec'
p3227
I1
sS'pick'
p3228
I1
sS'compare'
p3229
I1
sS'scam'
p3230
I1
sS'netbootcd'
p3231
I1
sS'suggestions'
p3232
I2
sS'collision'
p3233
I1
sS'minimum'
p3234
I1
sS'rainstorm'
p3235
I1
sS'numbers'
p3236
I1
sS'kenya'
p3237
I2
sS'cows'
p3238
I1
sS'pong'
p3239
I1
sS'lacks'
p3240
I1
sS'condemn'
p3241
I1
sS'concept'
p3242
I3
sS'silicon'
p3243
I1
sS'answer'
p3244
I1
sS'court'
p3245
I4
sS'zhang'
p3246
I1
sS'magpie'
p3247
I1
sS'maps'
p3248
I2
sS'earnings'
p3249
I3
sS'automotive'
p3250
I7
sS'surpasses'
p3251
I1
sS'dailymotionvideoscategoriescommunitycontestsfamily'
p3252
I1
sS'fr'
p3253
I2
sS'burhanuddin'
p3254
I1
sS'intended'
p3255
I2
sS'tattoo'
p3256
I1
sS'fy'
p3257
I1
sS'advice'
p3258
I3
sS'alibaba'
p3259
I2
sS'triumphs'
p3260
I1
sS'blood'
p3261
I3
sS'coming'
p3262
I3
sS'develop'
p3263
I1
sS'ethics'
p3264
I1
sS'lanka'
p3265
I2
sS'response'
p3266
I2
sS'fuzzibunz'
p3267
I1
sS'short'
p3268
I2
sS'enzymes'
p3269
I1
sS'coal'
p3270
I2
sS'responsibility'
p3271
I1
sS'nvidia'
p3272
I1
sS'banks'
p3273
I5
sS'redirecting'
p3274
I1
sS'playing'
p3275
I1
sS'mexican'
p3276
I2
sS'hyderabad'
p3277
I1
sS'developed'
p3278
I1
sS'joystiq'
p3279
I19
sS'mission'
p3280
I1
sS'indiaindiatimes'
p3281
I1
sS'disabled'
p3282
I2
sS'radar'
p3283
I2
sS'thermal'
p3284
I1
sS'embassy'
p3285
I2
sS'scott'
p3286
I1
sS'pdmrs'
p3287
I1
sS'committee'
p3288
I3
sS'committed'
p3289
I1
sS'urdu'
p3290
I1
sS'hell'
p3291
I2
sS'turbine'
p3292
I2
sS'mckinny'
p3293
I1
sS'astrology'
p3294
I1
sS'alle'
p3295
I1
sS'fined'
p3296
I2
sS'bangla'
p3297
I1
sS'pct'
p3298
I1
sS'late'
p3299
I1
sS'detected'
p3300
I2
sS'reuters'
p3301
I2
sS'systems'
p3302
I6
sS'argentina'
p3303
I1
sS'sauce'
p3304
I1
sS'mcilroy'
p3305
I1
sS'good'
p3306
I2
sS'commentemail'
p3307
I1
sS'ceo'
p3308
I11
sS'humans'
p3309
I1
sS'starbucks'
p3310
I1
sS'compound'
p3311
I1
sS'communities'
p3312
I1
sS'nowzoomyou'
p3313
I1
sS'chicago'
p3314
I21
sS'bigger'
p3315
I1
sS'mystery'
p3316
I1
sS'holiday'
p3317
I1
sS'rant'
p3318
I1
sS'athletica'
p3319
I1
sS'level'
p3320
I1
sS'capability'
p3321
I1
sS'token'
p3322
I1
sS'paula'
p3323
I1
sS'mastercard'
p3324
I1
sS'turns'
p3325
I3
sS'aligns'
p3326
I1
sS'found'
p3327
I4
sS'quintuple'
p3328
I1
sS'referred'
p3329
I1
sS'heavy'
p3330
I4
sS'england'
p3331
I2
sS'chevron'
p3332
I2
sS'generation'
p3333
I4
sS'jaws'
p3334
I1
sS'fish'
p3335
I3
sS'hard'
p3336
I1
sS'reduce'
p3337
I4
sS'idea'
p3338
I1
sS'gun'
p3339
I1
sS'mackenzie'
p3340
I1
sS'connect'
p3341
I20
sS'todd'
p3342
I1
sS'quantum'
p3343
I1
sS'advertisers'
p3344
I1
sS'gagana'
p3345
I1
sS'leave'
p3346
I2
sS'initiatives'
p3347
I1
sS'perry'
p3348
I6
sS'nepal'
p3349
I1
sS'publish'
p3350
I1
sS'faqs'
p3351
I1
sS'tomassive'
p3352
I1
sS'race'
p3353
I1
sS'krispy'
p3354
I1
sS'hill'
p3355
I20
sS'ministerial'
p3356
I1
sS'print'
p3357
I1
sS'caucasian'
p3358
I1
sS'denounces'
p3359
I1
sS'drink'
p3360
I2
sS'eliquis'
p3361
I1
sS'rabbani'
p3362
I1
sS'friday'
p3363
I2
sS'horse'
p3364
I1
sS'sonsini'
p3365
I1
sS'houses'
p3366
I2
sS'reason'
p3367
I1
sS'base'
p3368
I1
sS'imaging'
p3369
I1
sS'ase'
p3370
I1
sS'basa'
p3371
I1
sS'rises'
p3372
I1
sS'driven'
p3373
I1
sS'unique'
p3374
I2
sS'retained'
p3375
I2
sS'launch'
p3376
I7
sS'americas'
p3377
I3
sS'american'
p3378
I11
sS'elective'
p3379
I1
sS'threat'
p3380
I1
sS'divorce'
p3381
I2
sS'integra'
p3382
I1
sS'partnerships'
p3383
I1
sS'feed'
p3384
I7
sS'copper'
p3385
I1
sS'major'
p3386
I5
sS'usda'
p3387
I1
sS'encoding'
p3388
I1
sS'nach'
p3389
I1
sS'number'
p3390
I2
sS'fees'
p3391
I2
sS'wages'
p3392
I1
sS'mist'
p3393
I1
sS'carter'
p3394
I1
sS'passes'
p3395
I4
sS'story'
p3396
I3
sS'benedict'
p3397
I1
sS'leading'
p3398
I4
sS'tata'
p3399
I1
sS'rmb'
p3400
I1
sS'checkpoint'
p3401
I1
sS'station'
p3402
I1
sS'saint'
p3403
I1
sS'dealing'
p3404
I1
sS'conocophillips'
p3405
I1
sS'store'
p3406
I1
sS'headache'
p3407
I1
sS'storm'
p3408
I2
sS'hotel'
p3409
I2
sS'park'
p3410
I2
sS'chair'
p3411
I2
sS'typhoon'
p3412
I4
sS'licensed'
p3413
I1
sS'neuropathic'
p3414
I1
sS'king'
p3415
I1
sS'financing'
p3416
I3
sS'farming'
p3417
I1
sS'double'
p3418
I1
sS'slovenina'
p3419
I1
sS'kreme'
p3420
I1
sS'dtg'
p3421
I1
sS'dikes'
p3422
I1
sS'marriage'
p3423
I2
sS'risks'
p3424
I1
sS'kindle'
p3425
I1
sS'larkin'
p3426
I1
sS'treated'
p3427
I1
sS'crescent'
p3428
I1
sS'macau'
p3429
I1
sS'biggest'
p3430
I2
sS'download'
p3431
I1
sS'alike'
p3432
I1
sS'macaulay'
p3433
I1
sS'macao'
p3434
I1
sS'orders'
p3435
I2
sS'sell'
p3436
I1
sS'mountain'
p3437
I4
sS'dancing'
p3438
I1
sS'trip'
p3439
I1
sS'cave'
p3440
I1
sS'port'
p3441
I1
sS'internal'
p3442
I1
sS'chairman'
p3443
I1
sS'kleinman'
p3444
I2
sS'play'
p3445
I1
sS'hires'
p3446
I1
sS'electric'
p3447
I5
sS'serena'
p3448
I1
sS'cargo'
p3449
I1
sS'approves'
p3450
I1
sS'english'
p3451
I2
sS'reach'
p3452
I6
sS'cigarette'
p3453
I1
sS'perkier'
p3454
I1
sS'sponsored'
p3455
I1
sS'significant'
p3456
I1
sS'kay'
p3457
I1
sS'prestige'
p3458
I1
sS'strategies'
p3459
I1
sS'kb'
p3460
I1
sS'pg'
p3461
I1
sS'mobile'
p3462
I9
sS'humanitarian'
p3463
I1
sS'cover'
p3464
I1
sS'dentist'
p3465
I1
sS'bodies'
p3466
I1
sS'clean'
p3467
I5
sS'jordan'
p3468
I2
sS'saloon'
p3469
I1
sS'institutions'
p3470
I2
sS'sector'
p3471
I2
sS'wikinews'
p3472
I2
sS'thomas'
p3473
I1
sS'golf'
p3474
I3
sS'rebels'
p3475
I2
sS'gold'
p3476
I6
sS'cdc'
p3477
I4
sS'league'
p3478
I1
sS'swine'
p3479
I1
sS'businesses'
p3480
I7
sS'facebookpost'
p3481
I1
sS'headlines'
p3482
I3
sS'fine'
p3483
I1
sS'find'
p3484
I7
sS'unfuckable'
p3485
I1
sS'impact'
p3486
I20
sS'access'
p3487
I4
sS'giant'
p3488
I2
sS'northern'
p3489
I8
sS'distributed'
p3490
I1
sS'penalty'
p3491
I2
sS'flights'
p3492
I1
sS'indian'
p3493
I3
sS'fpso'
p3494
I1
sS'factor'
p3495
I3
sS'iec'
p3496
I1
sS'hutong'
p3497
I1
sS'columns'
p3498
I3
sS'hip'
p3499
I1
sS'toronto'
p3500
I1
sS'executive'
p3501
I1
sS'founding'
p3502
I1
sS'gains'
p3503
I1
sS'hiv'
p3504
I1
sS'permission'
p3505
I1
sS'sights'
p3506
I1
sS'express'
p3507
I1
sS'fastest'
p3508
I1
sS'silk'
p3509
I2
sS'xiamen'
p3510
I1
sS'motorcycles'
p3511
I1
sS'badge'
p3512
I1
sS'tumors'
p3513
I1
sS'banking'
p3514
I1
sS'investigate'
p3515
I1
sS'common'
p3516
I1
sS'activity'
p3517
I3
sS'river'
p3518
I4
sS'logistik'
p3519
I1
sS'restaurants'
p3520
I1
sS'set'
p3521
I5
sS'art'
p3522
I1
sS'backtrack'
p3523
I1
sS'zarlink'
p3524
I1
sS'startup'
p3525
I1
sS'jada'
p3526
I1
sS'sex'
p3527
I4
sS'culture'
p3528
I1
sS'individual'
p3529
I2
sS'migration'
p3530
I1
sS'sea'
p3531
I5
sS'jury'
p3532
I1
sS'arm'
p3533
I1
sS'autoradio'
p3534
I1
sS'shower'
p3535
I1
sS'lauren'
p3536
I1
sS'chinas'
p3537
I1
sS'visiting'
p3538
I1
sS'guinea'
p3539
I1
sS'libraries'
p3540
I1
sS'pickup'
p3541
I3
sS'barbados'
p3542
I1
sS'emirates'
p3543
I2
sS'conditions'
p3544
I5
sS'android'
p3545
I2
sS'popup'
p3546
I1
sS'responses'
p3547
I1
sS'pageinsightserroryou'
p3548
I8
sS'announcement'
p3549
I2
sS'keyboard'
p3550
I1
sS'sole'
p3551
I2
sS'disallow'
p3552
I1
sS'aircraft'
p3553
I1
sS'coffee'
p3554
I3
sS'pepsi'
p3555
I2
sS'dividend'
p3556
I1
sS'autolautsprecher'
p3557
I1
sS'license'
p3558
I4
sS'restaurant'
p3559
I3
sS'annual'
p3560
I9
sS'nanotech'
p3561
I1
sS'foreign'
p3562
I7
sS'connection'
p3563
I1
sS'zacks'
p3564
I1
sS'context'
p3565
I1
sS'finds'
p3566
I1
sS'experimental'
p3567
I1
sS'insurance'
p3568
I8
sS'bridge'
p3569
I2
sS'simple'
p3570
I4
sS'smith'
p3571
I1
sS'kilometers'
p3572
I1
sS'community'
p3573
I6
sS'improper'
p3574
I1
sS'likes'
p3575
I1
sS'shutdown'
p3576
I2
sS'church'
p3577
I4
sS'raw'
p3578
I2
sS'decline'
p3579
I2
sS'brics'
p3580
I2
sS'raise'
p3581
I3
sS'create'
p3582
I9
sS'political'
p3583
I12
sS'appears'
p3584
I1
sS'pc'
p3585
I2
sS'change'
p3586
I4
sS'ireland'
p3587
I5
sS'boston'
p3588
I1
sS'aruba'
p3589
I1
sS'meeting'
p3590
I4
sS'empty'
p3591
I1
sS'treatment'
p3592
I4
sS'firm'
p3593
I1
sS'flight'
p3594
I1
sS'gay'
p3595
I2
sS'fire'
p3596
I2
sS'dropout'
p3597
I1
sS'mine'
p3598
I2
sS'fund'
p3599
I4
sS'lives'
p3600
I2
sS'demand'
p3601
I1
sS'receive'
p3602
I6
sS'pact'
p3603
I1
sS'bild'
p3604
I1
sS'rds'
p3605
I1
sS'talking'
p3606
I1
sS'enrollment'
p3607
I1
sS'bill'
p3608
I7
sS'governor'
p3609
I1
sS'healthy'
p3610
I20
sS'smart'
p3611
I4
sS'fleet'
p3612
I4
sS'guide'
p3613
I2
sS'miles'
p3614
I2
sS'mailitimes'
p3615
I1
sS'voa'
p3616
I1
sS'employees'
p3617
I1
sS'voters'
p3618
I1
sS'vom'
p3619
I1
sS'von'
p3620
I1
sS'motors'
p3621
I1
sS'rio'
p3622
I1
sS'ready'
p3623
I2
sS'pagecreate'
p3624
I1
sS'audi'
p3625
I1
sS'aches'
p3626
I1
sS'emoticons'
p3627
I1
sS'raiders'
p3628
I1
sS'myth'
p3629
I1
sS'grant'
p3630
I1
sS'migraine'
p3631
I1
sS'irony'
p3632
I2
sS'textile'
p3633
I1
sS'spears'
p3634
I1
sS'bioenergia'
p3635
I1
sS'dhabi'
p3636
I1
sS'lawyers'
p3637
I2
sS'affairs'
p3638
I2
sS'blair'
p3639
I1
sS'levels'
p3640
I1
sS'moving'
p3641
I1
sS'purpose'
p3642
I3
sS'mesothelioma'
p3643
I1
sS'tobacco'
p3644
I2
sS'euro'
p3645
I4
sS'lululemon'
p3646
I1
sS'lower'
p3647
I1
sS'messagetime'
p3648
I1
sS'poland'
p3649
I2
sS'monaco'
p3650
I1
sS'analysis'
p3651
I1
sS'picks'
p3652
I22
sS'gaddafi'
p3653
I1
sS'organization'
p3654
I1
sS'gsk'
p3655
I1
sS'prevention'
p3656
I1
sS'lowers'
p3657
I1
sS'seminarby'
p3658
I1
sS'shareswashington'
p3659
I1
sS'macedonian'
p3660
I1
sS'ganzhou'
p3661
I1
sS'questions'
p3662
I3
sS'alternative'
p3663
I4
sS'summaries'
p3664
I1
sS'apple'
p3665
I2
sS'hotpot'
p3666
I2
sS'tables'
p3667
I1
sS'cut'
p3668
I2
sS'tablet'
p3669
I1
sS'cup'
p3670
I2
sS'recipient'
p3671
I2
sS'workers'
p3672
I3
sS'anova'
p3673
I1
sS'barack'
p3674
I1
sS'egypt'
p3675
I1
sS'governmental'
p3676
I1
sS'hyperlinks'
p3677
I1
sS'location'
p3678
I1
sS'honor'
p3679
I1
sS'submissions'
p3680
I1
sS'remaining'
p3681
I1
sS'build'
p3682
I6
sS'associations'
p3683
I1
sS'victims'
p3684
I1
sS'format'
p3685
I4
sS'big'
p3686
I4
sS'couple'
p3687
I2
sS'results'
p3688
I6
sS'matters'
p3689
I1
sS'game'
p3690
I2
sS'boost'
p3691
I3
sS'biz'
p3692
I1
sS'wii'
p3693
I1
sS'clemency'
p3694
I19
sS'commas'
p3695
I2
sS'disclose'
p3696
I1
sS'bis'
p3697
I1
sS'projects'
p3698
I2
sS'kyrgyzstan'
p3699
I1
sS'miptec'
p3700
I1
sS'toyota'
p3701
I6
sS'rainstorms'
p3702
I1
sS'collect'
p3703
I1
sS'arthur'
p3704
I1
sS'individuals'
p3705
I1
sS'essential'
p3706
I1
sS'sgl'
p3707
I1
sS'premium'
p3708
I2
sS'google'
p3709
I6
sS'gardening'
p3710
I1
sS'senate'
p3711
I3
sS'hinten'
p3712
I1
sS'back'
p3713
I8
sS'economic'
p3714
I7
sS'pricing'
p3715
I3
sS'zhouqu'
p3716
I1
sS'newsletter'
p3717
I3
sS'delivered'
p3718
I3
sS'qatar'
p3719
I1
sS'pet'
p3720
I1
sS'singing'
p3721
I1
sS'decision'
p3722
I2
sS'warnings'
p3723
I2
sS'integration'
p3724
I1
sS'chars'
p3725
I1
sS'run'
p3726
I1
sS'salmon'
p3727
I1
sS'lose'
p3728
I1
sS'continuing'
p3729
I1
sS'fed'
p3730
I4
sS'stem'
p3731
I1
sS'outdoor'
p3732
I2
sS'andreas'
p3733
I1
sS'bp'
p3734
I4
sS'optionsconnect'
p3735
I1
sS'carbide'
p3736
I1
sS'vaccine'
p3737
I4
sS'daimler'
p3738
I1
sS'roundup'
p3739
I1
sS'faith'
p3740
I1
sS'pipeline'
p3741
I6
sS'goods'
p3742
I1
sS'pepsico'
p3743
I2
sS'pfizer'
p3744
I1
sS'trucking'
p3745
I1
sS'pains'
p3746
I1
sS'livingsocial'
p3747
I1
sS'dwight'
p3748
I1
sS'block'
p3749
I1
sS'pollution'
p3750
I1
sS'disclosure'
p3751
I1
sS'colorado'
p3752
I4
sS'hometown'
p3753
I1
sS'ahmadinejad'
p3754
I1
sS'pentagon'
p3755
I1
sS'bankruptcy'
p3756
I1
sS'ontario'
p3757
I1
sS'computer'
p3758
I2
sS'spam'
p3759
I2
sS'spending'
p3760
I1
sS'capsizes'
p3761
I1
sS'long'
p3762
I1
sS'accountability'
p3763
I1
sS'pharmaceuticals'
p3764
I1
sS'vendors'
p3765
I1
sS'certification'
p3766
I2
sS'shel'
p3767
I1
sS'opens'
p3768
I1
sS'files'
p3769
I1
sS'fax'
p3770
I1
sS'peru'
p3771
I2
sS'etropole'
p3772
I1
sS'dips'
p3773
I1
sS'screven'
p3774
I1
sS'specialty'
p3775
I2
sS'calgary'
p3776
I1
sS'link'
p3777
I3
sS'library'
p3778
I1
sS'congratulates'
p3779
I1
sS'russian'
p3780
I4
sS'foursquarecreate'
p3781
I1
sS'line'
p3782
I4
sS'posted'
p3783
I3
sS'info'
p3784
I2
sS'patriot'
p3785
I1
sS'originals'
p3786
I1
sS'pickers'
p3787
I1
sS'dynamic'
p3788
I1
sS'planet'
p3789
I1
sS'windows'
p3790
I7
sS'exploration'
p3791
I1
sS'similar'
p3792
I1
sS'called'
p3793
I1
sS'bell'
p3794
I1
sS'cloudy'
p3795
I1
sS'nationalist'
p3796
I1
sS'soars'
p3797
I1
sS'doclose'
p3798
I1
sS'chan'
p3799
I1
sS'metals'
p3800
I1
sS'warning'
p3801
I1
sS'chat'
p3802
I1
sS'cotton'
p3803
I1
sS'rains'
p3804
I1
sS'peace'
p3805
I1
sS'fears'
p3806
I3
sS'beryl'
p3807
I1
sS'recognition'
p3808
I1
sS'radioblenden'
p3809
I1
sS'freighter'
p3810
I1
sS'emailsend'
p3811
I1
sS'users'
p3812
I3
sS'kansas'
p3813
I1
sS'thefts'
p3814
I1
sS'srpski'
p3815
I1
sS'regulations'
p3816
I1
sS'drag'
p3817
I1
sS'oregon'
p3818
I2
sS'eval'
p3819
I1
sS'prepares'
p3820
I1
sS'cooperate'
p3821
I2
sS'aggregated'
p3822
I1
sS'ago'
p3823
I2
sS'ge'
p3824
I3
sS'land'
p3825
I1
sS'fighter'
p3826
I1
sS'vice'
p3827
I2
sS'consumer'
p3828
I1
sS'rescued'
p3829
I1
sS'vehicles'
p3830
I1
sS'turbines'
p3831
I1
sS'microsoft'
p3832
I3
sS'summit'
p3833
I3
sS'rallies'
p3834
I1
sS'fresh'
p3835
I1
sS'zagg'
p3836
I1
sS'moveit'
p3837
I1
sS'speednews'
p3838
I2
sS'gt'
p3839
I1
sS'nowindiatimes'
p3840
I1
sS'receiver'
p3841
I1
sS'tokelau'
p3842
I1
sS'resistance'
p3843
I1
sS'farms'
p3844
I2
sS'renown'
p3845
I1
sS'edt'
p3846
I1
sS'gossip'
p3847
I1
sS'gm'
p3848
I8
sS'ammonia'
p3849
I1
sS'issues'
p3850
I7
sS'contacted'
p3851
I1
sS'earthbound'
p3852
I1
sS'turkish'
p3853
I3
sS'disposal'
p3854
I1
sS'description'
p3855
I1
sS'shanghai'
p3856
I2
sS'young'
p3857
I1
sS'send'
p3858
I5
sS'appointed'
p3859
I1
sS'outlooks'
p3860
I1
sS'helps'
p3861
I2
sS'soiree'
p3862
I1
sS'quarterly'
p3863
I3
sS'suite'
p3864
I1
sS'maryland'
p3865
I1
sS'lilly'
p3866
I1
sS'dramatically'
p3867
I1
sS'scarlett'
p3868
I1
sS'ingredient'
p3869
I1
sS'probe'
p3870
I2
sS'garden'
p3871
I3
sS'ophelia'
p3872
I1
sS'maas'
p3873
I1
sS'wave'
p3874
I1
sS'migrants'
p3875
I2
sS'zhejiang'
p3876
I1
sS'nanomaterials'
p3877
I1
sS'surgeon'
p3878
I1
sS'continued'
p3879
I1
sS'categories'
p3880
I2
sS'timely'
p3881
I1
sS'entire'
p3882
I1
sS'stiff'
p3883
I2
sS'gender'
p3884
I1
sS'button'
p3885
I2
sS'michael'
p3886
I3
sS'yangzhou'
p3887
I1
sS'deals'
p3888
I3
sS'indiapowered'
p3889
I1
sS'verdict'
p3890
I1
sS'obesity'
p3891
I2
sS'challenge'
p3892
I1
sS'disclaimer'
p3893
I1
sS'logistics'
p3894
I4
sS'jbht'
p3895
I1
sS'freight'
p3896
I1
sS'battle'
p3897
I1
sS'abortion'
p3898
I1
sS'participate'
p3899
I1
sS'sensation'
p3900
I1
sS'crop'
p3901
I1
sS'rivers'
p3902
I1
sS'jump'
p3903
I1
sS'glaxosmithkline'
p3904
I1
sS'picked'
p3905
I2
sS'plead'
p3906
I1
sS'licenses'
p3907
I1
sS'dynamics'
p3908
I2
sS'radon'
p3909
I1
sS'growers'
p3910
I2
sS'honors'
p3911
I1
sS'onsign'
p3912
I1
sS'universities'
p3913
I1
sS'index'
p3914
I12
sS'plays'
p3915
I2
sS'showcase'
p3916
I2
sS'giving'
p3917
I1
sS'piper'
p3918
I1
sS'cell'
p3919
I4
sS'consistently'
p3920
I1
sS'accuweather'
p3921
I2
sS'chickpeas'
p3922
I1
sS'microprocessor'
p3923
I1
sS'capital'
p3924
I2
sS'cimsa'
p3925
I1
sS'firms'
p3926
I3
sS'body'
p3927
I19
sS'led'
p3928
I1
sS'stance'
p3929
I1
sS'exchange'
p3930
I2
sS'commercial'
p3931
I4
sS'fla'
p3932
I1
sS'explore'
p3933
I1
sS'objects'
p3934
I1
sS'poverty'
p3935
I1
sS'tremor'
p3936
I1
sS'chinook'
p3937
I1
sS'saab'
p3938
I3
sS'great'
p3939
I2
sS'talent'
p3940
I1
sS'copyright'
p3941
I6
sS'survivor'
p3942
I1
sS'technical'
p3943
I1
sS'mclaren'
p3944
I1
sS'alaska'
p3945
I1
sS'leaving'
p3946
I1
sS'analitica'
p3947
I6
sS'opinion'
p3948
I4
sS'residents'
p3949
I1
sS'gene'
p3950
I3
sS'makes'
p3951
I3
sS'delays'
p3952
I1
sS'patents'
p3953
I1
sS'holmes'
p3954
I1
sS'examining'
p3955
I1
sS'named'
p3956
I3
sS'decentralized'
p3957
I1
sS'firefox'
p3958
I3
sS'addresses'
p3959
I2
sS'deputy'
p3960
I1
sS'apr'
p3961
I1
sS'win'
p3962
I2
sS'app'
p3963
I4
sS'manage'
p3964
I1
sS'supergrid'
p3965
I3
sS'nanjing'
p3966
I1
sS'outcomes'
p3967
I1
sS'homepage'
p3968
I2
sS'austria'
p3969
I1
sS'api'
p3970
I1
sS'names'
p3971
I1
sS'motor'
p3972
I3
sS'festivals'
p3973
I1
sS'sugar'
p3974
I1
sS'tools'
p3975
I1
sS'gateway'
p3976
I1
sS'cloud'
p3977
I2
sS'standing'
p3978
I1
sS'confidence'
p3979
I1
sS'usd'
p3980
I1
sS'feb'
p3981
I1
sS'gere'
p3982
I1
sS'illegal'
p3983
I1
sS'usj'
p3984
I1
sS'camera'
p3985
I1
sS'chu'
p3986
I1
sS'vehicle'
p3987
I1
sS'toy'
p3988
I1
sS'edgewood'
p3989
I1
sS'gop'
p3990
I26
sS'parliament'
p3991
I1
sS'dentists'
p3992
I1
sS'journalists'
p3993
I3
sS'baffled'
p3994
I1
sS'started'
p3995
I1
sS'silberalfa'
p3996
I1
sS'missile'
p3997
I1
sS'supplying'
p3998
I2
sS'dentistry'
p3999
I1
sS'sorl'
p4000
I1
sS'iii'
p4001
I2
sS'moses'
p4002
I1
sS'subscription'
p4003
I1
sS'customer'
p4004
I3
sS'sample'
p4005
I13
sS'account'
p4006
I3
sS'britney'
p4007
I1
sS'ride'
p4008
I1
sS'package'
p4009
I1
sS'recession'
p4010
I2
sS'reserves'
p4011
I2
sS'nixes'
p4012
I1
sS'microsemi'
p4013
I1
sS'drill'
p4014
I1
sS'meet'
p4015
I1
sS'closing'
p4016
I1
sS'drops'
p4017
I4
sS'control'
p4018
I4
sS'beijing'
p4019
I4
sS'guidechina'
p4020
I1
sS'tap'
p4021
I8
sS'slip'
p4022
I1
sS'process'
p4023
I2
sS'halloween'
p4024
I1
sS'purposes'
p4025
I2
sS'promotional'
p4026
I2
sS'high'
p4027
I5
sS'tag'
p4028
I1
sS'hilton'
p4029
I1
sS'shipping'
p4030
I1
sS'tab'
p4031
I1
sS'publicity'
p4032
I1
sS'voice'
p4033
I2
sS'hereinafter'
p4034
I1
sS'native'
p4035
I1
sS'sip'
p4036
I1
sS'chevrolet'
p4037
I2
sS'immigrants'
p4038
I1
sS'stewardship'
p4039
I1
sS'delay'
p4040
I1
sS'winners'
p4041
I1
sS'labor'
p4042
I2
sS'sie'
p4043
I1
sS'comedy'
p4044
I1
sS'afp'
p4045
I1
sS'memoir'
p4046
I1
sS'stock'
p4047
I6
sS'profile'
p4048
I1
sS'swedish'
p4049
I1
sS'de'
p4050
I1
sS'farm'
p4051
I6
sS'watch'
p4052
I1
sS'highs'
p4053
I1
sS'underway'
p4054
I1
sS'collection'
p4055
I4
sS'abuse'
p4056
I1
sS'leisure'
p4057
I1
sS'ethnic'
p4058
I1
sS'ties'
p4059
I1
sS'prostate'
p4060
I5
sS'tomato'
p4061
I1
sS'eritrea'
p4062
I1
sS'boeing'
p4063
I3
sS'light'
p4064
I2
sS'displayedwill'
p4065
I1
sS'robot'
p4066
I2
sS'commodities'
p4067
I1
sS'chief'
p4068
I2
sS'advocates'
p4069
I2
sS'foster'
p4070
I2
sS'software'
p4071
I5
sS'divided'
p4072
I2
sS'breast'
p4073
I4
sS'ignite'
p4074
I1
sS'houston'
p4075
I1
sS'nhuatlahtlli'
p4076
I1
sS'aiken'
p4077
I1
sS'move'
p4078
I4
sS'doubtful'
p4079
I1
sS'sikkimtn'
p4080
I1
sS'including'
p4081
I3
sS'motorcycle'
p4082
I1
sS'quake'
p4083
I2
sS'agricultural'
p4084
I1
sS'badges'
p4085
I1
sS'contaminated'
p4086
I1
sS'industries'
p4087
I1
sS'spotify'
p4088
I1
sS'revived'
p4089
I1
sS'reprint'
p4090
I1
sS'responsebatch'
p4091
I1
sS'lithuania'
p4092
I1
sS'winning'
p4093
I2
sS'mental'
p4094
I2
sS'usaid'
p4095
I1
sS'degrees'
p4096
I1
sS'choose'
p4097
I4
sS'wuyi'
p4098
I1
sS'puerto'
p4099
I1
sS'imbalance'
p4100
I1
sS'techcrunch'
p4101
I19
sS'eur'
p4102
I1
sS'crash'
p4103
I1
sS'dam'
p4104
I2
sS'lng'
p4105
I2
sS'material'
p4106
I1
sS'toshiba'
p4107
I1
sS'das'
p4108
I1
sS'front'
p4109
I21
sS'wheatstone'
p4110
I1
sS'republican'
p4111
I1
sS'flee'
p4112
I1
sS'handy'
p4113
I1
sS'presidential'
p4114
I5
sS'worlds'
p4115
I1
sS'edit'
p4116
I3
sS'warned'
p4117
I1
sS'commentadmin'
p4118
I4
sS'countries'
p4119
I5
sS'unpredictable'
p4120
I1
sS'doppel'
p4121
I1
sS'shortage'
p4122
I1
sS'bills'
p4123
I1
sS'medicines'
p4124
I1
sS'warner'
p4125
I2
sS'studios'
p4126
I1
sS'utilities'
p4127
I1
sS'sando'
p4128
I1
sS'liaoning'
p4129
I1
sS'related'
p4130
I1
sS'society'
p4131
I1
sS'books'
p4132
I21
sS'measure'
p4133
I1
sS'bay'
p4134
I1
sS'special'
p4135
I6
sS'category'
p4136
I1
sS'matrix'
p4137
I1
sS'integrates'
p4138
I1
sS'unlawful'
p4139
I1
sS'chaos'
p4140
I1
sS'werden'
p4141
I1
sS'activist'
p4142
I1
sS'arkansas'
p4143
I1
sS'playground'
p4144
I1
sS'evacuation'
p4145
I1
sS'electronics'
p4146
I2
sS'calif'
p4147
I1
sS'math'
p4148
I1
sS'debris'
p4149
I1
sS'shut'
p4150
I1
sS'await'
p4151
I1
sS'wines'
p4152
I1
sS'eco'
p4153
I1
sS'recommendations'
p4154
I1
sS'payroll'
p4155
I1
sS'regulators'
p4156
I1
sS'hazard'
p4157
I1
sS'regulatory'
p4158
I1
sS'ipos'
p4159
I2
sS'corrosion'
p4160
I1
sS'organic'
p4161
I2
sS'bowman'
p4162
I1
sS'islamic'
p4163
I1
sS'florida'
p4164
I6
sS'timer'
p4165
I1
sS'times'
p4166
I6
sS'pigs'
p4167
I1
sS'barriers'
p4168
I1
sS'retail'
p4169
I2
sS'museum'
p4170
I1
sS'berlusconi'
p4171
I1
sS'losses'
p4172
I3
sS'plastics'
p4173
I1
sS'isbn'
p4174
I1
sS'dounique'
p4175
I1
sS'succeeds'
p4176
I1
sS'ihs'
p4177
I1
sS'shenyang'
p4178
I2
sS'owned'
p4179
I1
sS'strategic'
p4180
I1
sS'lace'
p4181
I1
sS'hugo'
p4182
I1
sS'drastic'
p4183
I1
sS'reached'
p4184
I1
sS'quality'
p4185
I1
sS'destinations'
p4186
I1
sS'playlist'
p4187
I2
sS'chandon'
p4188
I1
sS'festival'
p4189
I3
sS'system'
p4190
I7
sS'relations'
p4191
I1
sS'inmate'
p4192
I1
sS'attack'
p4193
I5
sS'palestine'
p4194
I2
sS'jellyfish'
p4195
I1
sS'tourists'
p4196
I1
sS'evacuated'
p4197
I1
sS'interests'
p4198
I1
sS'stck'
p4199
I1
sS'acquire'
p4200
I2
sS'debate'
p4201
I7
sS'environmental'
p4202
I2
sS'chemicals'
p4203
I1
sS'branches'
p4204
I1
sS'july'
p4205
I2
sS'completes'
p4206
I1
sS'petrobras'
p4207
I3
sS'ipad'
p4208
I1
sS'warfare'
p4209
I1
sS'subscriber'
p4210
I1
sS'suomi'
p4211
I1
sS'isolation'
p4212
I1
sS'submitted'
p4213
I2
sS'claim'
p4214
I1
sS'compensation'
p4215
I1
sS'vorne'
p4216
I1
sS'malpractice'
p4217
I3
sS'gays'
p4218
I1
sS'providing'
p4219
I1
sS'steep'
p4220
I2
sS'bet'
p4221
I1
sS'exhibit'
p4222
I1
sS'false'
p4223
I1
sS'showbiz'
p4224
I1
sS'plaintext'
p4225
I1
sS'lines'
p4226
I1
sS'partnership'
p4227
I1
sS'tonight'
p4228
I1
sS'versandkosteninkl'
p4229
I2
sS'close'
p4230
I3
sS'sky'
p4231
I3
sS'border'
p4232
I1
sS'linked'
p4233
I5
sS'catholic'
p4234
I1
sS'dishes'
p4235
I1
sS'dallas'
p4236
I1
sS'allergies'
p4237
I2
sS'agency'
p4238
I2
sS'mie'
p4239
I1
sS'espaol'
p4240
I1
sS'anglo'
p4241
I1
sS'klasse'
p4242
I1
sS'pivotal'
p4243
I1
sS'bus'
p4244
I1
sS'accuracy'
p4245
I1
sS'fuels'
p4246
I2
sS'kazakhstan'
p4247
I1
sS'dutch'
p4248
I1
sS'parenting'
p4249
I1
sS'montana'
p4250
I1
sS'connected'
p4251
I1
sS'strikes'
p4252
I1
sS'class'
p4253
I1
sS'cellphone'
p4254
I1
sS'barista'
p4255
I1
sS'breach'
p4256
I3
sS'stranded'
p4257
I1
sS'request'
p4258
I3
sS'disease'
p4259
I5
sS'lietuvi'
p4260
I1
sS'movie'
p4261
I1
sS'bret'
p4262
I1
sS'fact'
p4263
I2
sS'affair'
p4264
I1
sS'selection'
p4265
I3
sS'nanotubes'
p4266
I1
sS'text'
p4267
I4
sS'supported'
p4268
I1
sS'spanking'
p4269
I1
sS'hamlet'
p4270
I1
sS'longevity'
p4271
I1
sS'democrats'
p4272
I1
sS'portfolio'
p4273
I2
sS'pleased'
p4274
I2
sS'decade'
p4275
I1
sS'principal'
p4276
I1
sS'partners'
p4277
I4
sS'forex'
p4278
I2
sS'based'
p4279
I1
sS'foreclosure'
p4280
I4
sS'tire'
p4281
I1
sS'mumbai'
p4282
I3
sS'woo'
p4283
I1
sS'controls'
p4284
I1
sS'jan'
p4285
I1
sS'candidates'
p4286
I4
sS'employee'
p4287
I1
sS'weihai'
p4288
I1
sS'jab'
p4289
I1
sS'hope'
p4290
I7
sS'melissa'
p4291
I1
sS'marvell'
p4292
I1
sS'specifications'
p4293
I1
sS'joint'
p4294
I1
sS'hifi'
p4295
I2
sS'fraud'
p4296
I1
sS'sues'
p4297
I3
sS'joins'
p4298
I2
sS'entity'
p4299
I1
sS'procedures'
p4300
I1
sS'areas'
p4301
I4
sS'amid'
p4302
I2
sS'committees'
p4303
I1
sS'unauthorized'
p4304
I1
sS'hiring'
p4305
I1
sS'wellness'
p4306
I1
sS'gbk'
p4307
I1
sS'taxes'
p4308
I1
sS'mercedes'
p4309
I1
sS'ohio'
p4310
I2
sS'grab'
p4311
I2
sS'embryonic'
p4312
I1
sS'view'
p4313
I4
sS'enhancer'
p4314
I1
sS'strengthened'
p4315
I1
sS'accuser'
p4316
I1
sS'orphan'
p4317
I1
sS'svenska'
p4318
I1
sS'makers'
p4319
I3
sS'korea'
p4320
I1
sS'spotter'
p4321
I1
sS'greece'
p4322
I3
sS'atlantic'
p4323
I13
sS'xzeres'
p4324
I1
sS'textiles'
p4325
I1
sS'acquires'
p4326
I1
sS'dlc'
p4327
I1
sS'biofuel'
p4328
I1
sS'reform'
p4329
I2
sS'whiteglove'
p4330
I1
sS'nuclear'
p4331
I8
sS'missing'
p4332
I3
sS'written'
p4333
I1
sS'tyre'
p4334
I1
sS'crude'
p4335
I4
sS'muslim'
p4336
I1
sS'warren'
p4337
I2
sS'overthrown'
p4338
I1
sS'email'
p4339
I5
sS'publishers'
p4340
I1
sS'keynote'
p4341
I1
sS'contentcopyright'
p4342
I1
sS'beverages'
p4343
I1
sS'deliver'
p4344
I1
sS'agencies'
p4345
I1
sS'efficiency'
p4346
I3
sS'job'
p4347
I2
sS'takeover'
p4348
I1
sS'traffic'
p4349
I1
sS'armenia'
p4350
I2
sS'vte'
p4351
I1
sS'precious'
p4352
I1
sS'lawsuit'
p4353
I4
sS'distribution'
p4354
I2
sS'samadi'
p4355
I1
sS'hits'
p4356
I1
sS'defense'
p4357
I1
sS'plugin'
p4358
I2
sS'admin'
p4359
I1
sS'miners'
p4360
I2
sS'incident'
p4361
I1
sS'drug'
p4362
I7
sS'april'
p4363
I1
sS'bachmann'
p4364
I1
sS'bristol'
p4365
I1
sS'bronx'
p4366
I1
sS'comment'
p4367
I5
sS'motionmakers'
p4368
I1
sS'relevant'
p4369
I2
sS'cc'
p4370
I1
sS'ca'
p4371
I2
sS'subscribe'
p4372
I3
sS'ab'
p4373
I1
sS'llanagail'
p4374
I1
sS'recognized'
p4375
I1
sS'table'
p4376
I1
sS'cp'
p4377
I2
sS'quit'
p4378
I1
sS'provinces'
p4379
I1
sS'silvio'
p4380
I1
sS'powered'
p4381
I2
sS'addition'
p4382
I1
sS'bbc'
p4383
I1
sS'fuzhou'
p4384
I1
sS'rover'
p4385
I1
sS'inhalt'
p4386
I1
sS'tyler'
p4387
I1
sS'treat'
p4388
I1
sS'elects'
p4389
I1
sS'waste'
p4390
I3
sS'partial'
p4391
I8
sS'eurozone'
p4392
I1
sS'contribute'
p4393
I1
sS'diversity'
p4394
I1
sS'sclc'
p4395
I1
sS'protect'
p4396
I1
sS'radioadapter'
p4397
I1
sS'plogs'
p4398
I1
sS'writechatdiv'
p4399
I1
sS'derivative'
p4400
I1
sS'smoking'
p4401
I1
sS'spain'
p4402
I2
sS'homes'
p4403
I1
sS'therefor'
p4404
I1
sS'dodge'
p4405
I1
sS'vimeo'
p4406
I1
sS'freeport'
p4407
I1
sS'rbs'
p4408
I1
sS'salman'
p4409
I1
sS'podcasts'
p4410
I1
sS'qualcomm'
p4411
I1
sS'rbi'
p4412
I1
sS'camry'
p4413
I1
sS'sabmiller'
p4414
I1
sS'watson'
p4415
I1
sS'uncertainty'
p4416
I1
sS'demo'
p4417
I1
sS'golic'
p4418
I1
sS'hardware'
p4419
I2
sS'vw'
p4420
I2
sS'halt'
p4421
I1
sS'euskara'
p4422
I1
sS'terrorist'
p4423
I1
sS'generic'
p4424
I1
sS'began'
p4425
I1
sS'radiation'
p4426
I1
sS'cross'
p4427
I1
sS'tripoli'
p4428
I1
sS'indiaindiatimesweb'
p4429
I1
sS'strange'
p4430
I1
sS'auto'
p4431
I5
sS'terrorism'
p4432
I12
sS'usterms'
p4433
I1
sS'fcast'
p4434
I1
sS'simulation'
p4435
I1
sS'deutsches'
p4436
I1
sS'tighten'
p4437
I1
sS'nokia'
p4438
I1
sS'columbia'
p4439
I17
sS'unconventional'
p4440
I1
sS'reporting'
p4441
I1
sS'romeo'
p4442
I1
sS'bullying'
p4443
I2
sS'nanofibers'
p4444
I1
sS'infiniti'
p4445
I1
sS'issuance'
p4446
I1
sS'afghan'
p4447
I1
sS'login'
p4448
I1
sS'rift'
p4449
I2
sS'center'
p4450
I4
sS'shotgun'
p4451
I1
sS'builder'
p4452
I1
sS'indonesia'
p4453
I3
sS'fighting'
p4454
I1
sS'thought'
p4455
I1
sS'guo'
p4456
I1
sS'berschwemmungsopfer'
p4457
I1
sS'yangtze'
p4458
I1
sS'arising'
p4459
I1
sS'load'
p4460
I3
sS'yanji'
p4461
I1
sS'stores'
p4462
I1
sS'subscribers'
p4463
I2
sS'storage'
p4464
I1
sS'interlingua'
p4465
I1
sS'click'
p4466
I9
sS'skincare'
p4467
I1
sS'sources'
p4468
I8
sS'dakota'
p4469
I1
sS'paul'
p4470
I1
sS'binladin'
p4471
I1
sS'web'
p4472
I8
sS'wea'
p4473
I1
sS'bicycles'
p4474
I1
sS'ads'
p4475
I2
sS'veracruz'
p4476
I1
sS'googlebot'
p4477
I1
sS'residential'
p4478
I1
sS'podcast'
p4479
I1
sS'supply'
p4480
I3
sS'demographic'
p4481
I1
sS'lake'
p4482
I2
sS'discuss'
p4483
I2
sS'battery'
p4484
I1
sS'cleanup'
p4485
I1
sS'extends'
p4486
I1
sS'cosmetics'
p4487
I1
sS'nanoparticles'
p4488
I1
sS'somali'
p4489
I1
sS'usage'
p4490
I2
sS'rehn'
p4491
I1
sS'tax'
p4492
I5
sS'possess'
p4493
I1
sS'ski'
p4494
I2
sS'volapk'
p4495
I1
sS'match'
p4496
I1
sS'resolved'
p4497
I2
sS'recycling'
p4498
I2
sS'provisions'
p4499
I1
sS'liberia'
p4500
I1
sS'famine'
p4501
I1
sS'term'
p4502
I1
sS'djibouti'
p4503
I1
sS'zimbabwe'
p4504
I1
sS'kirundi'
p4505
I1
sS'belgium'
p4506
I1
sS'attorneys'
p4507
I1
sS'nanotechnology'
p4508
I1
sS'password'
p4509
I1
sS'prominent'
p4510
I1
sS'loss'
p4511
I3
sS'ownerspat'
p4512
I1
sS'chairs'
p4513
I2
sS'biotechs'
p4514
I1
sS'icons'
p4515
I1
sS'traders'
p4516
I1
sS'hosts'
p4517
I1
sS'kuala'
p4518
I1
sS'newsfeeds'
p4519
I1
sS'leaves'
p4520
I1
sS'works'
p4521
I1
sS'soft'
p4522
I1
sS'university'
p4523
I4
sS'italian'
p4524
I1
sS'accessible'
p4525
I1
sS'functional'
p4526
I1
sS'twitter'
p4527
I26
sS'linux'
p4528
I1
sS'authority'
p4529
I1
sS'hair'
p4530
I1
sS'growth'
p4531
I4
sS'choosing'
p4532
I2
sS'employment'
p4533
I1
sS'transport'
p4534
I5
sS'versandkostenalfa'
p4535
I1
sS'lead'
p4536
I2
sS'blackstone'
p4537
I1
sS'hurricane'
p4538
I2
sS'pashto'
p4539
I1
sS'fedex'
p4540
I1
sS'bionic'
p4541
I1
sS'moderated'
p4542
I1
sS'leader'
p4543
I3
sS'warranties'
p4544
I1
sS'limitations'
p4545
I1
sS'beverage'
p4546
I1
sS'locata'
p4547
I1
sS'multiple'
p4548
I3
sS'mitt'
p4549
I2
sS'rock'
p4550
I1
sS'usaf'
p4551
I1
sS'balkans'
p4552
I1
sS'lockheed'
p4553
I2
sS'mondale'
p4554
I2
sS'panel'
p4555
I1
sS'rare'
p4556
I1
sS'huaihe'
p4557
I1
sS'freedom'
p4558
I1
sS'introduces'
p4559
I1
sS'urged'
p4560
I1
sS'statement'
p4561
I3
sS'hier'
p4562
I1
sS'pressrelease'
p4563
I8
sS'urges'
p4564
I2
sS'clooney'
p4565
I19
sS'swimming'
p4566
I1
sS'photovoltaic'
p4567
I1
sS'alliance'
p4568
I2
sS'washington'
p4569
I8
sS'commitment'
p4570
I1
sS'chronic'
p4571
I1
sS'weather'
p4572
I9
sS'lung'
p4573
I3
sS'eine'
p4574
I1
sS'female'
p4575
I1
sS'registration'
p4576
I2
sS'strategy'
p4577
I2
sS'ting'
p4578
I1
sS'postal'
p4579
I2
sS'additional'
p4580
I1
sS'housing'
p4581
I1
sS'jewish'
p4582
I1
sS'dinar'
p4583
I1
sS'var'
p4584
I1
sS'picturesin'
p4585
I1
sS'huai'
p4586
I1
sS'function'
p4587
I1
sS'cricket'
p4588
I1
sS'buy'
p4589
I2
sS'triggered'
p4590
I1
sS'funds'
p4591
I1
sS'coke'
p4592
I1
sS'xinhua'
p4593
I1
sS'rcsc'
p4594
I1
sS'overflow'
p4595
I1
sS'editing'
p4596
I1
sS'hd'
p4597
I1
sS'made'
p4598
I3
sS'cells'
p4599
I1
sS'official'
p4600
I1
sS'hosting'
p4601
I1
sS'volvo'
p4602
I1
sS'record'
p4603
I3
sS'problem'
p4604
I1
sS'display'
p4605
I2
sS'slips'
p4606
I1
sS'stylelist'
p4607
I19
sS'motionmakerbecome'
p4608
I1
sS'universal'
p4609
I1
sS'pic'
p4610
I1
sS'romney'
p4611
I3
sS'pie'
p4612
I1
sS'dissemination'
p4613
I1
sS'resumption'
p4614
I1
sS'distributor'
p4615
I1
sS'replica'
p4616
I1
sS'autism'
p4617
I1
sS'worse'
p4618
I1
sS'motionmaker'
p4619
I1
sS'renowned'
p4620
I1
sS'variety'
p4621
I1
sS'deadly'
p4622
I1
sS'book'
p4623
I1
sS'details'
p4624
I5
sS'stumps'
p4625
I1
sS'isobar'
p4626
I1
sS'symposium'
p4627
I6
sS'repeat'
p4628
I1
sS'star'
p4629
I1
sS'monday'
p4630
I1
sS'ubs'
p4631
I1
sS'setting'
p4632
I1
sS'outlets'
p4633
I2
sS'directory'
p4634
I8
sS'biotechnology'
p4635
I1
sS'jackson'
p4636
I1
sS'friends'
p4637
I27
sS'christians'
p4638
I1
sS'searches'
p4639
I1
sS'samsung'
p4640
I1
sS'ta'
p4641
I1
sS'blogs'
p4642
I7
sS'martin'
p4643
I2
sS'rule'
p4644
I2
sS'portion'
p4645
I1
sS'write'
p4646
I1
sS'ideological'
p4647
I2
sS'understand'
p4648
I1
sS'icagen'
p4649
I1
sS'expands'
p4650
I1
sS'commencement'
p4651
I1
sS'melayu'
p4652
I1
stp4653
Rp4654
sg1504
I3854
sg1505
F8780.0
sbssS'_label_probdist'
p4655
g0
(g14
g2
Ntp4656
Rp4657
(dp4658
g18
F0.5
sg19
I10790
sg20
g21
((dp4659
g8
I6853
sg9
I3937
stp4660
Rp4661
sg1504
I2
sg1505
F10791.0
sbsb.