ccopy_reg
_reconstructor
p0
(cnltk.classify.naivebayes
NaiveBayesClassifier
p1
c__builtin__
object
p2
Ntp3
Rp4
(dp5
S'_labels'
p6
(lp7
S'neg'
p8
aS'pos'
p9
asS'_feature_probdist'
p10
(dp11
(g9
S'word'
p12
tp13
g0
(cnltk.probability
ELEProbDist
p14
g2
Ntp15
Rp16
(dp17
S'_gamma'
p18
F0.5
sS'_N'
p19
I5087
sS'_freqdist'
p20
cnltk.probability
FreqDist
p21
((dp22
S'limited'
p23
I2
sS'yellow'
p24
I7
sS'sichuan'
p25
I8
sS'facilities'
p26
I5
sS'protest'
p27
I1
sS'woods'
p28
I1
sS'gpcrs'
p29
I1
sS'khanun'
p30
I1
sS'mansion'
p31
I1
sS'likelikeconfirmyou'
p32
I1
sS'saved'
p33
I1
sS'likerecommendconfirmyou'
p34
I1
sS'votes'
p35
I5
sS'therapeutics'
p36
I2
sS'aug'
p37
I6
sS'isobar'
p38
I1
sS'jianguo'
p39
I1
sS'pensions'
p40
I1
sS'isolux'
p41
I1
sS'swap'
p42
I1
sS'popola'
p43
I7
sS'worth'
p44
I2
sS'playground'
p45
I1
sS'lure'
p46
I1
sS'risk'
p47
I5
sS'dollar'
p48
I4
sS'pages'
p49
I4
sS'regional'
p50
I1
sS'plenary'
p51
I1
sS'reforms'
p52
I2
sS'affect'
p53
I4
sS'bringing'
p54
I1
sS'cnet'
p55
I2
sS'rainfalls'
p56
I1
sS'school'
p57
I6
sS'medline'
p58
I1
sS'prize'
p59
I1
sS'crops'
p60
I8
sS'pinch'
p61
I1
sS'companies'
p62
I4
sS'solution'
p63
I3
sS'monsanto'
p64
I1
sS'commented'
p65
I1
sS'tirec'
p66
I1
sS'force'
p67
I7
sS'leaders'
p68
I8
sS'warns'
p69
I2
sS'guidelines'
p70
I3
sS'bacon'
p71
I1
sS'japanese'
p72
I1
sS'pulse'
p73
I1
sS'ents'
p74
I1
sS'street'
p75
I3
sS'chen'
p76
I2
sS'estimated'
p77
I3
sS'blue'
p78
I1
sS'redistributed'
p79
I1
sS'thunder'
p80
I1
sS'decoding'
p81
I1
sS'fossil'
p82
I1
sS'toll'
p83
I3
sS'supplies'
p84
I3
sS'told'
p85
I1
sS'men'
p86
I2
sS'chinaby'
p87
I1
sS'hundreds'
p88
I5
sS'reported'
p89
I13
sS'protection'
p90
I3
sS'ethanol'
p91
I2
sS'koreapakistanrussiasomaliasouth'
p92
I1
sS'celebration'
p93
I1
sS'dry'
p94
I1
sS'rcsc'
p95
I1
sS'forum'
p96
I2
sS'items'
p97
I1
sS'study'
p98
I8
sS'climbed'
p99
I1
sS'reports'
p100
I9
sS'electricity'
p101
I2
sS'karin'
p102
I1
sS'permit'
p103
I2
sS'military'
p104
I4
sS'tweet'
p105
I4
sS'millimetres'
p106
I1
sS'prints'
p107
I1
sS'campaign'
p108
I3
sS'feelings'
p109
I1
sS'county'
p110
I11
sS'soybean'
p111
I1
sS'glance'
p112
I1
sS'total'
p113
I2
sS'unit'
p114
I1
sS'marketers'
p115
I1
sS'palestinian'
p116
I2
sS'arms'
p117
I1
sS'leaks'
p118
I1
sS'program'
p119
I4
sS'music'
p120
I3
sS'telegraph'
p121
I1
sS'recommend'
p122
I1
sS'indiana'
p123
I2
sS'preview'
p124
I2
sS'assessment'
p125
I1
sS'anacortes'
p126
I1
sS'supporters'
p127
I2
sS'brings'
p128
I2
sS'wars'
p129
I3
sS'billowing'
p130
I1
sS'phone'
p131
I3
sS'berlin'
p132
I1
sS'corrosion'
p133
I1
sS'excellent'
p134
I1
sS'hold'
p135
I2
sS'join'
p136
I1
sS'taihu'
p137
I3
sS'permits'
p138
I1
sS'mm'
p139
I2
sS'midwest'
p140
I1
sS'breakingviews'
p141
I1
sS'work'
p142
I8
sS'advocacy'
p143
I1
sS'im'
p144
I1
sS'camry'
p145
I1
sS'give'
p146
I2
sS'khmer'
p147
I1
sS'foods'
p148
I1
sS'walsh'
p149
I1
sS'veggies'
p150
I1
sS'rescue'
p151
I6
sS'provincial'
p152
I5
sS'tornadoes'
p153
I2
sS'end'
p154
I6
sS'carriers'
p155
I1
sS'provide'
p156
I2
sS'damage'
p157
I2
sS'machine'
p158
I1
sS'hot'
p159
I10
sS'boats'
p160
I1
sS'symposium'
p161
I1
sS'beach'
p162
I2
sS'rise'
p163
I3
sS'lai'
p164
I1
sS'earlier'
p165
I2
sS'lotteries'
p166
I1
sS'barriers'
p167
I1
sS'law'
p168
I4
sS'las'
p169
I1
sS'lovenox'
p170
I1
sS'wins'
p171
I4
sS'headquarters'
p172
I4
sS'enter'
p173
I1
sS'chandon'
p174
I1
sS'order'
p175
I3
sS'wind'
p176
I9
sS'wine'
p177
I1
sS'operations'
p178
I3
sS'executed'
p179
I2
sS'feedback'
p180
I18
sS'office'
p181
I9
sS'consent'
p182
I2
sS'helena'
p183
I1
sS'london'
p184
I3
sS'japan'
p185
I12
sS'nets'
p186
I1
sS'lijiadu'
p187
I3
sS'anhui'
p188
I4
sS'personal'
p189
I6
sS'highlights'
p190
I1
sS'gaddafis'
p191
I1
sS'destroyed'
p192
I9
sS'production'
p193
I9
sS'weeks'
p194
I1
sS'easier'
p195
I1
sS'prius'
p196
I1
sS'coffee'
p197
I1
sS'affected'
p198
I26
sS'diseases'
p199
I3
sS'alfredsson'
p200
I1
sS'safe'
p201
I3
sS'therapy'
p202
I1
sS'effects'
p203
I1
sS'schools'
p204
I1
sS'solyndra'
p205
I1
sS'bank'
p206
I4
sS'debut'
p207
I1
sS'rocks'
p208
I1
sS'herald'
p209
I1
sS'fitness'
p210
I2
sS'volcano'
p211
I1
sS'feeds'
p212
I2
sS'wulong'
p213
I3
sS'carlos'
p214
I1
sS'financial'
p215
I1
sS'logs'
p216
I1
sS'swathe'
p217
I4
sS'fishpond'
p218
I1
sS'wednesday'
p219
I5
sS'literature'
p220
I2
sS'trading'
p221
I1
sS'navy'
p222
I1
sS'flock'
p223
I1
sS'saturday'
p224
I6
sS'driving'
p225
I1
sS'rs'
p226
I1
sS'diesel'
p227
I1
sS'content'
p228
I12
sS'hague'
p229
I1
sS'congos'
p230
I1
sS'exxonmobil'
p231
I1
sS'xu'
p232
I1
sS'venezuela'
p233
I1
sS'sliding'
p234
I1
sS'foundation'
p235
I5
sS'fugitive'
p236
I1
sS'managerial'
p237
I1
sS'buyback'
p238
I1
sS'drench'
p239
I1
sS'shaanxi'
p240
I4
sS'days'
p241
I8
sS'creates'
p242
I1
sS'tksensei'
p243
I3
sS'incorporated'
p244
I1
sS'corrections'
p245
I1
sS'baltic'
p246
I1
sS'transexpo'
p247
I2
sS'size'
p248
I3
sS'industrial'
p249
I2
sS'features'
p250
I2
sS'system'
p251
I2
sS'fantasy'
p252
I1
sS'bionic'
p253
I1
sS'bicycle'
p254
I2
sS'ditch'
p255
I1
sS'mercury'
p256
I1
sS'toy'
p257
I1
sS'hanjiang'
p258
I2
sS'needed'
p259
I1
sS'rates'
p260
I3
sS'listed'
p261
I1
sS'farming'
p262
I1
sS'dogs'
p263
I1
sS'listen'
p264
I1
sS'helpfaqcontact'
p265
I3
sS'tool'
p266
I1
sS'direct'
p267
I4
sS'digg'
p268
I1
sS'begins'
p269
I1
sS'mercy'
p270
I1
sS'showed'
p271
I1
sS'diario'
p272
I1
sS'nations'
p273
I1
sS'project'
p274
I5
sS'expo'
p275
I2
sS'evacuated'
p276
I20
sS'informationprivacy'
p277
I1
sS'fashion'
p278
I2
sS'pigs'
p279
I3
sS'raw'
p280
I1
sS'unaffected'
p281
I1
sS'dozen'
p282
I1
sS'affairs'
p283
I4
sS'wanzhou'
p284
I1
sS'soaked'
p285
I1
sS'lumpur'
p286
I1
sS'transactions'
p287
I1
sS'wells'
p288
I1
sS'defence'
p289
I1
sS'germany'
p290
I2
sS'phase'
p291
I1
sS'drought'
p292
I22
sS'tibetan'
p293
I1
sS'glow'
p294
I1
sS'xijiang'
p295
I3
sS'mobilised'
p296
I1
sS'medical'
p297
I7
sS'epa'
p298
I1
sS'lancashire'
p299
I1
sS'dow'
p300
I1
sS'reactor'
p301
I1
sS'pope'
p302
I2
sS'lewis'
p303
I1
sS'radio'
p304
I17
sS'solutions'
p305
I3
sS'northeast'
p306
I5
sS'cousins'
p307
I2
sS'guidance'
p308
I1
sS'rice'
p309
I5
sS'hardball'
p310
I3
sS'dj'
p311
I1
sS'de'
p312
I2
sS'watch'
p313
I8
sS'baffle'
p314
I3
sS'amazon'
p315
I2
sS'heilongjiang'
p316
I1
sS'danjiangkou'
p317
I1
sS'dr'
p318
I1
sS'societies'
p319
I1
sS'hall'
p320
I1
sS'xinjiang'
p321
I3
sS'autistic'
p322
I1
sS'countries'
p323
I3
sS'fields'
p324
I1
sS'fighters'
p325
I1
sS'bay'
p326
I1
sS'guizhou'
p327
I7
sS'hongze'
p328
I3
sS'floodlands'
p329
I1
sS'playstation'
p330
I1
sS'disaster'
p331
I9
sS'fair'
p332
I4
sS'rockstar'
p333
I1
sS'testing'
p334
I1
sS'torrents'
p335
I1
sS'iran'
p336
I2
sS'wikipedia'
p337
I2
sS'patients'
p338
I2
sS'mud'
p339
I1
sS'bookmarking'
p340
I1
sS'erlong'
p341
I1
sS'reddit'
p342
I2
sS'terms'
p343
I8
sS'nationwide'
p344
I2
sS'nature'
p345
I1
sS'wo'
p346
I1
sS'qionghai'
p347
I1
sS'apiplayer'
p348
I3
sS'cut'
p349
I2
sS'carbon'
p350
I2
sS'debt'
p351
I1
sS'wuhan'
p352
I4
sS'climate'
p353
I9
sS'planner'
p354
I1
sS'uncertainty'
p355
I1
sS'receives'
p356
I2
sS'login'
p357
I2
sS'southeastern'
p358
I1
sS'jinan'
p359
I2
sS'speak'
p360
I1
sS'signals'
p361
I1
sS'beneficiary'
p362
I1
sS'beer'
p363
I1
sS'trigger'
p364
I1
sS'noem'
p365
I1
sS'expected'
p366
I1
sS'dozens'
p367
I3
sS'website'
p368
I1
sS'families'
p369
I1
sS'hiring'
p370
I1
sS'drugs'
p371
I3
sS'transatlantic'
p372
I1
sS'kids'
p373
I3
sS'chile'
p374
I1
sS'save'
p375
I3
sS'tank'
p376
I1
sS'launches'
p377
I6
sS'air'
p378
I5
sS'onlive'
p379
I1
sS'oman'
p380
I1
sS'aid'
p381
I4
sS'voice'
p382
I1
sS'flooding'
p383
I31
sS'radarplus'
p384
I1
sS'launched'
p385
I1
sS'biotech'
p386
I1
sS'hunan'
p387
I5
sS'mexico'
p388
I4
sS'player'
p389
I4
sS'tissue'
p390
I1
sS'experts'
p391
I1
sS'bottles'
p392
I1
sS'things'
p393
I1
sS'xicheng'
p394
I1
sS'vegetable'
p395
I1
sS'showing'
p396
I1
sS'european'
p397
I2
sS'independent'
p398
I1
sS'satellite'
p399
I7
sS'social'
p400
I4
sS'speakers'
p401
I1
sS'rain'
p402
I28
sS'hectares'
p403
I1
sS'producers'
p404
I1
sS'bloomberg'
p405
I1
sS'programs'
p406
I2
sS'mother'
p407
I1
sS'claims'
p408
I2
sS'corporate'
p409
I1
sS'left'
p410
I9
sS'seasonal'
p411
I1
sS'proposed'
p412
I1
sS'photo'
p413
I6
sS'warmest'
p414
I1
sS'distribute'
p415
I1
sS'xihai'
p416
I3
sS'toraw'
p417
I1
sS'human'
p418
I1
sS'rushing'
p419
I1
sS'adding'
p420
I4
sS'eli'
p421
I1
sS'songhua'
p422
I3
sS'myanmar'
p423
I1
sS'royal'
p424
I1
sS'kingdomvenezuelayemen'
p425
I1
sS'spread'
p426
I3
sS'board'
p427
I1
sS'contestant'
p428
I1
sS'carbuyer'
p429
I1
sS'meteorologic'
p430
I1
sS'opt'
p431
I1
sS'dailymotion'
p432
I3
sS'orphan'
p433
I1
sS'judge'
p434
I2
sS'cape'
p435
I1
sS'advanced'
p436
I1
sS'brought'
p437
I2
sS'alimta'
p438
I1
sS'exxon'
p439
I2
sS'footy'
p440
I1
sS'shimal'
p441
I1
sS'xbox'
p442
I1
sS'steps'
p443
I2
sS'security'
p444
I5
sS'biofuels'
p445
I2
sS'jazeera'
p446
I2
sS'drowned'
p447
I1
sS'deal'
p448
I7
sS'dead'
p449
I30
sS'malaysia'
p450
I1
sS'meters'
p451
I2
sS'election'
p452
I1
sS'advertise'
p453
I6
sS'notification'
p454
I1
sS'yujiang'
p455
I3
sS'tornado'
p456
I1
sS'tracker'
p457
I1
sS'beating'
p458
I1
sS'marketing'
p459
I1
sS'corn'
p460
I2
sS'deadly'
p461
I5
sS'hubei'
p462
I9
sS'metastatic'
p463
I2
sS'plc'
p464
I1
sS'agreesextension'
p465
I1
sS'wujiang'
p466
I3
sS'manufacturing'
p467
I1
sS'super'
p468
I4
sS'tyntec'
p469
I1
sS'tyres'
p470
I1
sS'chilean'
p471
I1
sS'dollars'
p472
I1
sS'months'
p473
I1
sS'afternoon'
p474
I1
sS'islands'
p475
I1
sS'efforts'
p476
I2
sS'associatedpress'
p477
I1
sS'discharging'
p478
I1
sS'facility'
p479
I1
sS'civil'
p480
I4
sS'refines'
p481
I3
sS'son'
p482
I1
sS'raises'
p483
I1
sS'telegraphpics'
p484
I1
sS'rely'
p485
I2
sS'lashes'
p486
I1
sS'support'
p487
I3
sS'fight'
p488
I1
sS'clinical'
p489
I2
sS'call'
p490
I1
sS'war'
p491
I1
sS'form'
p492
I1
sS'ford'
p493
I1
sS'solar'
p494
I3
sS'survive'
p495
I1
sS'removed'
p496
I3
sS'inside'
p497
I2
sS'flng'
p498
I1
sS'seafood'
p499
I1
sS'extrasslideshowdata'
p500
I3
sS'bohai'
p501
I1
sS'tournament'
p502
I1
sS'check'
p503
I1
sS'alerts'
p504
I3
sS'ne'
p505
I1
sS'cambodia'
p506
I1
sS'reality'
p507
I1
sS'flood'
p508
I37
sS'interested'
p509
I1
sS'role'
p510
I1
sS'test'
p511
I1
sS'developers'
p512
I1
sS'picture'
p513
I4
sS'nutrastar'
p514
I1
sS'models'
p515
I1
sS'dies'
p516
I1
sS'mudflows'
p517
I1
sS'utilities'
p518
I1
sS'emission'
p519
I1
sS'award'
p520
I2
sS'authorities'
p521
I3
sS'globalpost'
p522
I1
sS'weekend'
p523
I1
sS'jones'
p524
I2
sS'qiongzhou'
p525
I1
sS'push'
p526
I2
sS'mobilized'
p527
I1
sS'irrigation'
p528
I1
sS'coach'
p529
I1
sS'customary'
p530
I1
sS'euronews'
p531
I1
sS'skip'
p532
I14
sS'aptn'
p533
I1
sS'leads'
p534
I4
sS'crocodile'
p535
I1
sS'liangyu'
p536
I1
sS'newssportsfinancelifestyleentertainmentvideotravelcarsebayjobsdatingpropertymore'
p537
I1
sS'llc'
p538
I2
sS'boluo'
p539
I3
sS'row'
p540
I2
sS'depend'
p541
I1
sS'disorders'
p542
I1
sS'flash'
p543
I3
sS'father'
p544
I1
sS'aspi'
p545
I2
sS'environment'
p546
I16
sS'charge'
p547
I1
sS'reptiles'
p548
I1
sS'marks'
p549
I2
sS'suffered'
p550
I1
sS'goodyear'
p551
I1
sS'southwest'
p552
I6
sS'paychecks'
p553
I1
sS'federation'
p554
I2
sS'beibei'
p555
I3
sS'frequencies'
p556
I1
sS'gvdebug'
p557
I1
sS'sponsors'
p558
I1
sS'vegan'
p559
I1
sS'vegas'
p560
I1
sS'cook'
p561
I6
sS'li'
p562
I3
sS'blast'
p563
I1
sS'multistory'
p564
I1
sS'governments'
p565
I2
sS'lijin'
p566
I3
sS'icp'
p567
I1
sS'level'
p568
I11
sS'turns'
p569
I4
sS'posts'
p570
I1
sS'gun'
p571
I1
sS'standards'
p572
I1
sS'leave'
p573
I9
sS'pursue'
p574
I1
sS'team'
p575
I3
sS'round'
p576
I1
sS'fujian'
p577
I4
sS'prevent'
p578
I2
sS'olympic'
p579
I2
sS'findings'
p580
I1
sS'tougher'
p581
I1
sS'trend'
p582
I1
sS'cyber'
p583
I2
sS'cost'
p584
I2
sS'crescent'
p585
I1
sS'bacteria'
p586
I1
sS'drinks'
p587
I1
sS'adds'
p588
I1
sS'church'
p589
I1
sS'antwerp'
p590
I1
sS'havoc'
p591
I1
sS'landslides'
p592
I11
sS'lhasa'
p593
I3
sS'reply'
p594
I1
sS'falling'
p595
I3
sS'principal'
p596
I1
sS'boost'
p597
I2
sS'dental'
p598
I2
sS'supporting'
p599
I2
sS'transportation'
p600
I2
sS'guardian'
p601
I2
sS'guangzhou'
p602
I2
sS'french'
p603
I2
sS'water'
p604
I31
sS'groups'
p605
I2
sS'address'
p606
I6
sS'apache'
p607
I1
sS'change'
p608
I6
sS'boy'
p609
I1
sS'healthy'
p610
I1
sS'rethink'
p611
I1
sS'queue'
p612
I1
sS'cargill'
p613
I1
sS'weird'
p614
I3
sS'navigation'
p615
I8
sS'taipei'
p616
I1
sS'easyjet'
p617
I1
sS'love'
p618
I1
sS'ethiopian'
p619
I1
sS'ians'
p620
I1
sS'bookmarks'
p621
I2
sS'mobil'
p622
I2
sS'crisis'
p623
I1
sS'market'
p624
I15
sS'argentinas'
p625
I1
sS'troops'
p626
I1
sS'working'
p627
I1
sS'sake'
p628
I1
sS'allget'
p629
I21
sS'visit'
p630
I4
sS'france'
p631
I3
sS'insider'
p632
I1
sS'live'
p633
I11
sS'memory'
p634
I1
sS'films'
p635
I1
sS'australian'
p636
I1
sS'rainfall'
p637
I8
sS'symantec'
p638
I1
sS'continue'
p639
I3
sS'freestyle'
p640
I1
sS'amelia'
p641
I1
sS'effort'
p642
I1
sS'insights'
p643
I1
sS'tokyo'
p644
I1
sS'local'
p645
I14
sS'abortion'
p646
I1
sS'radon'
p647
I1
sS'reviews'
p648
I2
sS'cai'
p649
I1
sS'regions'
p650
I4
sS'drags'
p651
I1
sS'growing'
p652
I3
sS'lubricant'
p653
I1
sS'ferry'
p654
I1
sS'jinkosolar'
p655
I1
sS'heart'
p656
I1
sS'stream'
p657
I1
sS'predict'
p658
I1
sS'chip'
p659
I1
sS'benxi'
p660
I1
sS'rc'
p661
I1
sS'nascar'
p662
I1
sS'sample'
p663
I11
sS'stroke'
p664
I1
sS'battered'
p665
I4
sS'council'
p666
I1
sS'locky'
p667
I1
sS'occur'
p668
I1
sS'swedish'
p669
I1
sS'winter'
p670
I2
sS'divided'
p671
I1
sS'write'
p672
I1
sS'sunday'
p673
I7
sS'sst'
p674
I1
sS'secures'
p675
I1
sS'map'
p676
I3
sS'dive'
p677
I1
sS'aol'
p678
I1
sS'spot'
p679
I1
sS'sustainability'
p680
I1
sS'produce'
p681
I1
sS'designed'
p682
I2
sS'mai'
p683
I1
sS'data'
p684
I7
sS'mao'
p685
I2
sS'man'
p686
I4
sS'gorges'
p687
I3
sS'permalink'
p688
I4
sS'natural'
p689
I8
sS'varieties'
p690
I1
sS'liquid'
p691
I1
sS'futures'
p692
I1
sS'mango'
p693
I2
sS'truck'
p694
I3
sS'african'
p695
I4
sS'talk'
p696
I1
sS'embassies'
p697
I14
sS'raised'
p698
I1
sS'thomson'
p699
I7
sS'brain'
p700
I1
sS'nbsp'
p701
I1
sS'cuts'
p702
I1
sS'kanye'
p703
I1
sS'cold'
p704
I1
sS'irene'
p705
I1
sS'cola'
p706
I1
sS'kabul'
p707
I3
sS'police'
p708
I4
sS'samadi'
p709
I1
sS'willow'
p710
I1
sS'seegrid'
p711
I1
sS'tort'
p712
I1
sS'osorno'
p713
I1
sS'offers'
p714
I2
sS'farmer'
p715
I1
sS'mail'
p716
I2
sS'msnbc'
p717
I3
sS'main'
p718
I6
sS'decades'
p719
I1
sS'texas'
p720
I4
sS'halt'
p721
I1
sS'views'
p722
I5
sS'evacuation'
p723
I4
sS'nation'
p724
I4
sS'records'
p725
I2
sS'drilling'
p726
I3
sS'half'
p727
I5
sS'fushun'
p728
I4
sS'killed'
p729
I26
sS'developments'
p730
I2
sS'james'
p731
I1
sS'drop'
p732
I1
sS'el'
p733
I4
sS'bridging'
p734
I1
sS'ed'
p735
I3
sS'webinar'
p736
I4
sS'speculators'
p737
I1
sS'distributor'
p738
I1
sS'morning'
p739
I4
sS'disasters'
p740
I8
sS'shown'
p741
I1
sS'guangdong'
p742
I1
sS'jackson'
p743
I1
sS'gamers'
p744
I1
sS'webcasts'
p745
I1
sS'profit'
p746
I2
sS'oklahoma'
p747
I1
sS'increase'
p748
I2
sS'bln'
p749
I1
sS'internet'
p750
I4
sS'xinlong'
p751
I1
sS'pumping'
p752
I2
sS'california'
p753
I3
sS'trademarks'
p754
I1
sS'care'
p755
I2
sS'advance'
p756
I1
sS'ministry'
p757
I9
sS'british'
p758
I1
sS'thing'
p759
I1
sS'massive'
p760
I1
sS'littlefair'
p761
I2
sS'municipality'
p762
I1
sS'parkinson'
p763
I1
sS'suspended'
p764
I1
sS'vote'
p765
I5
sS'open'
p766
I1
sS'millions'
p767
I4
sS'airbus'
p768
I1
sS'city'
p769
I17
sS'district'
p770
I1
sS'bookmark'
p771
I2
sS'plastic'
p772
I1
sS'lianyungang'
p773
I1
sS'ibtimes'
p774
I1
sS'convention'
p775
I1
sS'white'
p776
I1
sS'friend'
p777
I1
sS'season'
p778
I4
sS'released'
p779
I2
sS'alertnet'
p780
I3
sS'searchhow'
p781
I1
sS'qujiang'
p782
I1
sS'uranium'
p783
I1
sS'copy'
p784
I1
sS'rmb'
p785
I1
sS'future'
p786
I5
sS'fruits'
p787
I1
sS'wern'
p788
I1
sS'browser'
p789
I5
sS'talim'
p790
I4
sS'cellulosic'
p791
I1
sS'san'
p792
I2
sS'pro'
p793
I1
sS'sells'
p794
I1
sS'leiva'
p795
I1
sS'lng'
p796
I1
sS'pageinsightserror'
p797
I2
sS'conversion'
p798
I1
sS'efficient'
p799
I1
sS'endangered'
p800
I1
sS'ideal'
p801
I1
sS'potential'
p802
I1
sS'performance'
p803
I1
sS'dips'
p804
I1
sS'channel'
p805
I1
sS'santiago'
p806
I1
sS'pain'
p807
I2
sS'track'
p808
I1
sS'price'
p809
I4
sS'donation'
p810
I1
sS'sheets'
p811
I2
sS'highertorrential'
p812
I1
sS'icon'
p813
I1
sS'neuro'
p814
I1
sS'jakarta'
p815
I1
sS'average'
p816
I1
sS'htld'
p817
I1
sS'professional'
p818
I1
sS'salt'
p819
I1
sS'jiangxi'
p820
I2
sS'rating'
p821
I2
sS'medalist'
p822
I1
sS'shot'
p823
I1
sS'certification'
p824
I2
sS'german'
p825
I1
sS'fifty'
p826
I1
sS'downpours'
p827
I11
sS'troy'
p828
I4
sS'dateline'
p829
I3
sS'southwestern'
p830
I4
sS'forecast'
p831
I7
sS'ground'
p832
I3
sS'feng'
p833
I1
sS'upgrade'
p834
I4
sS'reservoir'
p835
I2
sS'gulf'
p836
I1
sS'title'
p837
I1
sS'storms'
p838
I6
sS'xunjiang'
p839
I3
sS'muffin'
p840
I2
sS'awareness'
p841
I2
sS'carolina'
p842
I1
sS'tuojiang'
p843
I3
sS'contracts'
p844
I1
sS'biodiesel'
p845
I1
sS'azerbaijan'
p846
I2
sS'conjunction'
p847
I1
sS'jiamusi'
p848
I3
sS'reveal'
p849
I1
sS'manager'
p850
I1
sS'held'
p851
I3
sS'floods'
p852
I69
sS'reprints'
p853
I2
sS'hangzhou'
p854
I1
sS'miles'
p855
I2
sS'inforgot'
p856
I2
sS'predicted'
p857
I1
sS'worries'
p858
I1
sS'husband'
p859
I1
sS'bulgaria'
p860
I1
sS'reveals'
p861
I1
sS'lasers'
p862
I1
sS'replies'
p863
I3
sS'seat'
p864
I1
sS'relative'
p865
I1
sS'elected'
p866
I1
sS'declares'
p867
I1
sS'calendar'
p868
I4
sS'sport'
p869
I6
sS'fails'
p870
I1
sS'farmers'
p871
I2
sS'ways'
p872
I1
sS'review'
p873
I18
sS'sites'
p874
I11
sS'mayor'
p875
I1
sS'pte'
p876
I3
sS'bureau'
p877
I3
sS'affecting'
p878
I2
sS'import'
p879
I2
sS'reading'
p880
I1
sS'contentcopyright'
p881
I3
sS'notice'
p882
I1
sS'puyehue'
p883
I1
sS'august'
p884
I3
sS'killing'
p885
I1
sS'awards'
p886
I1
sS'wison'
p887
I1
sS'article'
p888
I7
sS'cities'
p889
I2
sS'rugby'
p890
I1
sS'libya'
p891
I1
sS'region'
p892
I4
sS'tour'
p893
I1
sS'torrential'
p894
I10
sS'pakistan'
p895
I9
sS'onemillion'
p896
I1
sS'overview'
p897
I1
sS'learning'
p898
I6
sS'eads'
p899
I1
sS'boat'
p900
I3
sS'survivors'
p901
I2
sS'tumour'
p902
I1
sS'undercuts'
p903
I1
sS'carey'
p904
I1
sS'mark'
p905
I2
sS'tropical'
p906
I3
sS'technical'
p907
I2
sS'renewables'
p908
I1
sS'enable'
p909
I1
sS'shortages'
p910
I1
sS'measles'
p911
I1
sS'photos'
p912
I5
sS'minister'
p913
I1
sS'zambians'
p914
I1
sS'shear'
p915
I1
sS'coca'
p916
I1
sS'newspaper'
p917
I3
sS'landslide'
p918
I2
sS'myindependent'
p919
I1
sS'telangana'
p920
I1
sS'tkt'
p921
I1
sS'strait'
p922
I1
sS'refinery'
p923
I1
sS'kenya'
p924
I2
sS'property'
p925
I1
sS'ivy'
p926
I1
sS'author'
p927
I1
sS'pay'
p928
I1
sS'toembedreport'
p929
I3
sS'archive'
p930
I2
sS'ceo'
p931
I4
sS'buys'
p932
I2
sS'arctic'
p933
I1
sS'assist'
p934
I1
sS'driver'
p935
I1
sS'director'
p936
I1
sS'persons'
p937
I1
sS'cullen'
p938
I1
sS'advertisement'
p939
I2
sS'railway'
p940
I1
sS'renewable'
p941
I2
sS'supports'
p942
I2
sS'severe'
p943
I3
sS'costs'
p944
I2
sS'relief'
p945
I16
sS'researchers'
p946
I1
sS'summer'
p947
I7
sS'outdoor'
p948
I1
sS'poach'
p949
I1
sS'money'
p950
I12
sS'inregister'
p951
I3
sS'recycled'
p952
I1
sS'kill'
p953
I12
sS'touch'
p954
I1
sS'speed'
p955
I1
sS'incurring'
p956
I1
sS'weekly'
p957
I13
sS'depthtoday'
p958
I1
sS'announcement'
p959
I1
sS'death'
p960
I9
sS'rose'
p961
I5
sS'geological'
p962
I1
sS'improvement'
p963
I1
sS'blog'
p964
I1
sS'crocodiles'
p965
I1
sS'bioenergy'
p966
I1
sS'treatment'
p967
I5
sS'struck'
p968
I1
sS'careers'
p969
I4
sS'kingdom'
p970
I1
sS'kills'
p971
I3
sS'rules'
p972
I1
sS'delhi'
p973
I1
sS'virginia'
p974
I1
sS'lululemon'
p975
I1
sS'inflation'
p976
I1
sS'traffic'
p977
I2
sS'execution'
p978
I1
sS'mof'
p979
I1
sS'clan'
p980
I1
sS'mudslide'
p981
I3
sS'patrick'
p982
I1
sS'suppliers'
p983
I8
sS'oddly'
p984
I1
sS'amatil'
p985
I1
sS'benefit'
p986
I2
sS'maker'
p987
I2
sS'output'
p988
I1
sS'cisco'
p989
I1
sS'pacific'
p990
I6
sS'cyberport'
p991
I1
sS'cinio'
p992
I4
sS'images'
p993
I10
sS'pakistanis'
p994
I3
sS'octane'
p995
I1
sS'dumps'
p996
I1
sS'oakland'
p997
I1
sS'drenched'
p998
I3
sS'recorded'
p999
I2
sS'legal'
p1000
I7
sS'drenches'
p1001
I1
sS'seconds'
p1002
I1
sS'sixth'
p1003
I1
sS'iconic'
p1004
I1
sS'update'
p1005
I3
sS'trials'
p1006
I1
sS'usadvertiseterms'
p1007
I1
sS'stations'
p1008
I4
sS'island'
p1009
I3
sS'violence'
p1010
I3
sS'tumor'
p1011
I1
sS'zhuji'
p1012
I1
sS'underway'
p1013
I1
sS'joplin'
p1014
I1
sS'tributary'
p1015
I2
sS'road'
p1016
I1
sS'image'
p1017
I3
sS'airlines'
p1018
I1
sS'liaoning'
p1019
I3
sS'adobe'
p1020
I1
sS'pharmaceutical'
p1021
I1
sS'area'
p1022
I6
sS'start'
p1023
I1
sS'low'
p1024
I2
sS'treat'
p1025
I1
sS'billion'
p1026
I6
sS'complete'
p1027
I7
sS'saatchi'
p1028
I1
sS'jun'
p1029
I6
sS'strikes'
p1030
I1
sS'hurricanes'
p1031
I2
sS'technologies'
p1032
I1
sS'promote'
p1033
I1
sS'october'
p1034
I3
sS'emissions'
p1035
I1
sS'cbc'
p1036
I1
sS'ad'
p1037
I1
sS'videos'
p1038
I9
sS'describe'
p1039
I2
sS'moved'
p1040
I1
sS'sales'
p1041
I2
sS'ap'
p1042
I3
sS'britain'
p1043
I1
sS'film'
p1044
I1
sS'storage'
p1045
I1
sS'field'
p1046
I2
sS'cleanup'
p1047
I1
sS'shenzhen'
p1048
I1
sS'poor'
p1049
I2
sS'congress'
p1050
I1
sS'students'
p1051
I1
sS'peak'
p1052
I2
sS'brands'
p1053
I1
sS'stocks'
p1054
I2
sS'farms'
p1055
I1
sS'assets'
p1056
I1
sS'invest'
p1057
I1
sS'directors'
p1058
I1
sS'mass'
p1059
I1
sS'directory'
p1060
I9
sS'external'
p1061
I1
sS'swirls'
p1062
I1
sS'caused'
p1063
I19
sS'beware'
p1064
I1
sS'rasul'
p1065
I1
sS'month'
p1066
I6
sS'betamore'
p1067
I3
sS'debris'
p1068
I1
sS'stonecutters'
p1069
I1
sS'talks'
p1070
I3
sS'follow'
p1071
I5
sS'settlement'
p1072
I1
sS'religious'
p1073
I1
sS'children'
p1074
I3
sS'synthetic'
p1075
I1
sS'icons'
p1076
I1
sS'hulan'
p1077
I2
sS'opportunities'
p1078
I1
sS'removal'
p1079
I2
sS'tm'
p1080
I1
sS'dairy'
p1081
I1
sS'spain'
p1082
I3
sS'alberta'
p1083
I2
sS'siblings'
p1084
I1
sS'crest'
p1085
I1
sS'ta'
p1086
I1
sS'ghana'
p1087
I1
sS'activities'
p1088
I1
sS'fax'
p1089
I1
sS'woman'
p1090
I1
sS'premium'
p1091
I1
sS'worse'
p1092
I1
sS'confidential'
p1093
I1
sS'reader'
p1094
I3
sS'fav'
p1095
I3
sS'focus'
p1096
I3
sS'puzzles'
p1097
I1
sS'worst'
p1098
I12
sS'mps'
p1099
I1
sS'fall'
p1100
I5
sS'sony'
p1101
I1
sS'difference'
p1102
I1
sS'ticker'
p1103
I1
sS'neurological'
p1104
I1
sS'alma'
p1105
I1
sS'celebrity'
p1106
I2
sS'wsj'
p1107
I1
sS'prolonged'
p1108
I1
sS'gop'
p1109
I1
sS'large'
p1110
I1
sS'mulondon'
p1111
I1
sS'saudi'
p1112
I1
sS'programme'
p1113
I1
sS'tel'
p1114
I6
sS'ten'
p1115
I1
sS'tea'
p1116
I14
sS'streets'
p1117
I1
sS'past'
p1118
I3
sS'rate'
p1119
I1
sS'design'
p1120
I3
sS'brillo'
p1121
I1
sS'chair'
p1122
I2
sS'returned'
p1123
I1
sS'abc'
p1124
I1
sS'bridgestone'
p1125
I1
sS'investing'
p1126
I3
sS'sun'
p1127
I1
sS'magnolia'
p1128
I1
sS'centers'
p1129
I1
sS'version'
p1130
I2
sS'scientists'
p1131
I1
sS'racing'
p1132
I3
sS'public'
p1133
I4
sS'movement'
p1134
I1
sS'full'
p1135
I5
sS'christian'
p1136
I2
sS'tags'
p1137
I1
sS'hours'
p1138
I2
sS'voanews'
p1139
I1
sS'november'
p1140
I1
sS'strong'
p1141
I2
sS'chongqing'
p1142
I1
sS'bible'
p1143
I1
sS'zone'
p1144
I2
sS'ahead'
p1145
I1
sS'siamese'
p1146
I1
sS'exablate'
p1147
I1
sS'losses'
p1148
I2
sS'soldier'
p1149
I1
sS'advertising'
p1150
I4
sS'published'
p1151
I1
sS'action'
p1152
I4
sS'struggle'
p1153
I1
sS'shanghai'
p1154
I3
sS'scum'
p1155
I1
sS'vip'
p1156
I1
sS'establish'
p1157
I1
sS'archived'
p1158
I1
sS'ash'
p1159
I1
sS'takes'
p1160
I1
sS'petroleum'
p1161
I1
sS'finally'
p1162
I2
sS'oecd'
p1163
I1
sS'archives'
p1164
I1
sS'demo'
p1165
I1
sS'markets'
p1166
I12
sS'teen'
p1167
I1
sS'mozilla'
p1168
I1
sS'freeland'
p1169
I1
sS'quarterly'
p1170
I1
sS'town'
p1171
I1
sS'hardware'
p1172
I1
sS'include'
p1173
I1
sS'hour'
p1174
I2
sS'science'
p1175
I11
sS'resources'
p1176
I5
sS'learn'
p1177
I1
sS'dea'
p1178
I1
sS'dec'
p1179
I1
sS'history'
p1180
I5
sS'prompting'
p1181
I1
sS'onslaught'
p1182
I1
sS'suggestions'
p1183
I1
sS'autumn'
p1184
I1
sS'claimed'
p1185
I1
sS'rainstorm'
p1186
I4
sS'firm'
p1187
I1
sS'beale'
p1188
I1
sS'huge'
p1189
I1
sS'answer'
p1190
I1
sS'daiichi'
p1191
I1
sS'enlarge'
p1192
I1
sS'maps'
p1193
I1
sS'automotive'
p1194
I2
sS'surpasses'
p1195
I1
sS'css'
p1196
I2
sS'dailymotionvideoscategoriescommunitycontestsfamily'
p1197
I3
sS'plans'
p1198
I4
sS'rudd'
p1199
I1
sS'alibaba'
p1200
I11
sS'piaohe'
p1201
I2
sS'blood'
p1202
I1
sS'waves'
p1203
I2
sS'response'
p1204
I2
sS'short'
p1205
I1
sS'enzymes'
p1206
I1
sS'register'
p1207
I1
sS'coal'
p1208
I1
sS'responsibility'
p1209
I1
sS'banks'
p1210
I1
sS'anticyclone'
p1211
I1
sS'photoshot'
p1212
I1
sS'moshan'
p1213
I2
sS'swamped'
p1214
I3
sS'developed'
p1215
I2
sS'mission'
p1216
I1
sS'rightminds'
p1217
I1
sS'radar'
p1218
I1
sS'thermal'
p1219
I1
sS'paper'
p1220
I1
sS'scott'
p1221
I1
sS'pdmrs'
p1222
I1
sS'committee'
p1223
I1
sS'committed'
p1224
I1
sS'hell'
p1225
I2
sS'turbine'
p1226
I1
sS'mckinny'
p1227
I1
sS'developer'
p1228
I1
sS'style'
p1229
I6
sS'rapidly'
p1230
I1
sS'mamata'
p1231
I1
sS'fined'
p1232
I1
sS'late'
p1233
I1
sS'detected'
p1234
I1
sS'reuters'
p1235
I14
sS'peanuts'
p1236
I2
sS'argentina'
p1237
I4
sS'evening'
p1238
I3
sS'roke'
p1239
I2
sS'policyhelpcontact'
p1240
I1
sS'cet'
p1241
I1
sS'sanvu'
p1242
I1
sS'chicago'
p1243
I1
sS'association'
p1244
I2
sS'snowmail'
p1245
I1
sS'athletica'
p1246
I1
sS'occasions'
p1247
I1
sS'presented'
p1248
I1
sS'newscore'
p1249
I1
sS'ashes'
p1250
I1
sS'found'
p1251
I2
sS'heavy'
p1252
I31
sS'england'
p1253
I1
sS'chevron'
p1254
I1
sS'generation'
p1255
I5
sS'house'
p1256
I6
sS'fish'
p1257
I1
sS'hard'
p1258
I1
sS'reduce'
p1259
I3
sS'connect'
p1260
I1
sS'operation'
p1261
I2
sS'event'
p1262
I4
sS'initiatives'
p1263
I1
sS'funding'
p1264
I1
sS'print'
p1265
I8
sS'caucasian'
p1266
I1
sS'friday'
p1267
I7
sS'story'
p1268
I7
sS'houses'
p1269
I2
sS'base'
p1270
I1
sS'imaging'
p1271
I1
sS'members'
p1272
I1
sS'rises'
p1273
I3
sS'driven'
p1274
I1
sS'thread'
p1275
I3
sS'launch'
p1276
I1
sS'americas'
p1277
I4
sS'american'
p1278
I2
sS'circuit'
p1279
I1
sS'partnerships'
p1280
I1
sS'feed'
p1281
I2
sS'major'
p1282
I6
sS'dont'
p1283
I1
sS'upper'
p1284
I1
sS'number'
p1285
I3
sS'mist'
p1286
I1
sS'passes'
p1287
I2
sS'horse'
p1288
I1
sS'heads'
p1289
I1
sS'temperature'
p1290
I1
sS'leading'
p1291
I2
sS'regulation'
p1292
I1
sS'station'
p1293
I5
sS'smile'
p1294
I1
sS'storm'
p1295
I8
sS'show'
p1296
I15
sS'conocophillips'
p1297
I1
sS'scheme'
p1298
I1
sS'store'
p1299
I1
sS'erupted'
p1300
I1
sS'extratropical'
p1301
I1
sS'park'
p1302
I2
sS'dentist'
p1303
I1
sS'typhoon'
p1304
I8
sS'claudio'
p1305
I1
sS'presstv'
p1306
I1
sS'neuropathic'
p1307
I1
sS'noticias'
p1308
I1
sS'financing'
p1309
I1
sS'john'
p1310
I1
sS'dtg'
p1311
I1
sS'dikes'
p1312
I1
sS'articlesend'
p1313
I1
sS'treated'
p1314
I1
sS'bioenergia'
p1315
I1
sS'macau'
p1316
I2
sS'strengthen'
p1317
I1
sS'orders'
p1318
I1
sS'karl'
p1319
I1
sS'mountain'
p1320
I1
sS'trip'
p1321
I1
sS'lin'
p1322
I1
sS'click'
p1323
I8
sS'liu'
p1324
I2
sS'build'
p1325
I4
sS'villager'
p1326
I1
sS'play'
p1327
I3
sS'hotel'
p1328
I2
sS'hires'
p1329
I1
sS'electric'
p1330
I1
sS'warnings'
p1331
I1
sS'chars'
p1332
I2
sS'salmon'
p1333
I1
sS'significant'
p1334
I1
sS'windows'
p1335
I3
sS'clear'
p1336
I1
sS'humanitarian'
p1337
I1
sS'km'
p1338
I1
sS'bodies'
p1339
I2
sS'clean'
p1340
I3
sS'microsoft'
p1341
I1
sS'harbin'
p1342
I2
sS'wikinews'
p1343
I1
sS'golf'
p1344
I1
sS'rebels'
p1345
I1
sS'gold'
p1346
I6
sS'cdc'
p1347
I1
sS'businesses'
p1348
I4
sS'shares'
p1349
I8
sS'stalker'
p1350
I1
sS'headlines'
p1351
I3
sS'font'
p1352
I1
sS'find'
p1353
I11
sS'completion'
p1354
I1
sS'access'
p1355
I2
sS'giant'
p1356
I1
sS'northern'
p1357
I4
sS'scooter'
p1358
I1
sS'lightspeed'
p1359
I3
sS'flights'
p1360
I1
sS'indian'
p1361
I2
sS'factor'
p1362
I3
sS'iec'
p1363
I1
sS'cots'
p1364
I1
sS'hiv'
p1365
I1
sS'arts'
p1366
I3
sS'femail'
p1367
I1
sS'observatory'
p1368
I3
sS'batter'
p1369
I4
sS'breast'
p1370
I2
sS'disqus'
p1371
I1
sS'intensify'
p1372
I1
sS'sources'
p1373
I7
sS'tumors'
p1374
I1
sS'cry'
p1375
I2
sS'investigate'
p1376
I1
sS'common'
p1377
I1
sS'recommendations'
p1378
I2
sS'river'
p1379
I29
sS'logistik'
p1380
I1
sS'startup'
p1381
I1
sS'sex'
p1382
I1
sS'culture'
p1383
I5
sS'sea'
p1384
I1
sS'unsure'
p1385
I1
sS'expert'
p1386
I1
sS'crossword'
p1387
I1
sS'fans'
p1388
I4
sS'captured'
p1389
I1
sS'conditions'
p1390
I2
sS'muslim'
p1391
I1
sS'europa'
p1392
I1
sS'missing'
p1393
I40
sS'javascript'
p1394
I3
sS'rapid'
p1395
I1
sS'useprivacy'
p1396
I3
sS'pepsi'
p1397
I2
sS'sclc'
p1398
I1
sS'license'
p1399
I1
sS'ousted'
p1400
I1
sS'annual'
p1401
I4
sS'zacks'
p1402
I1
sS'buzz'
p1403
I1
sS'interactive'
p1404
I2
sS'experimental'
p1405
I1
sS'upgraded'
p1406
I1
sS'guangxi'
p1407
I1
sS'supply'
p1408
I4
sS'smith'
p1409
I1
sS'kilometers'
p1410
I1
sS'community'
p1411
I4
sS'wen'
p1412
I1
sS'likes'
p1413
I1
sS'scottish'
p1414
I1
sS'ravaged'
p1415
I1
sS'expensive'
p1416
I1
sS'decline'
p1417
I1
sS'dams'
p1418
I5
sS'create'
p1419
I3
sS'political'
p1420
I3
sS'due'
p1421
I3
sS'strategy'
p1422
I2
sS'pc'
p1423
I2
sS'supplying'
p1424
I2
sS'ireland'
p1425
I2
sS'screener'
p1426
I1
sS'slips'
p1427
I1
sS'nrl'
p1428
I1
sS'fund'
p1429
I1
sS'lives'
p1430
I4
sS'receive'
p1431
I2
sS'towns'
p1432
I1
sS'plants'
p1433
I5
sS'survivor'
p1434
I1
sS'villagers'
p1435
I3
sS'enrollment'
p1436
I1
sS'bill'
p1437
I1
sS'mln'
p1438
I1
sS'institute'
p1439
I2
sS'fleet'
p1440
I3
sS'afghanistanaustraliabrazilcanadachilechinacolombiacubaegypteurozonefrancegeorgiagermanyhaitihondurasindiaindonesiairaniraqirelandisraelitalyjapanlibyamexiconorth'
p1441
I1
sS'guide'
p1442
I2
sS'voa'
p1443
I1
sS'century'
p1444
I2
sS'owes'
p1445
I1
sS'raiders'
p1446
I1
sS'italy'
p1447
I1
sS'grant'
p1448
I1
sS'lilly'
p1449
I1
sS'delicious'
p1450
I1
sS'grand'
p1451
I1
sS'spears'
p1452
I1
sS'higher'
p1453
I1
sS'itcn'
p1454
I1
sS'currencies'
p1455
I1
sS'temporary'
p1456
I1
sS'forced'
p1457
I4
sS'flooded'
p1458
I6
sS'yesterday'
p1459
I4
sS'alert'
p1460
I2
sS'levels'
p1461
I9
sS'moving'
p1462
I1
sS'yuan'
p1463
I6
sS'recent'
p1464
I2
sS'early'
p1465
I3
sS'lower'
p1466
I4
sS'ninemsn'
p1467
I1
sS'poland'
p1468
I1
sS'picks'
p1469
I9
sS'grid'
p1470
I1
sS'lowers'
p1471
I1
sS'responsible'
p1472
I5
sS'brecher'
p1473
I1
sS'seminarby'
p1474
I1
sS'questions'
p1475
I2
sS'alternative'
p1476
I2
sS'sidebar'
p1477
I2
sS'continent'
p1478
I1
sS'hotpot'
p1479
I1
sS'loading'
p1480
I6
sS'suizhou'
p1481
I1
sS'workers'
p1482
I4
sS'anova'
p1483
I1
sS'barack'
p1484
I1
sS'exhibition'
p1485
I6
sS'circumcision'
p1486
I1
sS'tormented'
p1487
I1
sS'violations'
p1488
I3
sS'customers'
p1489
I1
sS'emergency'
p1490
I1
sS'big'
p1491
I5
sS'bid'
p1492
I1
sS'results'
p1493
I6
sS'game'
p1494
I1
sS'precipitation'
p1495
I1
sS'projects'
p1496
I1
sS'kyrgyzstan'
p1497
I1
sS'counterintuitive'
p1498
I1
sS'toyota'
p1499
I1
sS'rainstorms'
p1500
I7
sS'communications'
p1501
I1
sS'smtwtfs'
p1502
I1
sS'essential'
p1503
I1
sS'sitemap'
p1504
I4
sS'google'
p1505
I3
sS'loudi'
p1506
I1
sS'senate'
p1507
I1
sS'back'
p1508
I3
sS'streaming'
p1509
I1
sS'economic'
p1510
I3
sS'pricing'
p1511
I1
sS'newsletter'
p1512
I2
sS'qatar'
p1513
I1
sS'describing'
p1514
I1
sS'affects'
p1515
I1
sS'decision'
p1516
I1
sS'innovation'
p1517
I1
sS'dating'
p1518
I1
sS'approves'
p1519
I1
sS'kuala'
p1520
I1
sS'reach'
p1521
I2
sS'stem'
p1522
I1
sS'bp'
p1523
I2
sS'shale'
p1524
I1
sS'vaccine'
p1525
I2
sS'daimler'
p1526
I1
sS'pipeline'
p1527
I2
sS'pepsico'
p1528
I2
sS'trucking'
p1529
I1
sS'stricken'
p1530
I1
sS'bariloche'
p1531
I1
sS'slams'
p1532
I1
sS'silence'
p1533
I1
sS'pollution'
p1534
I1
sS'mudslides'
p1535
I1
sS'hometown'
p1536
I1
sS'higos'
p1537
I1
sS'ahmadinejad'
p1538
I1
sS'logged'
p1539
I2
sS'msn'
p1540
I3
sS'question'
p1541
I1
sS'pharmaceuticals'
p1542
I1
sS'mountains'
p1543
I1
sS'inches'
p1544
I1
sS'etropole'
p1545
I1
sS'registered'
p1546
I1
sS'specialty'
p1547
I1
sS'link'
p1548
I1
sS'line'
p1549
I2
sS'junior'
p1550
I1
sS'posted'
p1551
I2
sS'info'
p1552
I1
sS'patriot'
p1553
I1
sS'wenzhou'
p1554
I1
sS'mobile'
p1555
I9
sS'exploration'
p1556
I1
sS'planes'
p1557
I1
sS'autonomous'
p1558
I1
sS'similar'
p1559
I1
sS'called'
p1560
I1
sS'adults'
p1561
I1
sS'accessibility'
p1562
I7
sS'warning'
p1563
I3
sS'reservoirs'
p1564
I1
sS'cotton'
p1565
I1
sS'rainy'
p1566
I1
sS'rains'
p1567
I26
sS'nanyang'
p1568
I3
sS'fears'
p1569
I4
sS'changjiang'
p1570
I3
sS'beryl'
p1571
I1
sS'transport'
p1572
I3
sS'department'
p1573
I2
sS'elements'
p1574
I1
sS'kansas'
p1575
I1
sS'regulations'
p1576
I1
sS'realclearworld'
p1577
I1
sS'armed'
p1578
I1
sS'sides'
p1579
I1
sS'ago'
p1580
I7
sS'updates'
p1581
I2
sS'rescued'
p1582
I1
sS'youtube'
p1583
I1
sS'emailpasswordkeep'
p1584
I1
sS'nasa'
p1585
I3
sS'scroll'
p1586
I2
sS'taize'
p1587
I1
sS'code'
p1588
I3
sS'edf'
p1589
I1
sS'gp'
p1590
I1
sS'issued'
p1591
I3
sS'taizi'
p1592
I1
sS'resistance'
p1593
I1
sS'ge'
p1594
I1
sS'edt'
p1595
I5
sS'winds'
p1596
I2
sS'query'
p1597
I1
sS'gm'
p1598
I3
sS'ammonia'
p1599
I1
sS'issues'
p1600
I3
sS'simon'
p1601
I1
sS'earthbound'
p1602
I1
sS'turkish'
p1603
I1
sS'disposal'
p1604
I1
sS'concerned'
p1605
I1
sS'kosovo'
p1606
I2
sS'young'
p1607
I2
sS'send'
p1608
I7
sS'topic'
p1609
I9
sS'helps'
p1610
I3
sS'atlas'
p1611
I1
sS'breach'
p1612
I1
sS'maryland'
p1613
I1
sS'fatal'
p1614
I1
sS'relocated'
p1615
I1
sS'dandy'
p1616
I1
sS'garden'
p1617
I3
sS'ophelia'
p1618
I1
sS'osofar'
p1619
I3
sS'wave'
p1620
I3
sS'zhejiang'
p1621
I18
sS'continued'
p1622
I4
sS'categories'
p1623
I3
sS'severely'
p1624
I1
sS'magic'
p1625
I1
sS'evo'
p1626
I1
sS'harbor'
p1627
I1
sS'leveled'
p1628
I1
sS'michael'
p1629
I1
sS'deals'
p1630
I3
sS'race'
p1631
I1
sS'sewage'
p1632
I1
sS'logistics'
p1633
I1
sS'smaller'
p1634
I1
sS'jbht'
p1635
I1
sS'crop'
p1636
I1
sS'rivers'
p1637
I9
sS'jump'
p1638
I5
sS'download'
p1639
I1
sS'acid'
p1640
I1
sS'croc'
p1641
I1
sS'depression'
p1642
I1
sS'index'
p1643
I5
sS'plays'
p1644
I1
sS'unavailable'
p1645
I2
sS'showcase'
p1646
I2
sS'piper'
p1647
I1
sS'zhao'
p1648
I1
sS'paddle'
p1649
I1
sS'overwhelmed'
p1650
I1
sS'cell'
p1651
I4
sS'accuweather'
p1652
I1
sS'chickpeas'
p1653
I1
sS'capital'
p1654
I2
sS'cimsa'
p1655
I1
sS'stance'
p1656
I1
sS'exchange'
p1657
I1
sS'pushing'
p1658
I1
sS'commercial'
p1659
I1
sS'explore'
p1660
I2
sS'making'
p1661
I2
sS'tremor'
p1662
I1
sS'extreme'
p1663
I1
sS'great'
p1664
I1
sS'copyright'
p1665
I15
sS'rds'
p1666
I1
sS'cern'
p1667
I3
sS'alaska'
p1668
I1
sS'leaving'
p1669
I6
sS'suggests'
p1670
I1
sS'analitica'
p1671
I1
sS'menu'
p1672
I1
sS'opinion'
p1673
I7
sS'residents'
p1674
I12
sS'makes'
p1675
I2
sS'explain'
p1676
I1
sS'named'
p1677
I1
sS'decentralized'
p1678
I1
sS'firefox'
p1679
I1
sS'danger'
p1680
I1
sS'egypt'
p1681
I1
sS'win'
p1682
I1
sS'app'
p1683
I1
sS'manage'
p1684
I1
sS'supergrid'
p1685
I1
sS'wii'
p1686
I1
sS'outcomes'
p1687
I1
sS'austria'
p1688
I1
sS'decrease'
p1689
I1
sS'names'
p1690
I1
sS'motor'
p1691
I1
sS'administration'
p1692
I1
sS'tools'
p1693
I1
sS'gateway'
p1694
I2
sS'cloud'
p1695
I1
sS'standing'
p1696
I1
sS'fed'
p1697
I1
sS'usd'
p1698
I2
sS'clarifications'
p1699
I1
sS'usj'
p1700
I1
sS'panel'
p1701
I2
sS'subsidies'
p1702
I1
sS'newsletters'
p1703
I1
sS'dentists'
p1704
I1
sS'started'
p1705
I1
sS'occurred'
p1706
I1
sS'cooperate'
p1707
I1
sS'dentistry'
p1708
I1
sS'sorl'
p1709
I1
sS'iii'
p1710
I2
sS'charity'
p1711
I1
sS'customer'
p1712
I1
sS'stumbleupon'
p1713
I1
sS'account'
p1714
I2
sS'animals'
p1715
I1
sS'britney'
p1716
I1
sS'tunnel'
p1717
I1
sS'clients'
p1718
I1
sS'recession'
p1719
I2
sS'closing'
p1720
I2
sS'control'
p1721
I6
sS'beijing'
p1722
I16
sS'xiushui'
p1723
I3
sS'tap'
p1724
I1
sS'tax'
p1725
I1
sS'high'
p1726
I2
sS'slip'
p1727
I1
sS'zhuang'
p1728
I1
sS'autobiography'
p1729
I1
sS'dennis'
p1730
I1
sS'delay'
p1731
I1
sS'located'
p1732
I1
sS'afp'
p1733
I2
sS'stock'
p1734
I4
sS'profile'
p1735
I1
sS'pink'
p1736
I1
sS'buildings'
p1737
I2
sS'express'
p1738
I1
sS'farm'
p1739
I4
sS'stop'
p1740
I1
sS'waters'
p1741
I1
sS'sip'
p1742
I1
sS'tier'
p1743
I1
sS'prostate'
p1744
I2
sS'geek'
p1745
I1
sS'boeing'
p1746
I1
sS'light'
p1747
I2
sS'commodities'
p1748
I3
sS'notificationchild'
p1749
I3
sS'favourites'
p1750
I1
sS'swimming'
p1751
I1
sS'discussion'
p1752
I3
sS'ignite'
p1753
I1
sS'aiken'
p1754
I1
sS'producer'
p1755
I3
sS'reeling'
p1756
I1
sS'areas'
p1757
I19
sS'move'
p1758
I4
sS'cropland'
p1759
I2
sS'meter'
p1760
I3
sS'including'
p1761
I2
sS'quake'
p1762
I2
sS'badges'
p1763
I3
sS'warren'
p1764
I1
sS'chemical'
p1765
I1
sS'macuser'
p1766
I1
sS'chosen'
p1767
I1
sS'linyi'
p1768
I3
sS'acres'
p1769
I1
sS'newsgroup'
p1770
I1
sS'degrees'
p1771
I2
sS'automation'
p1772
I1
sS'orange'
p1773
I1
sS'covered'
p1774
I1
sS'eur'
p1775
I1
sS'hainan'
p1776
I1
sS'crash'
p1777
I3
sS'dam'
p1778
I3
sS'nokia'
p1779
I1
sS'newman'
p1780
I1
sS'cutting'
p1781
I1
sS'mandate'
p1782
I1
sS'wheatstone'
p1783
I1
sS'republican'
p1784
I3
sS'flee'
p1785
I4
sS'presidential'
p1786
I3
sS'edit'
p1787
I3
sS'warned'
p1788
I2
sS'slide'
p1789
I1
sS'shortage'
p1790
I1
sS'bills'
p1791
I1
sS'warner'
p1792
I1
sS'casinos'
p1793
I1
sS'platform'
p1794
I4
sS'tents'
p1795
I1
sS'related'
p1796
I9
sS'society'
p1797
I2
sS'muniland'
p1798
I1
sS'sexual'
p1799
I1
sS'special'
p1800
I3
sS'chaos'
p1801
I2
sS'thrifty'
p1802
I1
sS'dailymotionunited'
p1803
I3
sS'calif'
p1804
I1
sS'red'
p1805
I4
sS'shut'
p1806
I1
sS'wines'
p1807
I1
sS'retrieved'
p1808
I1
sS'resumed'
p1809
I1
sS'farmland'
p1810
I1
sS'organic'
p1811
I1
sS'bowman'
p1812
I1
sS'spill'
p1813
I2
sS'florida'
p1814
I1
sS'times'
p1815
I6
sS'abuse'
p1816
I1
sS'davis'
p1817
I5
sS'retail'
p1818
I1
sS'kendall'
p1819
I1
sS'succeeds'
p1820
I1
sS'reaches'
p1821
I4
sS'reached'
p1822
I2
sS'braces'
p1823
I1
sS'playlist'
p1824
I1
sS'swept'
p1825
I1
sS'los'
p1826
I1
sS'evacuates'
p1827
I1
sS'myspace'
p1828
I1
sS'hilary'
p1829
I1
sS'relations'
p1830
I1
sS'attack'
p1831
I3
sS'palestine'
p1832
I1
sS'rated'
p1833
I1
sS'jellyfish'
p1834
I1
sS'final'
p1835
I2
sS'minjiang'
p1836
I3
sS'shell'
p1837
I1
sS'acquire'
p1838
I1
sS'environmental'
p1839
I1
sS'branches'
p1840
I1
sS'july'
p1841
I2
sS'pageinsightserroryou'
p1842
I2
sS'rss'
p1843
I3
sS'colleagues'
p1844
I1
sS'subscriber'
p1845
I1
sS'isolation'
p1846
I1
sS'claim'
p1847
I1
sS'compensation'
p1848
I1
sS'malpractice'
p1849
I3
sS'steep'
p1850
I1
sS'bet'
p1851
I1
sS'result'
p1852
I1
sS'tonight'
p1853
I1
sS'close'
p1854
I6
sS'linked'
p1855
I2
sS'dishes'
p1856
I2
sS'agency'
p1857
I23
sS'mie'
p1858
I1
sS'parks'
p1859
I1
sS'relatives'
p1860
I1
sS'pivotal'
p1861
I1
sS'fuels'
p1862
I4
sS'combat'
p1863
I1
sS'dutch'
p1864
I1
sS'connected'
p1865
I1
sS'jul'
p1866
I1
sS'preliminary'
p1867
I1
sS'transcript'
p1868
I1
sS'gallery'
p1869
I4
sS'wangmo'
p1870
I3
sS'neighboring'
p1871
I1
sS'stranded'
p1872
I2
sS'disease'
p1873
I2
sS'construction'
p1874
I1
sS'parris'
p1875
I1
sS'atmosphere'
p1876
I1
sS'hongzehong'
p1877
I3
sS'text'
p1878
I6
sS'charles'
p1879
I1
sS'bring'
p1880
I7
sS'planning'
p1881
I1
sS'soldiers'
p1882
I1
sS'fear'
p1883
I1
sS'debate'
p1884
I3
sS'decade'
p1885
I5
sS'staff'
p1886
I1
sS'forex'
p1887
I1
sS'tire'
p1888
I1
sS'clutching'
p1889
I1
sS'winner'
p1890
I1
sS'pickup'
p1891
I1
sS'fuel'
p1892
I4
sS'gillard'
p1893
I1
sS'hope'
p1894
I5
sS'bonds'
p1895
I1
sS'photography'
p1896
I1
sS'sues'
p1897
I1
sS'fallout'
p1898
I1
sS'spur'
p1899
I1
sS'tianhe'
p1900
I3
sS'evolution'
p1901
I1
sS'amid'
p1902
I2
sS'shu'
p1903
I2
sS'trucks'
p1904
I1
sS'ended'
p1905
I1
sS'adchoices'
p1906
I3
sS'teams'
p1907
I1
sS'qi'
p1908
I1
sS'embryonic'
p1909
I1
sS'view'
p1910
I4
sS'accuses'
p1911
I1
sS'humiliation'
p1912
I1
sS'africasyriathailandtunisiaturkeyunited'
p1913
I1
sS'humans'
p1914
I1
sS'edition'
p1915
I3
sS'officials'
p1916
I5
sS'enhanced'
p1917
I1
sS'atlantic'
p1918
I4
sS'acquires'
p1919
I1
sS'dlc'
p1920
I1
sS'biofuel'
p1921
I1
sS'maddow'
p1922
I2
sS'nuclear'
p1923
I8
sS'shareadd'
p1924
I3
sS'injustice'
p1925
I2
sS'tyre'
p1926
I1
sS'crude'
p1927
I1
sS'thishurricane'
p1928
I1
sS'email'
p1929
I12
sS'luo'
p1930
I1
sS'zeitgeist'
p1931
I2
sS'spares'
p1932
I1
sS'rescuers'
p1933
I4
sS'beverages'
p1934
I1
sS'efficiency'
p1935
I1
sS'job'
p1936
I2
sS'takeover'
p1937
I1
sS'key'
p1938
I1
sS'approval'
p1939
I1
sS'lawsuit'
p1940
I1
sS'lanxi'
p1941
I2
sS'monitor'
p1942
I1
sS'hits'
p1943
I3
sS'la'
p1944
I1
sS'drug'
p1945
I3
sS'grain'
p1946
I1
sS'bronx'
p1947
I1
sS'sanjiangkou'
p1948
I2
sS'comment'
p1949
I14
sS'relevant'
p1950
I1
sS'wall'
p1951
I1
sS'tuesday'
p1952
I6
sS'ce'
p1953
I1
sS'subscribe'
p1954
I2
sS'fukushima'
p1955
I1
sS'cp'
p1956
I1
sS'provinces'
p1957
I16
sS'powered'
p1958
I6
sS'bbc'
p1959
I5
sS'copies'
p1960
I1
sS'cent'
p1961
I1
sS'genetic'
p1962
I1
sS'hindi'
p1963
I1
sS'waste'
p1964
I4
sS'partial'
p1965
I3
sS'username'
p1966
I1
sS'diversity'
p1967
I1
sS'league'
p1968
I1
sS'netanyahu'
p1969
I1
sS'al'
p1970
I2
sS'smoking'
p1971
I1
sS'mourning'
p1972
I1
sS'homes'
p1973
I8
sS'couple'
p1974
I3
sS'cbs'
p1975
I2
sS'freeport'
p1976
I1
sS'podcasts'
p1977
I2
sS'qualcomm'
p1978
I1
sS'qianting'
p1979
I1
sS'wild'
p1980
I1
sS'sabmiller'
p1981
I1
sS'evacuees'
p1982
I1
sS'upfacebook'
p1983
I1
sS'linkedin'
p1984
I1
sS'helped'
p1985
I2
sS'thug'
p1986
I1
sS'finance'
p1987
I5
sS'tattoo'
p1988
I1
sS'generic'
p1989
I1
sS'radiation'
p1990
I1
sS'cross'
p1991
I2
sS'parts'
p1992
I11
sS'auto'
p1993
I1
sS'terrorism'
p1994
I1
sS'simulation'
p1995
I1
sS'tighten'
p1996
I1
sS'columbia'
p1997
I7
sS'bali'
p1998
I1
sS'drink'
p1999
I1
sS'forecasts'
p2000
I3
sS'nightly'
p2001
I3
sS'issuance'
p2002
I1
sS'warming'
p2003
I1
sS'center'
p2004
I8
sS'indonesia'
p2005
I1
sS'fighting'
p2006
I2
sS'english'
p2007
I2
sS'yangtze'
p2008
I7
sS'audio'
p2009
I1
sS'load'
p2010
I1
sS'percent'
p2011
I5
sS'hands'
p2012
I1
sS'embankments'
p2013
I2
sS'hukou'
p2014
I3
sS'momenta'
p2015
I1
sS'dmexco'
p2016
I1
sS'afflicted'
p2017
I1
sS'web'
p2018
I14
sS'bicycles'
p2019
I1
sS'entire'
p2020
I1
sS'podcast'
p2021
I1
sS'point'
p2022
I1
sS'sky'
p2023
I1
sS'lake'
p2024
I3
sS'discuss'
p2025
I3
sS'arrest'
p2026
I2
sS'delegations'
p2027
I1
sS'ski'
p2028
I1
sS'smart'
p2029
I1
sS'recycling'
p2030
I2
sS'myth'
p2031
I1
sS'kesko'
p2032
I1
sS'password'
p2033
I3
sS'dailymotionaboutpressjobsall'
p2034
I3
sS'loss'
p2035
I3
sS'displaced'
p2036
I5
sS'lost'
p2037
I2
sS'chairs'
p2038
I2
sS'biotechs'
p2039
I1
sS'nanning'
p2040
I3
sS'herong'
p2041
I3
sS'hosts'
p2042
I1
sS'displaces'
p2043
I3
sS'surgery'
p2044
I1
sS'january'
p2045
I1
sS'leaves'
p2046
I4
sS'works'
p2047
I1
sS'soft'
p2048
I1
sS'tumble'
p2049
I1
sS'twitter'
p2050
I9
sS'village'
p2051
I4
sS'authority'
p2052
I1
sS'mosquitoes'
p2053
I1
sS'growth'
p2054
I1
sS'gave'
p2055
I1
sS'recognition'
p2056
I1
sS'disrupting'
p2057
I1
sS'monday'
p2058
I5
sS'avoid'
p2059
I1
sS'hurricane'
p2060
I3
sS'pashto'
p2061
I1
sS'leader'
p2062
I1
sS'schedule'
p2063
I1
sS'journal'
p2064
I4
sS'host'
p2065
I1
sS'mondale'
p2066
I1
sS'counties'
p2067
I3
sS'stage'
p2068
I1
sS'lifestyle'
p2069
I2
sS'huaihe'
p2070
I3
sS'freedom'
p2071
I1
sS'shipping'
p2072
I1
sS'angeles'
p2073
I1
sS'printemailtweet'
p2074
I1
sS'andes'
p2075
I1
sS'seeds'
p2076
I2
sS'pressrelease'
p2077
I3
sS'urges'
p2078
I2
sS'irishman'
p2079
I1
sS'software'
p2080
I2
sS'alliance'
p2081
I1
sS'letters'
p2082
I2
sS'washington'
p2083
I4
sS'chronic'
p2084
I1
sS'weather'
p2085
I24
sS'lung'
p2086
I1
sS'mississippi'
p2087
I1
sS'additional'
p2088
I1
sS'biggest'
p2089
I2
sS'picturesin'
p2090
I1
sS'jason'
p2091
I2
sS'beverage'
p2092
I1
sS'buy'
p2093
I3
sS'triggered'
p2094
I9
sS'funds'
p2095
I1
sS'coke'
p2096
I1
sS'evacuate'
p2097
I5
sS'xinhua'
p2098
I34
sS'believes'
p2099
I2
sS'battlefield'
p2100
I1
sS'weihe'
p2101
I5
sS'highest'
p2102
I1
sS'made'
p2103
I1
sS'cells'
p2104
I1
sS'official'
p2105
I2
sS'hosting'
p2106
I1
sS'volvo'
p2107
I1
sS'record'
p2108
I1
sS'weinan'
p2109
I1
sS'distribution'
p2110
I1
sS'lightning'
p2111
I2
sS'display'
p2112
I2
sS'foster'
p2113
I2
sS'irish'
p2114
I1
sS'motionmakerbecome'
p2115
I3
sS'deaths'
p2116
I3
sS'dissemination'
p2117
I1
sS'pig'
p2118
I1
sS'eu'
p2119
I5
sS'autism'
p2120
I1
sS'agriculture'
p2121
I1
sS'offensive'
p2122
I2
sS'termsterms'
p2123
I3
sS'usblogfacebooktwitter'
p2124
I3
sS'zhou'
p2125
I2
sS'friends'
p2126
I3
sS'samsung'
p2127
I1
sS'blogs'
p2128
I2
sS'commencement'
p2129
I1
sS'lift'
p2130
I1
sS'biotechnology'
p2131
I1
sS'expands'
p2132
I1
sS'thunderstorms'
p2133
I1
stp2134
Rp2135
sS'_bins'
p2136
I3854
sS'_divisor'
p2137
F7014.0
sbs(g8
g12
tp2138
g0
(g14
g2
Ntp2139
Rp2140
(dp2141
g18
F0.5
sg19
I5703
sg20
g21
((dp2142
S'aided'
p2143
I1
sS'gadhafi'
p2144
I2
sS'seaworld'
p2145
I1
sS'sweetening'
p2146
I1
sS'mccaffrey'
p2147
I1
sS'scientistsby'
p2148
I1
sS'implants'
p2149
I1
sS'kinyarwanda'
p2150
I2
sS'uzbekistan'
p2151
I1
sS'facilities'
p2152
I6
sS'protest'
p2153
I2
sS'dietetic'
p2154
I1
sS'likelikeconfirmyou'
p2155
I1
sS'cyprus'
p2156
I2
sS'likerecommendconfirmyou'
p2157
I6
sS'therapeutics'
p2158
I2
sS'aug'
p2159
I18
sS'electricity'
p2160
I2
sS'crises'
p2161
I1
sS'tweet'
p2162
I1
sS'homevideosnewsentertainmentcelebsmovieslifestylesportsbusinessautofunnyet'
p2163
I1
sS'swap'
p2164
I2
sS'caused'
p2165
I3
sS'plants'
p2166
I1
sS'risk'
p2167
I9
sS'dynamic'
p2168
I1
sS'rise'
p2169
I7
sS'georgia'
p2170
I3
sS'updates'
p2171
I3
sS'reforms'
p2172
I1
sS'affect'
p2173
I1
sS'dreamworks'
p2174
I1
sS'tickets'
p2175
I2
sS'sichuan'
p2176
I1
sS'school'
p2177
I7
sS'cml'
p2178
I1
sS'exaggerate'
p2179
I1
sS'skills'
p2180
I1
sS'elevance'
p2181
I1
sS'companies'
p2182
I12
sS'solution'
p2183
I4
sS'sri'
p2184
I1
sS'monsanto'
p2185
I1
sS'red'
p2186
I1
sS'indices'
p2187
I1
sS'enhance'
p2188
I2
sS'ups'
p2189
I1
sS'tirec'
p2190
I2
sS'jamaica'
p2191
I1
sS'force'
p2192
I3
sS'leaders'
p2193
I9
sS'deutsch'
p2194
I1
sS'miller'
p2195
I2
sS'warns'
p2196
I5
sS'guidelines'
p2197
I1
sS'bacon'
p2198
I1
sS'direct'
p2199
I1
sS'horn'
p2200
I1
sS'cameron'
p2201
I2
sS'street'
p2202
I1
sS'eurovision'
p2203
I1
sS'blue'
p2204
I1
sS'established'
p2205
I1
sS'hide'
p2206
I1
sS'preferences'
p2207
I1
sS'prisons'
p2208
I1
sS'saved'
p2209
I1
sS'liberty'
p2210
I1
sS'paphos'
p2211
I1
sS'toll'
p2212
I2
sS'supplies'
p2213
I1
sS'tips'
p2214
I3
sS'disney'
p2215
I2
sS'told'
p2216
I2
sS'courteney'
p2217
I1
sS'catal'
p2218
I1
sS'statehood'
p2219
I2
sS'men'
p2220
I23
sS'chinaby'
p2221
I1
sS'affiliates'
p2222
I3
sS'hundreds'
p2223
I2
sS'reported'
p2224
I2
sS'protection'
p2225
I2
sS'celebration'
p2226
I1
sS'kids'
p2227
I2
sS'forum'
p2228
I5
sS'auction'
p2229
I2
sS'elaborate'
p2230
I2
sS'changed'
p2231
I1
sS'reports'
p2232
I6
sS'credit'
p2233
I5
sS'chrysler'
p2234
I1
sS'military'
p2235
I5
sS'rebel'
p2236
I1
sS'golden'
p2237
I1
sS'norsk'
p2238
I1
sS'secure'
p2239
I1
sS'campaign'
p2240
I6
sS'wikimedia'
p2241
I2
sS'schooling'
p2242
I1
sS'visible'
p2243
I1
sS'pataudi'
p2244
I2
sS'moral'
p2245
I1
sS'opportunities'
p2246
I3
sS'orenburg'
p2247
I1
sS'total'
p2248
I1
sS'landscape'
p2249
I1
sS'sarah'
p2250
I2
sS'portugal'
p2251
I1
sS'army'
p2252
I2
sS'arms'
p2253
I3
sS'garners'
p2254
I2
sS'plog'
p2255
I3
sS'program'
p2256
I3
sS'call'
p2257
I2
sS'asset'
p2258
I1
sS'recommend'
p2259
I10
sS'strike'
p2260
I2
sS'indiana'
p2261
I2
sS'preview'
p2262
I3
sS'type'
p2263
I2
sS'slaughtered'
p2264
I1
sS'successful'
p2265
I2
sS'brings'
p2266
I2
sS'wars'
p2267
I1
sS'award'
p2268
I2
sS'toolbar'
p2269
I1
sS'phone'
p2270
I8
sS'berlin'
p2271
I1
sS'hold'
p2272
I2
sS'kumar'
p2273
I1
sS'mg'
p2274
I1
sS'join'
p2275
I7
sS'room'
p2276
I1
sS'midwest'
p2277
I5
sS'mo'
p2278
I1
sS'work'
p2279
I6
sS'eclipse'
p2280
I1
sS'movies'
p2281
I1
sS'mw'
p2282
I4
sS'usersubscribe'
p2283
I1
sS'mp'
p2284
I1
sS'transparency'
p2285
I1
sS'exceptions'
p2286
I1
sS'plunges'
p2287
I2
sS'newfoundland'
p2288
I1
sS'hyatt'
p2289
I1
sS'dailymotion'
p2290
I1
sS'uaw'
p2291
I1
sS'currency'
p2292
I3
sS'foods'
p2293
I2
sS'scrollbars'
p2294
I1
sS'appointment'
p2295
I1
sS'guarantee'
p2296
I1
sS'ceremony'
p2297
I1
sS'provincial'
p2298
I1
sS'tornadoes'
p2299
I1
sS'end'
p2300
I11
sS'recovery'
p2301
I1
sS'hon'
p2302
I1
sS'kabul'
p2303
I1
sS'hot'
p2304
I3
sS'allied'
p2305
I1
sS'trusted'
p2306
I3
sS'lisa'
p2307
I1
sS'toxic'
p2308
I1
sS'place'
p2309
I2
sS'beach'
p2310
I2
sS'charging'
p2311
I1
sS'offshore'
p2312
I4
sS'massive'
p2313
I1
sS'chaddockpage'
p2314
I1
sS'regional'
p2315
I2
sS'elizabeth'
p2316
I1
sS'beauty'
p2317
I1
sS'earlier'
p2318
I1
sS'scottsdale'
p2319
I1
sS'customs'
p2320
I1
sS'documentheight'
p2321
I1
sS'law'
p2322
I5
sS'lesbian'
p2323
I1
sS'purchase'
p2324
I1
sS'wins'
p2325
I7
sS'greet'
p2326
I1
sS'luring'
p2327
I1
sS'bator'
p2328
I1
sS'bahasa'
p2329
I1
sS'enter'
p2330
I4
sS'sortiert'
p2331
I1
sS'diary'
p2332
I1
sS'order'
p2333
I2
sS'wind'
p2334
I24
sS'operations'
p2335
I3
sS'executed'
p2336
I2
sS'beihai'
p2337
I1
sS'feedback'
p2338
I1
sS'office'
p2339
I2
sS'deck'
p2340
I1
sS'papiamentu'
p2341
I1
sS'consent'
p2342
I2
sS'murray'
p2343
I1
sS'london'
p2344
I6
sS'rsshome'
p2345
I1
sS'innovative'
p2346
I1
sS'japan'
p2347
I10
sS'biofuels'
p2348
I1
sS'welcomes'
p2349
I1
sS'austerity'
p2350
I1
sS'anhui'
p2351
I1
sS'imf'
p2352
I3
sS'personal'
p2353
I7
sS'highlights'
p2354
I5
sS'fix'
p2355
I2
sS'denver'
p2356
I24
sS'writing'
p2357
I2
sS'destroyed'
p2358
I2
sS'production'
p2359
I7
sS'romeo'
p2360
I1
sS'hidden'
p2361
I1
sS'cree'
p2362
I1
sS'prius'
p2363
I2
sS'ftse'
p2364
I2
sS'iowa'
p2365
I3
sS'diseases'
p2366
I2
sS'bans'
p2367
I1
sS'safe'
p2368
I1
sS'nownews'
p2369
I1
sS'band'
p2370
I1
sS'bang'
p2371
I1
sS'gazprom'
p2372
I1
sS'therapy'
p2373
I1
sS'versandkosten'
p2374
I2
sS'flotation'
p2375
I1
sS'schools'
p2376
I3
sS'tourism'
p2377
I1
sS'silver'
p2378
I3
sS'bank'
p2379
I14
sS'gloom'
p2380
I1
sS'netherlands'
p2381
I2
sS'sanya'
p2382
I1
sS'debut'
p2383
I20
sS'pakistanis'
p2384
I1
sS'fitness'
p2385
I1
sS'volcano'
p2386
I1
sS'feeds'
p2387
I2
sS'meal'
p2388
I1
sS'bond'
p2389
I1
sS'financial'
p2390
I8
sS'series'
p2391
I1
sS'crimes'
p2392
I1
sS'spider'
p2393
I1
sS'upload'
p2394
I3
sS'literature'
p2395
I3
sS'trading'
p2396
I4
sS'navy'
p2397
I1
sS'dawn'
p2398
I2
sS'blinded'
p2399
I1
sS'driving'
p2400
I4
sS'rs'
p2401
I2
sS'god'
p2402
I1
sS'dst'
p2403
I1
sS'diesel'
p2404
I1
sS'sand'
p2405
I1
sS'trainers'
p2406
I1
sS'smp'
p2407
I1
sS'content'
p2408
I7
sS'neft'
p2409
I1
sS'encourage'
p2410
I2
sS'reader'
p2411
I1
sS'exxonmobil'
p2412
I2
sS'gov'
p2413
I1
sS'pagethe'
p2414
I1
sS'dea'
p2415
I1
sS'mullen'
p2416
I2
sS'turning'
p2417
I1
sS'paen'
p2418
I1
sS'standard'
p2419
I1
sS'campaigns'
p2420
I1
sS'appointments'
p2421
I1
sS'jennie'
p2422
I1
sS'dailyfinance'
p2423
I19
sS'shaanxi'
p2424
I1
sS'starts'
p2425
I2
sS'messages'
p2426
I1
sS'days'
p2427
I2
sS'silicon'
p2428
I1
sS'ministries'
p2429
I1
sS'aspiro'
p2430
I1
sS'transexpo'
p2431
I1
sS'size'
p2432
I1
sS'trke'
p2433
I1
sS'features'
p2434
I2
sS'primary'
p2435
I3
sS'rant'
p2436
I1
sS'featured'
p2437
I2
sS'customization'
p2438
I1
sS'samoa'
p2439
I1
sS'esperanto'
p2440
I1
sS'priority'
p2441
I1
sS'rated'
p2442
I1
sS'guinness'
p2443
I1
sS'pesticides'
p2444
I1
sS'girls'
p2445
I1
sS'checker'
p2446
I2
sS'antiques'
p2447
I1
sS'rates'
p2448
I3
sS'listed'
p2449
I1
sS'john'
p2450
I1
sS'urban'
p2451
I1
sS'tool'
p2452
I2
sS'wisdom'
p2453
I1
sS'white'
p2454
I5
sS'toronto'
p2455
I1
sS'past'
p2456
I1
sS'trek'
p2457
I1
sS'medimmune'
p2458
I1
sS'target'
p2459
I1
sS'facebooklikeconfirmyou'
p2460
I2
sS'byrnes'
p2461
I1
sS'expr'
p2462
I1
sS'forensic'
p2463
I1
sS'tree'
p2464
I1
sS'nations'
p2465
I2
sS'project'
p2466
I6
sS'merck'
p2467
I1
sS'expo'
p2468
I5
sS'sheen'
p2469
I1
sS'silverstein'
p2470
I1
sS'mini'
p2471
I1
sS'fashion'
p2472
I2
sS'sees'
p2473
I2
sS'gazproms'
p2474
I1
sS'navigate'
p2475
I1
sS'ram'
p2476
I2
sS'paddles'
p2477
I1
sS'assange'
p2478
I2
sS'souris'
p2479
I1
sS'chura'
p2480
I1
sS'lautsprecher'
p2481
I1
sS'reprieve'
p2482
I1
sS'rebrand'
p2483
I1
sS'responsible'
p2484
I2
sS'snow'
p2485
I2
sS'investment'
p2486
I8
sS'recommended'
p2487
I1
sS'materials'
p2488
I2
sS'lumpur'
p2489
I1
sS'paris'
p2490
I1
sS'layoffs'
p2491
I1
sS'iceland'
p2492
I1
sS'object'
p2493
I1
sS'wells'
p2494
I2
sS'germany'
p2495
I5
sS'letter'
p2496
I1
sS'entry'
p2497
I2
sS'phase'
p2498
I2
sS'drought'
p2499
I3
sS'tibetan'
p2500
I1
sS'germans'
p2501
I1
sS'zealand'
p2502
I1
sS'consumers'
p2503
I6
sS'rogers'
p2504
I1
sS'released'
p2505
I1
sS'emailing'
p2506
I2
sS'tanzania'
p2507
I1
sS'displayedshare'
p2508
I1
sS'points'
p2509
I2
sS'enterprise'
p2510
I1
sS'newsfeed'
p2511
I1
sS'lancashire'
p2512
I2
sS'dow'
p2513
I1
sS'silber'
p2514
I1
sS'pope'
p2515
I5
sS'hunger'
p2516
I1
sS'ringtones'
p2517
I1
sS'visitor'
p2518
I1
sS'labels'
p2519
I1
sS'religions'
p2520
I1
sS'radio'
p2521
I4
sS'solutions'
p2522
I4
sS'sexism'
p2523
I1
sS'keywords'
p2524
I2
sS'hungary'
p2525
I2
sS'nevada'
p2526
I1
sS'northeast'
p2527
I3
sS'menu'
p2528
I1
sS'guidance'
p2529
I1
sS'unemployment'
p2530
I1
sS'fhfa'
p2531
I1
sS'kessler'
p2532
I1
sS'rico'
p2533
I1
sS'bush'
p2534
I1
sS'rick'
p2535
I3
sS'integrate'
p2536
I3
sS'announce'
p2537
I2
sS'rss'
p2538
I7
sS'exports'
p2539
I1
sS'dj'
p2540
I2
sS'asbestos'
p2541
I1
sS'honda'
p2542
I4
sS'stop'
p2543
I2
sS'dc'
p2544
I20
sS'integrity'
p2545
I1
sS'coast'
p2546
I1
sS'amazon'
p2547
I2
sS'anxious'
p2548
I1
sS'dansk'
p2549
I1
sS'runs'
p2550
I1
sS'bar'
p2551
I1
sS'covering'
p2552
I7
sS'fields'
p2553
I1
sS'fighters'
p2554
I2
sS'patch'
p2555
I19
sS'shots'
p2556
I1
sS'ban'
p2557
I2
sS'metadata'
p2558
I1
sS'gigaom'
p2559
I1
sS'disaster'
p2560
I1
sS'fair'
p2561
I5
sS'analytics'
p2562
I1
sS'izon'
p2563
I1
sS'fail'
p2564
I1
sS'iran'
p2565
I1
sS'frontline'
p2566
I1
sS'subject'
p2567
I1
sS'voyage'
p2568
I1
sS'capacity'
p2569
I1
sS'wikipedia'
p2570
I3
sS'xvi'
p2571
I1
sS'tainted'
p2572
I1
sS'discovers'
p2573
I1
sS'college'
p2574
I20
sS'menschen'
p2575
I1
sS'terms'
p2576
I5
sS'loading'
p2577
I24
sS'carbon'
p2578
I2
sS'debt'
p2579
I1
sS'received'
p2580
I1
sS'climate'
p2581
I1
sS'planner'
p2582
I2
sS'bloggers'
p2583
I1
sS'adapter'
p2584
I2
sS'readers'
p2585
I1
sS'heating'
p2586
I1
sS'und'
p2587
I2
sS'receives'
p2588
I3
sS'faces'
p2589
I1
sS'requests'
p2590
I1
sS'blackvoices'
p2591
I19
sS'libyan'
p2592
I1
sS'goodrich'
p2593
I1
sS'initiative'
p2594
I3
sS'chahine'
p2595
I1
sS'tony'
p2596
I1
sS'speak'
p2597
I1
sS'code'
p2598
I3
sS'andorra'
p2599
I1
sS'iraq'
p2600
I2
sS'beef'
p2601
I1
sS'union'
p2602
I1
sS'buffett'
p2603
I1
sS'ting'
p2604
I1
sS'julian'
p2605
I2
sS'pro'
p2606
I1
sS'monavie'
p2607
I1
sS'exhibition'
p2608
I7
sS'website'
p2609
I2
sS'drugs'
p2610
I3
sS'republicans'
p2611
I2
sS'worker'
p2612
I1
sS'tajikistan'
p2613
I1
sS'child'
p2614
I2
sS'aviation'
p2615
I2
sS'mortgage'
p2616
I2
sS'launches'
p2617
I8
sS'noi'
p2618
I1
sS'air'
p2619
I5
sS'radiohalterung'
p2620
I1
sS'aid'
p2621
I3
sS'property'
p2622
I5
sS'flooding'
p2623
I4
sS'radarplus'
p2624
I2
sS'biotech'
p2625
I1
sS'settles'
p2626
I1
sS'hunan'
p2627
I1
sS'mexico'
p2628
I2
sS'accessories'
p2629
I1
sS'player'
p2630
I4
sS'experts'
p2631
I1
sS'id'
p2632
I1
sS'disappear'
p2633
I1
sS'grown'
p2634
I2
sS'dhl'
p2635
I1
sS'bottles'
p2636
I1
sS'patent'
p2637
I1
sS'yellow'
p2638
I20
sS'damages'
p2639
I1
sS'bid'
p2640
I4
sS'european'
p2641
I10
sS'independent'
p2642
I2
sS'shatner'
p2643
I1
sS'social'
p2644
I13
sS'workforce'
p2645
I1
sS'rain'
p2646
I4
sS'characters'
p2647
I2
sS'kia'
p2648
I2
sS'programs'
p2649
I2
sS'charlie'
p2650
I1
sS'failing'
p2651
I1
sS'client'
p2652
I1
sS'cigna'
p2653
I1
sS'roma'
p2654
I1
sS'romn'
p2655
I1
sS'claims'
p2656
I3
sS'alabama'
p2657
I1
sS'settimeout'
p2658
I1
sS'investments'
p2659
I1
sS'left'
p2660
I2
sS'seasonal'
p2661
I2
sS'opinions'
p2662
I2
sS'videoshare'
p2663
I1
sS'capitol'
p2664
I1
sS'yen'
p2665
I1
sS'photo'
p2666
I6
sS'distribute'
p2667
I2
sS'proposes'
p2668
I1
sS'toraw'
p2669
I2
sS'identify'
p2670
I1
sS'malta'
p2671
I1
sS'human'
p2672
I3
sS'trestles'
p2673
I1
sS'swahili'
p2674
I1
sS'adding'
p2675
I1
sS'designers'
p2676
I1
sS'bhutan'
p2677
I1
sS'equipment'
p2678
I1
sS'lundin'
p2679
I1
sS'spread'
p2680
I1
sS'board'
p2681
I4
sS'prison'
p2682
I1
sS'contestant'
p2683
I1
sS'save'
p2684
I2
sS'wissen'
p2685
I1
sS'buttontweet'
p2686
I1
sS'awaydelhi'
p2687
I1
sS'boxen'
p2688
I1
sS'arab'
p2689
I1
sS'govt'
p2690
I1
sS'cape'
p2691
I2
sS'unique'
p2692
I2
sS'advanced'
p2693
I1
sS'reconsidering'
p2694
I1
sS'eigene'
p2695
I1
sS'mansions'
p2696
I1
sS'orlando'
p2697
I1
sS'guiyang'
p2698
I1
sS'steps'
p2699
I1
sS'night'
p2700
I1
sS'security'
p2701
I5
sS'appliances'
p2702
I1
sS'deal'
p2703
I5
sS'dead'
p2704
I3
sS'eyeing'
p2705
I2
sS'aspen'
p2706
I1
sS'contests'
p2707
I1
sS'bottom'
p2708
I1
sS'creative'
p2709
I3
sS'fuzhou'
p2710
I1
sS'unit'
p2711
I1
sS'beating'
p2712
I1
sS'taiwans'
p2713
I1
sS'proactivediv'
p2714
I1
sS'marketing'
p2715
I4
sS'dental'
p2716
I1
sS'hubei'
p2717
I1
sS'corp'
p2718
I3
sS'confrontation'
p2719
I1
sS'losing'
p2720
I2
sS'manufacturing'
p2721
I5
sS'limitation'
p2722
I1
sS'census'
p2723
I1
sS'attacks'
p2724
I2
sS'months'
p2725
I1
sS'accepts'
p2726
I1
sS'magazine'
p2727
I1
sS'islands'
p2728
I1
sS'efforts'
p2729
I1
sS'palestinians'
p2730
I2
sS'associatedpress'
p2731
I1
sS'statements'
p2732
I1
sS'facility'
p2733
I1
sS'civil'
p2734
I1
sS'intellectual'
p2735
I2
sS'tribune'
p2736
I1
sS'raises'
p2737
I1
sS'dreamliners'
p2738
I1
sS'rely'
p2739
I2
sS'lashes'
p2740
I1
sS'support'
p2741
I4
sS'tennis'
p2742
I1
sS'legislation'
p2743
I1
sS'fight'
p2744
I2
sS'virgin'
p2745
I1
sS'music'
p2746
I4
sS'war'
p2747
I3
sS'battery'
p2748
I1
sS'offer'
p2749
I2
sS'pollster'
p2750
I19
sS'spike'
p2751
I3
sS'ford'
p2752
I1
sS'wireless'
p2753
I1
sS'lows'
p2754
I1
sS'solar'
p2755
I2
sS'vietnamese'
p2756
I1
sS'approval'
p2757
I3
sS'tinto'
p2758
I1
sS'inside'
p2759
I2
sS'maximum'
p2760
I1
sS'polski'
p2761
I1
sS'supplied'
p2762
I2
sS'url'
p2763
I1
sS'tochina'
p2764
I1
sS'delete'
p2765
I1
sS'extrasslideshowdata'
p2766
I1
sS'drive'
p2767
I1
sS'agodana'
p2768
I1
sS'floating'
p2769
I1
sS'check'
p2770
I2
sS'ni'
p2771
I1
sS'pollthe'
p2772
I1
sS'glacier'
p2773
I1
sS'stake'
p2774
I2
sS'generally'
p2775
I1
sS'ne'
p2776
I1
sS'actor'
p2777
I2
sS'flood'
p2778
I6
sS'setting'
p2779
I1
sS'oscar'
p2780
I1
sS'tie'
p2781
I1
sS'developers'
p2782
I1
sS'picture'
p2783
I1
sS'models'
p2784
I1
sS'update'
p2785
I5
sS'authorities'
p2786
I1
sS'billion'
p2787
I7
sS'fsa'
p2788
I1
sS'twitterplease'
p2789
I1
sS'vietnam'
p2790
I1
sS'push'
p2791
I2
sS'profits'
p2792
I1
sS'cessna'
p2793
I1
sS'ron'
p2794
I1
sS'diplomacy'
p2795
I1
sS'skip'
p2796
I1
sS'rob'
p2797
I1
sS'focus'
p2798
I2
sS'leads'
p2799
I3
sS'manager'
p2800
I1
sS'skin'
p2801
I3
sS'llc'
p2802
I1
sS'mill'
p2803
I1
sS'row'
p2804
I1
sS'zone'
p2805
I2
sS'graph'
p2806
I1
sS'flash'
p2807
I4
sS'editors'
p2808
I4
sS'environment'
p2809
I2
sS'charge'
p2810
I11
sS'marks'
p2811
I2
sS'terror'
p2812
I1
sS'suffered'
p2813
I1
sS'southwest'
p2814
I1
sS'automarken'
p2815
I1
sS'outposts'
p2816
I1
sS'md'
p2817
I1
sS'liability'
p2818
I1
sS'ideacentre'
p2819
I1
sS'mourn'
p2820
I1
sS'entries'
p2821
I1
sS'cook'
p2822
I1
sS'ma'
p2823
I1
sS'blast'
p2824
I1
sS'exact'
p2825
I1
sS'silcolease'
p2826
I1
sS'governments'
p2827
I1
sS'aggressively'
p2828
I1
sS'din'
p2829
I1
sS'respiratory'
p2830
I1
sS'clouds'
p2831
I1
sS'staples'
p2832
I1
sS'level'
p2833
I1
sS'die'
p2834
I3
sS'steeply'
p2835
I1
sS'posts'
p2836
I3
sS'tkt'
p2837
I1
sS'keepers'
p2838
I1
sS'standards'
p2839
I3
sS'bikers'
p2840
I1
sS'item'
p2841
I1
sS'excellence'
p2842
I1
sS'subway'
p2843
I1
sS'defaults'
p2844
I1
sS'team'
p2845
I6
sS'quick'
p2846
I1
sS'round'
p2847
I1
sS'fujian'
p2848
I1
sS'alfa'
p2849
I2
sS'trend'
p2850
I1
sS'gasoline'
p2851
I1
sS'injunction'
p2852
I1
sS'discover'
p2853
I1
sS'cost'
p2854
I1
sS'talker'
p2855
I1
sS'documentwidth'
p2856
I1
sS'targets'
p2857
I1
sS'afghanistan'
p2858
I3
sS'adds'
p2859
I1
sS'contracted'
p2860
I1
sS'mall'
p2861
I1
sS'shares'
p2862
I9
sS'landslides'
p2863
I1
sS'current'
p2864
I2
sS'somalia'
p2865
I1
sS'template'
p2866
I1
sS'appeal'
p2867
I1
sS'celebrates'
p2868
I2
sS'era'
p2869
I1
sS'hairy'
p2870
I1
sS'supporting'
p2871
I3
sS'transportation'
p2872
I5
sS'guangzhou'
p2873
I3
sS'french'
p2874
I4
sS'understanding'
p2875
I1
sS'water'
p2876
I3
sS'kenyatta'
p2877
I1
sS'groups'
p2878
I1
sS'kilometers'
p2879
I1
sS'apache'
p2880
I1
sS'appears'
p2881
I1
sS'change'
p2882
I4
sS'wait'
p2883
I2
sS'box'
p2884
I1
sS'boy'
p2885
I1
sS'canadian'
p2886
I3
sS'institute'
p2887
I2
sS'dublin'
p2888
I1
sS'queue'
p2889
I2
sS'brazilian'
p2890
I2
sS'replycharacters'
p2891
I1
sS'history'
p2892
I4
sS'navigation'
p2893
I1
sS'easyjet'
p2894
I1
sS'teenage'
p2895
I1
sS'love'
p2896
I1
sS'extra'
p2897
I2
sS'ipo'
p2898
I1
sS'italiano'
p2899
I1
sS'kayak'
p2900
I1
sS'licensing'
p2901
I1
sS'signaturehome'
p2902
I1
sS'crisis'
p2903
I3
sS'market'
p2904
I22
sS'hotels'
p2905
I1
sS'einpresswire'
p2906
I1
sS'allget'
p2907
I45
sS'angry'
p2908
I1
sS'give'
p2909
I1
sS'visit'
p2910
I1
sS'angela'
p2911
I1
sS'france'
p2912
I1
sS'papal'
p2913
I1
sS'live'
p2914
I7
sS'iphone'
p2915
I1
sS'https'
p2916
I1
sS'films'
p2917
I2
sS'pret'
p2918
I1
sS'australian'
p2919
I4
sS'saks'
p2920
I1
sS'commissioner'
p2921
I1
sS'sharing'
p2922
I1
sS'sessions'
p2923
I1
sS'refrain'
p2924
I1
sS'cases'
p2925
I1
sS'effort'
p2926
I1
sS'fly'
p2927
I1
sS'organizations'
p2928
I1
sS'graphic'
p2929
I4
sS'tokyo'
p2930
I2
sS'alterra'
p2931
I1
sS'local'
p2932
I23
sS'facilitating'
p2933
I2
sS'flu'
p2934
I3
sS'believes'
p2935
I3
sS'wallet'
p2936
I1
sS'printing'
p2937
I1
sS'cam'
p2938
I1
sS'growing'
p2939
I1
sS'lubricant'
p2940
I1
sS'esky'
p2941
I1
sS'claim'
p2942
I1
sS'stream'
p2943
I2
sS'uruguay'
p2944
I1
sS'attribute'
p2945
I1
sS'chip'
p2946
I1
sS'newsletters'
p2947
I3
sS'topic'
p2948
I16
sS'contrave'
p2949
I2
sS'allowed'
p2950
I1
sS'dennis'
p2951
I1
sS'clothing'
p2952
I1
sS'discussion'
p2953
I4
sS'ping'
p2954
I1
sS'alzheimers'
p2955
I1
sS'chemical'
p2956
I2
sS'sunday'
p2957
I1
sS'parameter'
p2958
I1
sS'taco'
p2959
I1
sS'asml'
p2960
I1
sS'map'
p2961
I1
sS'product'
p2962
I3
sS'mar'
p2963
I2
sS'dive'
p2964
I2
sS'aol'
p2965
I19
sS'applications'
p2966
I6
sS'mac'
p2967
I1
sS'produce'
p2968
I3
sS'designed'
p2969
I4
sS'commit'
p2970
I1
sS'date'
p2971
I2
sS'wikileaks'
p2972
I1
sS'mak'
p2973
I2
sS'data'
p2974
I10
sS'grow'
p2975
I1
sS'mao'
p2976
I1
sS'man'
p2977
I5
sS'gorges'
p2978
I1
sS'csx'
p2979
I1
sS'natural'
p2980
I6
sS'sept'
p2981
I1
sS'futures'
p2982
I4
sS'thissign'
p2983
I4
sS'sk'
p2984
I1
sS'provide'
p2985
I2
sS'mango'
p2986
I6
sS'truck'
p2987
I1
sS'african'
p2988
I12
sS'invests'
p2989
I1
sS'talk'
p2990
I1
sS'exclusive'
p2991
I1
sS'ulan'
p2992
I1
sS'tomlin'
p2993
I1
sS'words'
p2994
I1
sS'canberra'
p2995
I1
sS'blocker'
p2996
I1
sS'anthrazit'
p2997
I1
sS'logged'
p2998
I1
sS'reaffirms'
p2999
I1
sS'argues'
p3000
I1
sS'statistical'
p3001
I1
sS'cuts'
p3002
I8
sS'irene'
p3003
I1
sS'birds'
p3004
I1
sS'police'
p3005
I5
sS'monitor'
p3006
I1
sS'acknowledge'
p3007
I2
sS'interesting'
p3008
I1
sS'jim'
p3009
I1
sS'platform'
p3010
I4
sS'window'
p3011
I4
sS'offers'
p3012
I3
sS'farmer'
p3013
I1
sS'tweets'
p3014
I1
sS'main'
p3015
I2
sS'texas'
p3016
I4
sS'kidron'
p3017
I1
sS'finance'
p3018
I4
sS'views'
p3019
I3
sS'smarter'
p3020
I1
sS'killer'
p3021
I1
sS'introduce'
p3022
I1
sS'nation'
p3023
I2
sS'records'
p3024
I1
sS'taliban'
p3025
I1
sS'drilling'
p3026
I4
sS'safari'
p3027
I2
sS'half'
p3028
I20
sS'discuss'
p3029
I2
sS'developments'
p3030
I1
sS'permissions'
p3031
I1
sS'taishan'
p3032
I1
sS'execute'
p3033
I1
sS'latinovoices'
p3034
I19
sS'tobacco'
p3035
I2
sS'james'
p3036
I1
sS'drop'
p3037
I2
sS'engadget'
p3038
I19
sS'boehner'
p3039
I1
sS'cadence'
p3040
I1
sS'denmark'
p3041
I1
sS'instability'
p3042
I1
sS'amnesty'
p3043
I1
sS'quarter'
p3044
I5
sS'domain'
p3045
I1
sS'fired'
p3046
I1
sS'revised'
p3047
I1
sS'webinar'
p3048
I4
sS'hitmen'
p3049
I1
sS'challenges'
p3050
I2
sS'trademark'
p3051
I1
sS'eu'
p3052
I19
sS'ev'
p3053
I1
sS'disasters'
p3054
I2
sS'plans'
p3055
I9
sS'naked'
p3056
I2
sS'shown'
p3057
I1
sS'container'
p3058
I1
sS'webcasts'
p3059
I1
sS'space'
p3060
I2
sS'profit'
p3061
I2
sS'oklahoma'
p3062
I3
sS'factory'
p3063
I1
sS'cancels'
p3064
I1
sS'increase'
p3065
I5
sS'bailout'
p3066
I1
sS'internet'
p3067
I9
sS'theory'
p3068
I1
sS'ezchip'
p3069
I1
sS'commons'
p3070
I3
sS'cari'
p3071
I1
sS'california'
p3072
I7
sS'yuri'
p3073
I1
sS'trademarks'
p3074
I1
sS'warrantless'
p3075
I1
sS'repurchase'
p3076
I1
sS'quits'
p3077
I1
sS'ore'
p3078
I1
sS'card'
p3079
I2
sS'care'
p3080
I4
sS'language'
p3081
I2
sS'ministry'
p3082
I2
sS'british'
p3083
I3
sS'initiate'
p3084
I1
sS'palaces'
p3085
I1
sS'closethe'
p3086
I1
sS'turf'
p3087
I1
sS'littlefair'
p3088
I1
sS'xl'
p3089
I1
sS'revenue'
p3090
I1
sS'americans'
p3091
I1
sS'fast'
p3092
I1
sS'directly'
p3093
I1
sS'invasion'
p3094
I1
sS'vote'
p3095
I2
sS'message'
p3096
I4
sS'open'
p3097
I4
sS'tomorrow'
p3098
I1
sS'engineer'
p3099
I1
sS'city'
p3100
I7
sS'limited'
p3101
I4
sS'santander'
p3102
I1
sS'bite'
p3103
I1
sS'aboutthe'
p3104
I1
sS'plastic'
p3105
I1
sS'plains'
p3106
I1
sS'returns'
p3107
I1
sS'bluestar'
p3108
I1
sS'walid'
p3109
I1
sS'fmc'
p3110
I1
sS'friend'
p3111
I2
sS'nutrition'
p3112
I1
sS'eyes'
p3113
I1
sS'copa'
p3114
I1
sS'season'
p3115
I1
sS'taxation'
p3116
I1
sS'cops'
p3117
I1
sS'hillary'
p3118
I1
sS'short'
p3119
I2
sS'hartford'
p3120
I1
sS'flexituff'
p3121
I1
sS'thai'
p3122
I1
sS'copy'
p3123
I2
sS'representing'
p3124
I1
sS'appreciated'
p3125
I1
sS'boulton'
p3126
I1
sS'connections'
p3127
I1
sS'television'
p3128
I1
sS'rugged'
p3129
I1
sS'require'
p3130
I2
sS'hsbc'
p3131
I1
sS'future'
p3132
I3
sS'accountorfill'
p3133
I1
sS'venture'
p3134
I1
sS'amid'
p3135
I2
sS'cards'
p3136
I2
sS'poisoning'
p3137
I1
sS'browser'
p3138
I1
sS'talim'
p3139
I1
sS'san'
p3140
I1
sS'investors'
p3141
I4
sS'zumz'
p3142
I1
sS'phrma'
p3143
I1
sS'medical'
p3144
I8
sS'sells'
p3145
I2
sS'sap'
p3146
I1
sS'nazi'
p3147
I1
sS'surgery'
p3148
I1
sS'pageinsightserror'
p3149
I8
sS'speakers'
p3150
I2
sS'greek'
p3151
I1
sS'efficient'
p3152
I1
sS'veteran'
p3153
I1
sS'shocked'
p3154
I1
sS'note'
p3155
I1
sS'sciences'
p3156
I1
sS'performance'
p3157
I2
sS'blunt'
p3158
I1
sS'channel'
p3159
I1
sS'multiple'
p3160
I3
sS'price'
p3161
I4
sS'falls'
p3162
I2
sS'visitors'
p3163
I1
sS'knee'
p3164
I1
sS'bombardier'
p3165
I1
sS'pages'
p3166
I23
sS'icon'
p3167
I1
sS'balilty'
p3168
I1
sS'tilikum'
p3169
I1
sS'sale'
p3170
I2
sS'spill'
p3171
I2
sS'federal'
p3172
I2
sS'conrad'
p3173
I1
sS'professional'
p3174
I1
sS'filing'
p3175
I1
sS'laws'
p3176
I1
sS'event'
p3177
I6
sS'autoradioblende'
p3178
I1
sS'shot'
p3179
I1
sS'show'
p3180
I8
sS'german'
p3181
I2
sS'sites'
p3182
I3
sS'downpours'
p3183
I2
sS'elevate'
p3184
I1
sS'troy'
p3185
I24
sS'colombo'
p3186
I1
sS'corner'
p3187
I1
sS'label'
p3188
I1
sS'maine'
p3189
I1
sS'ground'
p3190
I1
sS'weapons'
p3191
I1
sS'helio'
p3192
I1
sS'upgrade'
p3193
I6
sS'villageby'
p3194
I1
sS'gulf'
p3195
I3
sS'title'
p3196
I1
sS'skits'
p3197
I1
sS'crime'
p3198
I19
sS'black'
p3199
I1
sS'helix'
p3200
I1
sS'sierra'
p3201
I1
sS'awareness'
p3202
I3
sS'carolina'
p3203
I5
sS'fda'
p3204
I2
sS'merkel'
p3205
I1
sS'azerbaijan'
p3206
I2
sS'badgenominate'
p3207
I1
sS'tailor'
p3208
I1
sS'celebrate'
p3209
I1
sS'prime'
p3210
I1
sS'reveal'
p3211
I1
sS'resource'
p3212
I1
sS'held'
p3213
I1
sS'floods'
p3214
I11
sS'morning'
p3215
I1
sS'isclosed'
p3216
I1
sS'hangzhou'
p3217
I1
sS'paper'
p3218
I3
sS'worries'
p3219
I1
sS'zahau'
p3220
I1
sS'discussing'
p3221
I1
sS'reveals'
p3222
I1
sS'concert'
p3223
I1
sS'keyboard'
p3224
I1
sS'seat'
p3225
I3
sS'famine'
p3226
I1
sS'milsatcom'
p3227
I1
sS'membersites'
p3228
I1
sS'lng'
p3229
I1
sS'sport'
p3230
I2
sS'fails'
p3231
I1
sS'registering'
p3232
I1
sS'farmers'
p3233
I1
sS'managing'
p3234
I1
sS'review'
p3235
I3
sS'outsourcing'
p3236
I1
sS'forecast'
p3237
I3
sS'vaccines'
p3238
I1
sS'gaga'
p3239
I1
sS'import'
p3240
I3
sS'developer'
p3241
I2
sS'infrastructure'
p3242
I1
sS'august'
p3243
I5
sS'style'
p3244
I22
sS'wednesday'
p3245
I3
sS'blame'
p3246
I1
sS'gnss'
p3247
I1
sS'twitterwill'
p3248
I1
sS'volcker'
p3249
I1
sS'awards'
p3250
I1
sS'hurts'
p3251
I1
sS'comeback'
p3252
I1
sS'cities'
p3253
I2
sS'missions'
p3254
I1
sS'libya'
p3255
I3
sS'region'
p3256
I3
sS'parts'
p3257
I1
sS'berry'
p3258
I1
sS'pcs'
p3259
I1
sS'torrential'
p3260
I2
sS'pakistan'
p3261
I7
sS'googlebot'
p3262
I1
sS'jonssonking'
p3263
I1
sS'lace'
p3264
I1
sS'innovations'
p3265
I3
sS'mongolia'
p3266
I1
sS'learning'
p3267
I1
sS'article'
p3268
I3
sS'bokml'
p3269
I1
sS'cycling'
p3270
I1
sS'barry'
p3271
I1
sS'airlines'
p3272
I2
sS'mark'
p3273
I2
sS'tropical'
p3274
I2
sS'wherewereyou'
p3275
I1
sS'income'
p3276
I1
sS'deadliest'
p3277
I1
sS'offered'
p3278
I1
sS'nikon'
p3279
I1
sS'photos'
p3280
I8
sS'geothermal'
p3281
I3
sS'minister'
p3282
I4
sS'gamble'
p3283
I1
sS'case'
p3284
I3
sS'developing'
p3285
I1
sS'cash'
p3286
I1
sS'profiles'
p3287
I2
sS'offbeat'
p3288
I1
sS'scum'
p3289
I1
sS'landslide'
p3290
I1
sS'trader'
p3291
I1
sS'key'
p3292
I3
sS'franais'
p3293
I1
sS'commentcharacters'
p3294
I1
sS'refinery'
p3295
I1
sS'affected'
p3296
I4
sS'missiles'
p3297
I1
sS'pat'
p3298
I1
sS'author'
p3299
I3
sS'magyar'
p3300
I1
sS'archive'
p3301
I3
sS'html'
p3302
I1
sS'pak'
p3303
I1
sS'breakdown'
p3304
I1
sS'aljazeeraenglish'
p3305
I1
sS'edged'
p3306
I1
sS'singapore'
p3307
I8
sS'arctic'
p3308
I1
sS'assist'
p3309
I1
sS'drives'
p3310
I1
sS'director'
p3311
I1
sS'running'
p3312
I1
sS'advertisement'
p3313
I1
sS'changing'
p3314
I2
sS'renewable'
p3315
I2
sS'ogeechee'
p3316
I1
sS'charges'
p3317
I1
sS'markup'
p3318
I1
sS'caterpillar'
p3319
I1
sS'severe'
p3320
I1
sS'costs'
p3321
I1
sS'relief'
p3322
I3
sS'bundesarchiv'
p3323
I1
sS'bodies'
p3324
I1
sS'summer'
p3325
I1
sS'alerts'
p3326
I3
sS'livestock'
p3327
I1
sS'brisbane'
p3328
I1
sS'money'
p3329
I4
sS'inregister'
p3330
I1
sS'gavin'
p3331
I1
sS'ngos'
p3332
I1
sS'recycled'
p3333
I1
sS'kill'
p3334
I2
sS'rousseff'
p3335
I2
sS'captured'
p3336
I3
sS'weekly'
p3337
I1
sS'announcement'
p3338
I1
sS'death'
p3339
I9
sS'ny'
p3340
I1
sS'mcdonald'
p3341
I1
sS'bollywood'
p3342
I2
sS'geological'
p3343
I1
sS'blog'
p3344
I22
sS'jiuzhaigou'
p3345
I1
sS'bioenergy'
p3346
I1
sS'perth'
p3347
I1
sS'association'
p3348
I4
sS'realfeel'
p3349
I1
sS'potash'
p3350
I1
sS'poised'
p3351
I1
sS'tuesday'
p3352
I1
sS'careers'
p3353
I1
sS'kingdom'
p3354
I1
sS'schwarzenegger'
p3355
I1
sS'kills'
p3356
I2
sS'delhi'
p3357
I1
sS'virginia'
p3358
I1
sS'early'
p3359
I1
sS'dari'
p3360
I1
sS'inflation'
p3361
I1
sS'traffic'
p3362
I1
sS'mon'
p3363
I1
sS'schedules'
p3364
I1
sS'execution'
p3365
I2
sS'lady'
p3366
I2
sS'daewoo'
p3367
I2
sS'languagestimes'
p3368
I1
sS'mudslide'
p3369
I1
sS'ns'
p3370
I1
sS'nissan'
p3371
I3
sS'unsourced'
p3372
I1
sS'maker'
p3373
I5
sS'clay'
p3374
I1
sS'output'
p3375
I1
sS'shirky'
p3376
I1
sS'jews'
p3377
I1
sS'interdisciplinarity'
p3378
I2
sS'audiosocket'
p3379
I1
sS'pacific'
p3380
I1
sS'resorts'
p3381
I1
sS'images'
p3382
I1
sS'divine'
p3383
I1
sS'organizing'
p3384
I1
sS'provided'
p3385
I3
sS'confirm'
p3386
I2
sS'sudan'
p3387
I2
sS'legal'
p3388
I5
sS'critical'
p3389
I2
sS'deficit'
p3390
I2
sS'optima'
p3391
I1
sS'biased'
p3392
I1
sS'assembly'
p3393
I2
sS'seconds'
p3394
I1
sS'dictators'
p3395
I1
sS'mediacorp'
p3396
I2
sS'monsoon'
p3397
I1
sS'pastors'
p3398
I1
sS'baffled'
p3399
I1
sS'stations'
p3400
I1
sS'island'
p3401
I3
sS'violence'
p3402
I1
sS'airline'
p3403
I1
sS'wobble'
p3404
I1
sS'road'
p3405
I3
sS'gansu'
p3406
I1
sS'outlook'
p3407
I2
sS'protests'
p3408
I1
sS'burning'
p3409
I1
sS'communication'
p3410
I4
sS'image'
p3411
I4
sS'vigil'
p3412
I1
sS'references'
p3413
I1
sS'inbox'
p3414
I2
sS'parties'
p3415
I2
sS'adobe'
p3416
I3
sS'pirates'
p3417
I1
sS'subscriber'
p3418
I1
sS'log'
p3419
I4
sS'area'
p3420
I2
sS'alleged'
p3421
I1
sS'start'
p3422
I1
sS'low'
p3423
I1
sS'stars'
p3424
I1
sS'house'
p3425
I8
sS'autoradios'
p3426
I1
sS'tycoon'
p3427
I1
sS'classifiedscopyright'
p3428
I1
sS'complete'
p3429
I1
sS'jul'
p3430
I2
sS'csm'
p3431
I1
sS'berschwemmungsopfer'
p3432
I1
sS'pericom'
p3433
I1
sS'mwst'
p3434
I2
sS'technologies'
p3435
I2
sS'promote'
p3436
I1
sS'october'
p3437
I1
sS'lionsgate'
p3438
I1
sS'chidambaram'
p3439
I1
sS'agree'
p3440
I2
sS'toilet'
p3441
I1
sS'taylor'
p3442
I1
sS'ad'
p3443
I1
sS'videos'
p3444
I5
sS'youtube'
p3445
I3
sS'htmllink'
p3446
I1
sS'sales'
p3447
I3
sS'general'
p3448
I4
sS'ap'
p3449
I2
sS'britain'
p3450
I1
sS'file'
p3451
I3
sS'deed'
p3452
I1
sS'hospitals'
p3453
I2
sS'winaray'
p3454
I1
sS'film'
p3455
I2
sS'istanbul'
p3456
I1
sS'hybrid'
p3457
I1
sS'saturday'
p3458
I3
sS'lunar'
p3459
I1
sS'nasa'
p3460
I1
sS'oxfam'
p3461
I1
sS'congress'
p3462
I3
sS'separate'
p3463
I2
sS'nederlands'
p3464
I1
sS'peak'
p3465
I1
sS'stocks'
p3466
I4
sS'calls'
p3467
I1
sS'invest'
p3468
I2
sS'cpc'
p3469
I1
sS'maliciously'
p3470
I2
sS'missouri'
p3471
I1
sS'apparel'
p3472
I1
sS'licensor'
p3473
I1
sS'resolution'
p3474
I1
sS'original'
p3475
I2
sS'bmw'
p3476
I3
sS'monte'
p3477
I1
sS'influenza'
p3478
I1
sS'forget'
p3479
I1
sS'founder'
p3480
I2
sS'byindiatimesabout'
p3481
I1
sS'sms'
p3482
I2
sS'pte'
p3483
I1
sS'dollar'
p3484
I4
sS'month'
p3485
I1
sS'thoughtful'
p3486
I1
sS'browsers'
p3487
I1
sS'tours'
p3488
I2
sS'pty'
p3489
I1
sS'talks'
p3490
I6
sS'follow'
p3491
I7
sS'settlement'
p3492
I2
sS'religious'
p3493
I4
sS'children'
p3494
I9
sS'kutcher'
p3495
I19
sS'synthetic'
p3496
I1
sS'semiconductor'
p3497
I2
sS'apartment'
p3498
I2
sS'tx'
p3499
I1
sS'auckland'
p3500
I1
sS'barrick'
p3501
I2
sS'nears'
p3502
I2
sS'participants'
p3503
I1
sS'alllikespolitics'
p3504
I1
sS'multiview'
p3505
I1
sS'tm'
p3506
I1
sS'dairy'
p3507
I2
sS'ti'
p3508
I1
sS'lawmakers'
p3509
I1
sS'crest'
p3510
I2
sS'mandela'
p3511
I1
sS'khmer'
p3512
I1
sS'attribution'
p3513
I2
sS'returned'
p3514
I1
sS'song'
p3515
I1
sS'infringement'
p3516
I1
sS'horror'
p3517
I2
sS'icap'
p3518
I1
sS'rogue'
p3519
I1
sS'fan'
p3520
I1
sS'mps'
p3521
I4
sS'decide'
p3522
I1
sS'fall'
p3523
I6
sS'labor'
p3524
I2
sS'faa'
p3525
I1
sS'ticker'
p3526
I1
sS'exclusives'
p3527
I1
sS'cable'
p3528
I1
sS'stimulus'
p3529
I1
sS'ageing'
p3530
I1
sS'celebrity'
p3531
I19
sS'applicable'
p3532
I2
sS'gop'
p3533
I26
sS'scrapping'
p3534
I1
sS'lesbians'
p3535
I1
sS'study'
p3536
I7
sS'mtvu'
p3537
I1
sS'cookies'
p3538
I1
sS'employing'
p3539
I1
sS'tel'
p3540
I1
sS'ten'
p3541
I1
sS'foundation'
p3542
I4
sS'tea'
p3543
I10
sS'valero'
p3544
I1
sS'synergy'
p3545
I1
sS'burger'
p3546
I1
sS'rate'
p3547
I5
sS'design'
p3548
I8
sS'arnold'
p3549
I1
sS'lawyer'
p3550
I2
sS'query'
p3551
I1
sS'thomson'
p3552
I1
sS'casual'
p3553
I1
sS'aba'
p3554
I1
sS'sue'
p3555
I5
sS'defence'
p3556
I1
sS'richard'
p3557
I1
sS'investing'
p3558
I7
sS'anniversary'
p3559
I1
sS'testsieger'
p3560
I1
sS'monitorpatrik'
p3561
I1
sS'abu'
p3562
I1
sS'learned'
p3563
I1
sS'public'
p3564
I4
sS'full'
p3565
I5
sS'christian'
p3566
I3
sS'tags'
p3567
I1
sS'modify'
p3568
I1
sS'overactive'
p3569
I1
sS'hours'
p3570
I2
sS'voanews'
p3571
I1
sS'operating'
p3572
I2
sS'palin'
p3573
I3
sS'november'
p3574
I1
sS'strong'
p3575
I2
sS'valu'
p3576
I1
sS'publishes'
p3577
I1
sS'publisher'
p3578
I2
sS'bible'
p3579
I2
sS'ahead'
p3580
I1
sS'compliance'
p3581
I1
sS'experience'
p3582
I2
sS'pics'
p3583
I1
sS'soldier'
p3584
I1
sS'airport'
p3585
I1
sS'advertising'
p3586
I4
sS'published'
p3587
I2
sS'action'
p3588
I6
sS'options'
p3589
I1
sS'trainer'
p3590
I1
sS'family'
p3591
I4
sS'semiconductors'
p3592
I1
sS'likeboxthe'
p3593
I1
sS'cosmetic'
p3594
I1
sS'aspi'
p3595
I3
sS'aimed'
p3596
I1
sS'vit'
p3597
I1
sS'toys'
p3598
I1
sS'pulls'
p3599
I1
sS'select'
p3600
I2
sS'suspensions'
p3601
I1
sS'shareholders'
p3602
I2
sS'sanjay'
p3603
I1
sS'takes'
p3604
I2
sS'petroleum'
p3605
I3
sS'finally'
p3606
I2
sS'archives'
p3607
I1
sS'glaxo'
p3608
I1
sS'zzgl'
p3609
I2
sS'injury'
p3610
I2
sS'markets'
p3611
I11
sS'wipes'
p3612
I1
sS'minor'
p3613
I1
sS'teen'
p3614
I1
sS'flat'
p3615
I1
sS'israel'
p3616
I2
sS'durch'
p3617
I1
sS'mozilla'
p3618
I1
sS'atlas'
p3619
I2
sS'flag'
p3620
I1
sS'morethe'
p3621
I1
sS'webmaster'
p3622
I1
sS'displayedplease'
p3623
I1
sS'hour'
p3624
I1
sS'science'
p3625
I4
sS'remain'
p3626
I1
sS'del'
p3627
I2
sS'resources'
p3628
I3
sS'den'
p3629
I1
sS'learn'
p3630
I1
sS'strategies'
p3631
I1
sS'male'
p3632
I2
sS'pick'
p3633
I1
sS'compare'
p3634
I1
sS'scam'
p3635
I1
sS'netbootcd'
p3636
I1
sS'suggestions'
p3637
I2
sS'collision'
p3638
I1
sS'minimum'
p3639
I1
sS'rainstorm'
p3640
I1
sS'numbers'
p3641
I1
sS'cows'
p3642
I1
sS'pong'
p3643
I1
sS'lacks'
p3644
I1
sS'condemn'
p3645
I1
sS'concept'
p3646
I3
sS'huge'
p3647
I5
sS'answer'
p3648
I1
sS'court'
p3649
I4
sS'zhang'
p3650
I1
sS'magpie'
p3651
I1
sS'maps'
p3652
I2
sS'earnings'
p3653
I3
sS'automotive'
p3654
I5
sS'dailymotionvideoscategoriescommunitycontestsfamily'
p3655
I1
sS'fr'
p3656
I2
sS'burhanuddin'
p3657
I1
sS'intended'
p3658
I2
sS'fy'
p3659
I1
sS'advice'
p3660
I3
sS'alibaba'
p3661
I2
sS'triumphs'
p3662
I1
sS'blood'
p3663
I2
sS'coming'
p3664
I3
sS'develop'
p3665
I1
sS'ethics'
p3666
I1
sS'lanka'
p3667
I2
sS'fuzzibunz'
p3668
I1
sS'alertnet'
p3669
I1
sS'coal'
p3670
I1
sS'nvidia'
p3671
I1
sS'banks'
p3672
I5
sS'redirecting'
p3673
I1
sS'playing'
p3674
I1
sS'mexican'
p3675
I2
sS'hyderabad'
p3676
I1
sS'mission'
p3677
I1
sS'indiaindiatimes'
p3678
I1
sS'disabled'
p3679
I2
sS'radar'
p3680
I2
sS'embassy'
p3681
I2
sS'scott'
p3682
I1
sS'committee'
p3683
I2
sS'signs'
p3684
I2
sS'urdu'
p3685
I1
sS'hell'
p3686
I2
sS'turbine'
p3687
I1
sS'rocks'
p3688
I1
sS'mckinny'
p3689
I1
sS'astrology'
p3690
I1
sS'indiaindiatimesweb'
p3691
I1
sS'alle'
p3692
I1
sS'fined'
p3693
I2
sS'bangla'
p3694
I1
sS'pct'
p3695
I1
sS'late'
p3696
I1
sS'detected'
p3697
I1
sS'reuters'
p3698
I3
sS'systems'
p3699
I6
sS'sauce'
p3700
I1
sS'mcilroy'
p3701
I1
sS'good'
p3702
I2
sS'commentemail'
p3703
I1
sS'ceo'
p3704
I8
sS'starbucks'
p3705
I1
sS'compound'
p3706
I1
sS'communities'
p3707
I1
sS'nowzoomyou'
p3708
I1
sS'android'
p3709
I2
sS'bigger'
p3710
I1
sS'mystery'
p3711
I1
sS'holiday'
p3712
I1
sS'buttonfollow'
p3713
I1
sS'capability'
p3714
I1
sS'token'
p3715
I1
sS'paula'
p3716
I1
sS'mastercard'
p3717
I1
sS'turns'
p3718
I1
sS'aligns'
p3719
I1
sS'found'
p3720
I3
sS'quintuple'
p3721
I1
sS'referred'
p3722
I1
sS'heavy'
p3723
I4
sS'dig'
p3724
I1
sS'england'
p3725
I1
sS'chevron'
p3726
I1
sS'generation'
p3727
I2
sS'jaws'
p3728
I1
sS'fish'
p3729
I2
sS'hard'
p3730
I1
sS'reduce'
p3731
I1
sS'idea'
p3732
I1
sS'mackenzie'
p3733
I1
sS'connect'
p3734
I20
sS'todd'
p3735
I1
sS'quantum'
p3736
I1
sS'advertisers'
p3737
I1
sS'gagana'
p3738
I1
sS'leave'
p3739
I3
sS'perry'
p3740
I6
sS'nepal'
p3741
I1
sS'publish'
p3742
I1
sS'faqs'
p3743
I1
sS'tomassive'
p3744
I1
sS'race'
p3745
I1
sS'krispy'
p3746
I1
sS'hill'
p3747
I20
sS'ministerial'
p3748
I1
sS'denounces'
p3749
I1
sS'drink'
p3750
I1
sS'eliquis'
p3751
I1
sS'rabbani'
p3752
I1
sS'friday'
p3753
I2
sS'sonsini'
p3754
I1
sS'houses'
p3755
I2
sS'reason'
p3756
I1
sS'ase'
p3757
I1
sS'basa'
p3758
I1
sS'rises'
p3759
I1
sS'retained'
p3760
I2
sS'launch'
p3761
I6
sS'americas'
p3762
I2
sS'american'
p3763
I10
sS'elective'
p3764
I1
sS'threat'
p3765
I1
sS'divorce'
p3766
I2
sS'integra'
p3767
I1
sS'feed'
p3768
I5
sS'copper'
p3769
I1
sS'major'
p3770
I4
sS'usda'
p3771
I2
sS'encoding'
p3772
I1
sS'nach'
p3773
I1
sS'fees'
p3774
I2
sS'wages'
p3775
I1
sS'carter'
p3776
I1
sS'passes'
p3777
I2
sS'story'
p3778
I3
sS'benedict'
p3779
I1
sS'leading'
p3780
I2
sS'tata'
p3781
I1
sS'checkpoint'
p3782
I1
sS'saint'
p3783
I1
sS'dealing'
p3784
I1
sS'store'
p3785
I1
sS'headache'
p3786
I1
sS'storm'
p3787
I2
sS'hotel'
p3788
I1
sS'park'
p3789
I2
sS'chair'
p3790
I1
sS'typhoon'
p3791
I3
sS'licensed'
p3792
I1
sS'king'
p3793
I1
sS'financing'
p3794
I2
sS'farming'
p3795
I1
sS'double'
p3796
I1
sS'slovenina'
p3797
I1
sS'kreme'
p3798
I1
sS'zarlink'
p3799
I1
sS'dikes'
p3800
I1
sS'marriage'
p3801
I2
sS'risks'
p3802
I1
sS'kindle'
p3803
I1
sS'larkin'
p3804
I1
sS'cloudy'
p3805
I1
sS'deutsches'
p3806
I1
sS'biggest'
p3807
I2
sS'download'
p3808
I1
sS'alike'
p3809
I1
sS'macaulay'
p3810
I1
sS'macao'
p3811
I1
sS'orders'
p3812
I2
sS'sell'
p3813
I1
sS'mountain'
p3814
I3
sS'dancing'
p3815
I1
sS'trip'
p3816
I1
sS'cave'
p3817
I1
sS'port'
p3818
I1
sS'internal'
p3819
I1
sS'chairman'
p3820
I1
sS'brace'
p3821
I1
sS'kleinman'
p3822
I2
sS'play'
p3823
I1
sS'electric'
p3824
I4
sS'serena'
p3825
I1
sS'cargo'
p3826
I1
sS'chars'
p3827
I1
sS'sets'
p3828
I2
sS'reach'
p3829
I4
sS'cigarette'
p3830
I1
sS'perkier'
p3831
I1
sS'sponsored'
p3832
I1
sS'kay'
p3833
I1
sS'prestige'
p3834
I1
sS'kb'
p3835
I1
sS'mobile'
p3836
I8
sS'cover'
p3837
I1
sS'clean'
p3838
I3
sS'jordan'
p3839
I2
sS'saloon'
p3840
I1
sS'institutions'
p3841
I2
sS'sector'
p3842
I2
sS'wikinews'
p3843
I2
sS'thomas'
p3844
I1
sS'golf'
p3845
I3
sS'rebels'
p3846
I2
sS'gold'
p3847
I5
sS'cdc'
p3848
I3
sS'swine'
p3849
I1
sS'businesses'
p3850
I5
sS'facebookpost'
p3851
I1
sS'headlines'
p3852
I3
sS'fine'
p3853
I1
sS'find'
p3854
I6
sS'unfuckable'
p3855
I1
sS'impact'
p3856
I20
sS'access'
p3857
I3
sS'giant'
p3858
I1
sS'northern'
p3859
I7
sS'distributed'
p3860
I1
sS'penalty'
p3861
I2
sS'flights'
p3862
I1
sS'indian'
p3863
I2
sS'fpso'
p3864
I1
sS'factor'
p3865
I1
sS'moses'
p3866
I1
sS'hutong'
p3867
I1
sS'columns'
p3868
I3
sS'saudi'
p3869
I1
sS'hip'
p3870
I1
sS'executive'
p3871
I1
sS'founding'
p3872
I1
sS'gains'
p3873
I1
sS'hiv'
p3874
I1
sS'permission'
p3875
I1
sS'sights'
p3876
I1
sS'express'
p3877
I1
sS'batter'
p3878
I1
sS'fastest'
p3879
I1
sS'silk'
p3880
I2
sS'xiamen'
p3881
I1
sS'motorcycles'
p3882
I1
sS'badge'
p3883
I1
sS'medicines'
p3884
I1
sS'banking'
p3885
I1
sS'investigate'
p3886
I1
sS'activity'
p3887
I3
sS'river'
p3888
I5
sS'restaurants'
p3889
I1
sS'set'
p3890
I5
sS'art'
p3891
I1
sS'backtrack'
p3892
I1
sS'jada'
p3893
I1
sS'sex'
p3894
I3
sS'individual'
p3895
I2
sS'migration'
p3896
I1
sS'sea'
p3897
I4
sS'jury'
p3898
I1
sS'arm'
p3899
I1
sS'autoradio'
p3900
I1
sS'shower'
p3901
I1
sS'lauren'
p3902
I1
sS'chinas'
p3903
I1
sS'visiting'
p3904
I1
sS'guinea'
p3905
I1
sS'libraries'
p3906
I1
sS'pickup'
p3907
I2
sS'barbados'
p3908
I1
sS'emirates'
p3909
I2
sS'conditions'
p3910
I5
sS'popup'
p3911
I1
sS'responses'
p3912
I1
sS'pageinsightserroryou'
p3913
I9
sS'zhengzhou'
p3914
I1
sS'sole'
p3915
I2
sS'disallow'
p3916
I1
sS'aircraft'
p3917
I1
sS'coffee'
p3918
I2
sS'dividend'
p3919
I1
sS'autolautsprecher'
p3920
I1
sS'license'
p3921
I4
sS'restaurant'
p3922
I3
sS'annual'
p3923
I6
sS'nanotech'
p3924
I1
sS'foreign'
p3925
I7
sS'connection'
p3926
I1
sS'context'
p3927
I1
sS'finds'
p3928
I1
sS'insurance'
p3929
I8
sS'bridge'
p3930
I2
sS'simple'
p3931
I4
sS'smith'
p3932
I1
sS'address'
p3933
I2
sS'community'
p3934
I4
sS'improper'
p3935
I1
sS'shutdown'
p3936
I2
sS'church'
p3937
I4
sS'raw'
p3938
I2
sS'decline'
p3939
I2
sS'brics'
p3940
I2
sS'raise'
p3941
I3
sS'dams'
p3942
I1
sS'create'
p3943
I7
sS'political'
p3944
I9
sS'portugus'
p3945
I3
sS'pc'
p3946
I1
sS'pg'
p3947
I1
sS'ireland'
p3948
I4
sS'boston'
p3949
I1
sS'aruba'
p3950
I1
sS'meeting'
p3951
I4
sS'empty'
p3952
I1
sS'flight'
p3953
I1
sS'gay'
p3954
I2
sS'fire'
p3955
I2
sS'dropout'
p3956
I1
sS'mine'
p3957
I2
sS'fund'
p3958
I3
sS'understand'
p3959
I1
sS'demand'
p3960
I1
sS'pact'
p3961
I1
sS'bild'
p3962
I1
sS'talking'
p3963
I1
sS'socialist'
p3964
I1
sS'bill'
p3965
I6
sS'governor'
p3966
I1
sS'healthy'
p3967
I20
sS'smart'
p3968
I3
sS'fleet'
p3969
I2
sS'guide'
p3970
I1
sS'miles'
p3971
I1
sS'mailitimes'
p3972
I1
sS'voa'
p3973
I1
sS'employees'
p3974
I1
sS'voters'
p3975
I1
sS'vom'
p3976
I1
sS'von'
p3977
I1
sS'motors'
p3978
I1
sS'rio'
p3979
I1
sS'ready'
p3980
I2
sS'pagecreate'
p3981
I1
sS'audi'
p3982
I1
sS'aches'
p3983
I1
sS'emoticons'
p3984
I1
sS'fibers'
p3985
I1
sS'migraine'
p3986
I1
sS'textile'
p3987
I1
sS'dhabi'
p3988
I1
sS'lawyers'
p3989
I2
sS'affairs'
p3990
I2
sS'blair'
p3991
I1
sS'levels'
p3992
I1
sS'moving'
p3993
I1
sS'purpose'
p3994
I3
sS'mesothelioma'
p3995
I1
sS'euro'
p3996
I4
sS'recognized'
p3997
I1
sS'messagetime'
p3998
I1
sS'poland'
p3999
I1
sS'monaco'
p4000
I1
sS'analysis'
p4001
I1
sS'picks'
p4002
I15
sS'person'
p4003
I2
sS'gaddafi'
p4004
I1
sS'organization'
p4005
I1
sS'gsk'
p4006
I1
sS'prevention'
p4007
I1
sS'seminarby'
p4008
I1
sS'calgary'
p4009
I1
sS'shareswashington'
p4010
I1
sS'macedonian'
p4011
I1
sS'ganzhou'
p4012
I1
sS'questions'
p4013
I3
sS'alternative'
p4014
I2
sS'summaries'
p4015
I1
sS'apple'
p4016
I2
sS'hotpot'
p4017
I1
sS'tables'
p4018
I1
sS'cut'
p4019
I1
sS'tablet'
p4020
I1
sS'cup'
p4021
I2
sS'recipient'
p4022
I2
sS'workers'
p4023
I4
sS'barack'
p4024
I1
sS'governmental'
p4025
I1
sS'hyperlinks'
p4026
I1
sS'location'
p4027
I1
sS'honor'
p4028
I1
sS'submissions'
p4029
I1
sS'remaining'
p4030
I1
sS'build'
p4031
I2
sS'associations'
p4032
I1
sS'victims'
p4033
I1
sS'format'
p4034
I4
sS'big'
p4035
I3
sS'couple'
p4036
I2
sS'results'
p4037
I5
sS'matters'
p4038
I1
sS'game'
p4039
I1
sS'boost'
p4040
I1
sS'biz'
p4041
I1
sS'clemency'
p4042
I19
sS'commas'
p4043
I2
sS'disclose'
p4044
I1
sS'bis'
p4045
I1
sS'projects'
p4046
I1
sS'miptec'
p4047
I1
sS'toyota'
p4048
I5
sS'rainstorms'
p4049
I1
sS'underway'
p4050
I1
sS'collect'
p4051
I1
sS'arthur'
p4052
I1
sS'individuals'
p4053
I1
sS'premium'
p4054
I2
sS'google'
p4055
I5
sS'gardening'
p4056
I1
sS'senate'
p4057
I2
sS'hinten'
p4058
I1
sS'back'
p4059
I7
sS'economic'
p4060
I7
sS'pricing'
p4061
I2
sS'zhouqu'
p4062
I1
sS'newsletter'
p4063
I3
sS'delivered'
p4064
I3
sS'pet'
p4065
I1
sS'singing'
p4066
I1
sS'decision'
p4067
I2
sS'warnings'
p4068
I2
sS'integration'
p4069
I1
sS'saab'
p4070
I3
sS'run'
p4071
I1
sS'lose'
p4072
I1
sS'continuing'
p4073
I1
sS'fed'
p4074
I4
sS'outdoor'
p4075
I2
sS'bp'
p4076
I3
sS'optionsconnect'
p4077
I1
sS'carbide'
p4078
I1
sS'vaccine'
p4079
I2
sS'roundup'
p4080
I1
sS'faith'
p4081
I1
sS'pipeline'
p4082
I4
sS'goods'
p4083
I1
sS'pfizer'
p4084
I1
sS'pains'
p4085
I1
sS'livingsocial'
p4086
I1
sS'dwight'
p4087
I1
sS'block'
p4088
I1
sS'pollution'
p4089
I1
sS'disclosure'
p4090
I1
sS'colorado'
p4091
I4
sS'hometown'
p4092
I1
sS'ahmadinejad'
p4093
I1
sS'pentagon'
p4094
I1
sS'bankruptcy'
p4095
I1
sS'ontario'
p4096
I1
sS'computer'
p4097
I2
sS'spam'
p4098
I2
sS'spending'
p4099
I1
sS'capsizes'
p4100
I1
sS'long'
p4101
I1
sS'accountability'
p4102
I1
sS'vendors'
p4103
I1
sS'shel'
p4104
I1
sS'opens'
p4105
I1
sS'files'
p4106
I1
sS'peru'
p4107
I2
sS'jewish'
p4108
I1
sS'registered'
p4109
I1
sS'screven'
p4110
I1
sS'specialty'
p4111
I1
sS'fisheries'
p4112
I1
sS'link'
p4113
I3
sS'russian'
p4114
I4
sS'foursquarecreate'
p4115
I1
sS'line'
p4116
I3
sS'posted'
p4117
I3
sS'info'
p4118
I2
sS'originals'
p4119
I1
sS'pickers'
p4120
I1
sS'planet'
p4121
I1
sS'windows'
p4122
I4
sS'called'
p4123
I1
sS'nationalist'
p4124
I1
sS'soars'
p4125
I1
sS'doclose'
p4126
I1
sS'chan'
p4127
I1
sS'metals'
p4128
I1
sS'warning'
p4129
I1
sS'chat'
p4130
I1
sS'cotton'
p4131
I1
sS'rains'
p4132
I2
sS'peace'
p4133
I1
sS'fears'
p4134
I4
sS'application'
p4135
I4
sS'recognition'
p4136
I1
sS'radioblenden'
p4137
I1
sS'freighter'
p4138
I1
sS'emailsend'
p4139
I1
sS'users'
p4140
I3
sS'thefts'
p4141
I1
sS'srpski'
p4142
I1
sS'william'
p4143
I1
sS'drag'
p4144
I1
sS'oregon'
p4145
I2
sS'eval'
p4146
I1
sS'prepares'
p4147
I1
sS'cooperate'
p4148
I1
sS'aggregated'
p4149
I1
sS'ago'
p4150
I2
sS'ge'
p4151
I2
sS'land'
p4152
I1
sS'fighter'
p4153
I1
sS'vice'
p4154
I2
sS'consumer'
p4155
I1
sS'rescued'
p4156
I1
sS'vehicles'
p4157
I1
sS'turbines'
p4158
I1
sS'microsoft'
p4159
I2
sS'summit'
p4160
I3
sS'rallies'
p4161
I1
sS'fresh'
p4162
I1
sS'zagg'
p4163
I1
sS'moveit'
p4164
I1
sS'speednews'
p4165
I2
sS'gt'
p4166
I1
sS'nowindiatimes'
p4167
I1
sS'receiver'
p4168
I1
sS'tokelau'
p4169
I1
sS'amplifies'
p4170
I1
sS'farms'
p4171
I2
sS'renown'
p4172
I1
sS'edt'
p4173
I1
sS'gossip'
p4174
I1
sS'gm'
p4175
I5
sS'issues'
p4176
I6
sS'contacted'
p4177
I1
sS'turkish'
p4178
I3
sS'disposal'
p4179
I1
sS'description'
p4180
I1
sS'shanghai'
p4181
I1
sS'young'
p4182
I1
sS'send'
p4183
I5
sS'outlooks'
p4184
I1
sS'helps'
p4185
I2
sS'soiree'
p4186
I1
sS'quarterly'
p4187
I2
sS'suite'
p4188
I1
sS'include'
p4189
I2
sS'dramatically'
p4190
I1
sS'scarlett'
p4191
I1
sS'ingredient'
p4192
I1
sS'probe'
p4193
I2
sS'garden'
p4194
I3
sS'ophelia'
p4195
I1
sS'maas'
p4196
I1
sS'migrants'
p4197
I2
sS'zhejiang'
p4198
I1
sS'nanomaterials'
p4199
I1
sS'surgeon'
p4200
I1
sS'continued'
p4201
I1
sS'categories'
p4202
I2
sS'timely'
p4203
I1
sS'stiff'
p4204
I2
sS'gender'
p4205
I1
sS'button'
p4206
I2
sS'michael'
p4207
I2
sS'yangzhou'
p4208
I1
sS'deals'
p4209
I3
sS'indiapowered'
p4210
I1
sS'verdict'
p4211
I1
sS'kosovo'
p4212
I1
sS'obesity'
p4213
I2
sS'challenge'
p4214
I1
sS'disclaimer'
p4215
I1
sS'logistics'
p4216
I3
sS'freight'
p4217
I1
sS'battle'
p4218
I1
sS'abortion'
p4219
I1
sS'participate'
p4220
I1
sS'sensation'
p4221
I1
sS'crop'
p4222
I1
sS'rivers'
p4223
I1
sS'jump'
p4224
I1
sS'glaxosmithkline'
p4225
I1
sS'picked'
p4226
I2
sS'plead'
p4227
I1
sS'licenses'
p4228
I1
sS'dynamics'
p4229
I2
sS'growers'
p4230
I2
sS'honors'
p4231
I1
sS'onsign'
p4232
I1
sS'universities'
p4233
I1
sS'index'
p4234
I11
sS'plays'
p4235
I1
sS'chicago'
p4236
I20
sS'giving'
p4237
I1
sS'cell'
p4238
I1
sS'consistently'
p4239
I1
sS'accuweather'
p4240
I2
sS'microprocessor'
p4241
I1
sS'capital'
p4242
I1
sS'firms'
p4243
I3
sS'body'
p4244
I20
sS'led'
p4245
I1
sS'stance'
p4246
I1
sS'exchange'
p4247
I1
sS'commercial'
p4248
I3
sS'fla'
p4249
I1
sS'objects'
p4250
I1
sS'poverty'
p4251
I1
sS'great'
p4252
I1
sS'talent'
p4253
I1
sS'copyright'
p4254
I5
sS'joystiq'
p4255
I19
sS'receive'
p4256
I4
sS'mclaren'
p4257
I1
sS'leaving'
p4258
I1
sS'analitica'
p4259
I5
sS'opinion'
p4260
I4
sS'residents'
p4261
I1
sS'gene'
p4262
I3
sS'makes'
p4263
I3
sS'delays'
p4264
I1
sS'patents'
p4265
I1
sS'holmes'
p4266
I1
sS'examining'
p4267
I1
sS'named'
p4268
I3
sS'firefox'
p4269
I2
sS'addresses'
p4270
I2
sS'deputy'
p4271
I1
sS'apr'
p4272
I1
sS'win'
p4273
I1
sS'app'
p4274
I3
sS'manage'
p4275
I1
sS'supergrid'
p4276
I2
sS'nanjing'
p4277
I1
sS'homepage'
p4278
I2
sS'api'
p4279
I1
sS'sgl'
p4280
I1
sS'motor'
p4281
I2
sS'festivals'
p4282
I1
sS'sugar'
p4283
I1
sS'tools'
p4284
I1
sS'cloud'
p4285
I2
sS'confidence'
p4286
I1
sS'andreas'
p4287
I1
sS'feb'
p4288
I1
sS'gere'
p4289
I1
sS'illegal'
p4290
I1
sS'process'
p4291
I2
sS'camera'
p4292
I1
sS'chu'
p4293
I1
sS'vehicle'
p4294
I1
sS'congratulates'
p4295
I1
sS'edgewood'
p4296
I1
sS'parliament'
p4297
I1
sS'journalists'
p4298
I3
sS'started'
p4299
I1
sS'silberalfa'
p4300
I1
sS'missile'
p4301
I1
sS'harvest'
p4302
I1
sS'appointed'
p4303
I1
sS'subscription'
p4304
I1
sS'customer'
p4305
I2
sS'sample'
p4306
I3
sS'account'
p4307
I3
sS'ride'
p4308
I1
sS'package'
p4309
I1
sS'recession'
p4310
I2
sS'reserves'
p4311
I2
sS'nixes'
p4312
I1
sS'microsemi'
p4313
I1
sS'drill'
p4314
I1
sS'meet'
p4315
I1
sS'chinook'
p4316
I1
sS'drops'
p4317
I4
sS'control'
p4318
I4
sS'beijing'
p4319
I2
sS'guidechina'
p4320
I1
sS'tap'
p4321
I7
sS'judge'
p4322
I1
sS'halloween'
p4323
I1
sS'purposes'
p4324
I2
sS'promotional'
p4325
I2
sS'high'
p4326
I4
sS'tag'
p4327
I1
sS'hilton'
p4328
I1
sS'shipping'
p4329
I1
sS'tab'
p4330
I1
sS'publicity'
p4331
I1
sS'voice'
p4332
I1
sS'hereinafter'
p4333
I1
sS'native'
p4334
I1
sS'chevrolet'
p4335
I2
sS'immigrants'
p4336
I1
sS'stewardship'
p4337
I1
sS'traders'
p4338
I1
sS'winners'
p4339
I1
sS'sie'
p4340
I1
sS'comedy'
p4341
I1
sS'afp'
p4342
I1
sS'memoir'
p4343
I1
sS'stock'
p4344
I5
sS'profile'
p4345
I1
sS'farm'
p4346
I5
sS'watch'
p4347
I1
sS'highs'
p4348
I1
sS'act'
p4349
I2
sS'collection'
p4350
I4
sS'abuse'
p4351
I1
sS'leisure'
p4352
I1
sS'ethnic'
p4353
I1
sS'ties'
p4354
I1
sS'prostate'
p4355
I3
sS'tomato'
p4356
I1
sS'eritrea'
p4357
I1
sS'boeing'
p4358
I2
sS'displayedwill'
p4359
I1
sS'robot'
p4360
I2
sS'commodities'
p4361
I1
sS'chief'
p4362
I2
sS'advocates'
p4363
I2
sS'divided'
p4364
I1
sS'breast'
p4365
I2
sS'houston'
p4366
I1
sS'nhuatlahtlli'
p4367
I1
sS'move'
p4368
I4
sS'doubtful'
p4369
I1
sS'sikkimtn'
p4370
I1
sS'including'
p4371
I3
sS'motorcycle'
p4372
I1
sS'quake'
p4373
I2
sS'agricultural'
p4374
I1
sS'badges'
p4375
I1
sS'contaminated'
p4376
I1
sS'industries'
p4377
I1
sS'spotify'
p4378
I1
sS'revived'
p4379
I1
sS'reprint'
p4380
I1
sS'responsebatch'
p4381
I1
sS'lithuania'
p4382
I1
sS'winning'
p4383
I2
sS'mental'
p4384
I2
sS'usaid'
p4385
I1
sS'degrees'
p4386
I1
sS'choose'
p4387
I4
sS'wuyi'
p4388
I1
sS'puerto'
p4389
I1
sS'imbalance'
p4390
I1
sS'techcrunch'
p4391
I19
sS'eur'
p4392
I1
sS'crash'
p4393
I1
sS'dam'
p4394
I2
sS'usterms'
p4395
I1
sS'material'
p4396
I1
sS'toshiba'
p4397
I1
sS'das'
p4398
I1
sS'front'
p4399
I21
sS'republican'
p4400
I2
sS'flee'
p4401
I1
sS'handy'
p4402
I1
sS'presidential'
p4403
I6
sS'worlds'
p4404
I1
sS'edit'
p4405
I3
sS'warned'
p4406
I1
sS'commentadmin'
p4407
I4
sS'countries'
p4408
I5
sS'unpredictable'
p4409
I1
sS'doppel'
p4410
I1
sS'warner'
p4411
I1
sS'studios'
p4412
I1
sS'sando'
p4413
I1
sS'liaoning'
p4414
I1
sS'related'
p4415
I1
sS'books'
p4416
I21
sS'measure'
p4417
I1
sS'agriculture'
p4418
I1
sS'special'
p4419
I5
sS'category'
p4420
I1
sS'matrix'
p4421
I1
sS'integrates'
p4422
I1
sS'unlawful'
p4423
I1
sS'chaos'
p4424
I1
sS'ret'
p4425
I1
sS'werden'
p4426
I1
sS'activist'
p4427
I1
sS'arkansas'
p4428
I1
sS'evacuation'
p4429
I1
sS'electronics'
p4430
I2
sS'calif'
p4431
I1
sS'math'
p4432
I1
sS'debris'
p4433
I1
sS'await'
p4434
I1
sS'eco'
p4435
I1
sS'recommendations'
p4436
I1
sS'payroll'
p4437
I1
sS'regulators'
p4438
I1
sS'hazard'
p4439
I1
sS'regulatory'
p4440
I1
sS'ipos'
p4441
I2
sS'organic'
p4442
I1
sS'islamic'
p4443
I1
sS'florida'
p4444
I6
sS'timer'
p4445
I1
sS'times'
p4446
I6
sS'pigs'
p4447
I1
sS'davis'
p4448
I5
sS'retail'
p4449
I1
sS'museum'
p4450
I1
sS'berlusconi'
p4451
I1
sS'losses'
p4452
I3
sS'plastics'
p4453
I1
sS'isbn'
p4454
I1
sS'dounique'
p4455
I1
sS'ihs'
p4456
I1
sS'shenyang'
p4457
I2
sS'owned'
p4458
I1
sS'strategic'
p4459
I1
sS'hugo'
p4460
I1
sS'drastic'
p4461
I1
sS'reached'
p4462
I1
sS'quality'
p4463
I1
sS'destinations'
p4464
I1
sS'playlist'
p4465
I2
sS'festival'
p4466
I3
sS'system'
p4467
I5
sS'relations'
p4468
I1
sS'inmate'
p4469
I1
sS'attack'
p4470
I5
sS'palestine'
p4471
I1
sS'jellyfish'
p4472
I1
sS'tourists'
p4473
I1
sS'evacuated'
p4474
I1
sS'interests'
p4475
I1
sS'stck'
p4476
I1
sS'acquire'
p4477
I1
sS'debate'
p4478
I8
sS'environmental'
p4479
I2
sS'chemicals'
p4480
I1
sS'july'
p4481
I2
sS'completes'
p4482
I1
sS'petrobras'
p4483
I3
sS'ipad'
p4484
I1
sS'warfare'
p4485
I1
sS'suomi'
p4486
I1
sS'submitted'
p4487
I2
sS'patients'
p4488
I3
sS'vorne'
p4489
I1
sS'gays'
p4490
I1
sS'providing'
p4491
I1
sS'steep'
p4492
I2
sS'exhibit'
p4493
I1
sS'false'
p4494
I1
sS'showbiz'
p4495
I1
sS'plaintext'
p4496
I1
sS'lines'
p4497
I1
sS'partnership'
p4498
I1
sS'versandkosteninkl'
p4499
I2
sS'close'
p4500
I3
sS'sky'
p4501
I3
sS'border'
p4502
I1
sS'linked'
p4503
I3
sS'catholic'
p4504
I1
sS'dallas'
p4505
I1
sS'allergies'
p4506
I2
sS'agency'
p4507
I1
sS'espaol'
p4508
I1
sS'anglo'
p4509
I1
sS'klasse'
p4510
I1
sS'bus'
p4511
I1
sS'accuracy'
p4512
I1
sS'parenting'
p4513
I1
sS'montana'
p4514
I1
sS'class'
p4515
I1
sS'cellphone'
p4516
I1
sS'barista'
p4517
I1
sS'breach'
p4518
I3
sS'stranded'
p4519
I1
sS'request'
p4520
I3
sS'disease'
p4521
I3
sS'lietuvi'
p4522
I1
sS'movie'
p4523
I1
sS'bret'
p4524
I1
sS'fact'
p4525
I2
sS'affair'
p4526
I1
sS'selection'
p4527
I3
sS'nanotubes'
p4528
I1
sS'text'
p4529
I4
sS'supported'
p4530
I1
sS'spanking'
p4531
I1
sS'hamlet'
p4532
I1
sS'longevity'
p4533
I1
sS'bring'
p4534
I1
sS'democrats'
p4535
I1
sS'portfolio'
p4536
I2
sS'pleased'
p4537
I2
sS'decade'
p4538
I1
sS'staff'
p4539
I1
sS'partners'
p4540
I4
sS'forex'
p4541
I2
sS'based'
p4542
I1
sS'foreclosure'
p4543
I4
sS'sheriff'
p4544
I1
sS'mumbai'
p4545
I3
sS'woo'
p4546
I1
sS'controls'
p4547
I1
sS'jan'
p4548
I1
sS'candidates'
p4549
I4
sS'employee'
p4550
I1
sS'weihai'
p4551
I1
sS'jab'
p4552
I1
sS'hope'
p4553
I4
sS'melissa'
p4554
I1
sS'marvell'
p4555
I1
sS'specifications'
p4556
I1
sS'joint'
p4557
I1
sS'hifi'
p4558
I2
sS'fraud'
p4559
I1
sS'sues'
p4560
I2
sS'joins'
p4561
I2
sS'entity'
p4562
I1
sS'procedures'
p4563
I1
sS'areas'
p4564
I5
sS'committees'
p4565
I1
sS'unauthorized'
p4566
I1
sS'wellness'
p4567
I1
sS'gbk'
p4568
I1
sS'taxes'
p4569
I1
sS'mercedes'
p4570
I1
sS'ohio'
p4571
I2
sS'grab'
p4572
I2
sS'autoblog'
p4573
I19
sS'view'
p4574
I4
sS'enhancer'
p4575
I1
sS'strengthened'
p4576
I1
sS'accuser'
p4577
I1
sS'svenska'
p4578
I1
sS'makers'
p4579
I3
sS'korea'
p4580
I1
sS'spotter'
p4581
I1
sS'greece'
p4582
I3
sS'atlantic'
p4583
I11
sS'xzeres'
p4584
I1
sS'textiles'
p4585
I1
sS'reform'
p4586
I2
sS'whiteglove'
p4587
I1
sS'nuclear'
p4588
I5
sS'missing'
p4589
I3
sS'written'
p4590
I1
sS'schleicher'
p4591
I1
sS'crude'
p4592
I3
sS'muslim'
p4593
I1
sS'warren'
p4594
I1
sS'overthrown'
p4595
I1
sS'email'
p4596
I5
sS'publishers'
p4597
I1
sS'keynote'
p4598
I1
sS'contentcopyright'
p4599
I1
sS'deliver'
p4600
I1
sS'agencies'
p4601
I1
sS'efficiency'
p4602
I2
sS'job'
p4603
I2
sS'armenia'
p4604
I2
sS'vte'
p4605
I1
sS'precious'
p4606
I1
sS'lawsuit'
p4607
I3
sS'distribution'
p4608
I2
sS'hits'
p4609
I1
sS'defense'
p4610
I1
sS'plugin'
p4611
I2
sS'admin'
p4612
I1
sS'miners'
p4613
I2
sS'incident'
p4614
I1
sS'drug'
p4615
I4
sS'april'
p4616
I1
sS'bachmann'
p4617
I1
sS'bristol'
p4618
I1
sS'comment'
p4619
I6
sS'motionmakers'
p4620
I1
sS'relevant'
p4621
I2
sS'cc'
p4622
I1
sS'ca'
p4623
I2
sS'subscribe'
p4624
I3
sS'ab'
p4625
I1
sS'llanagail'
p4626
I1
sS'table'
p4627
I1
sS'cp'
p4628
I2
sS'quit'
p4629
I1
sS'provinces'
p4630
I1
sS'silvio'
p4631
I1
sS'addition'
p4632
I1
sS'bbc'
p4633
I1
sS'rover'
p4634
I1
sS'inhalt'
p4635
I1
sS'tyler'
p4636
I1
sS'elects'
p4637
I1
sS'waste'
p4638
I1
sS'partial'
p4639
I6
sS'eurozone'
p4640
I1
sS'contribute'
p4641
I1
sS'league'
p4642
I1
sS'protect'
p4643
I1
sS'radioadapter'
p4644
I1
sS'plogs'
p4645
I1
sS'writechatdiv'
p4646
I1
sS'derivative'
p4647
I1
sS'present'
p4648
I2
sS'homes'
p4649
I1
sS'therefor'
p4650
I1
sS'dodge'
p4651
I1
sS'vimeo'
p4652
I1
sS'rbs'
p4653
I1
sS'salman'
p4654
I1
sS'podcasts'
p4655
I1
sS'rbi'
p4656
I1
sS'watson'
p4657
I1
sS'uncertainty'
p4658
I1
sS'upfacebook'
p4659
I1
sS'golic'
p4660
I1
sS'hardware'
p4661
I1
sS'vw'
p4662
I2
sS'halt'
p4663
I1
sS'euskara'
p4664
I1
sS'terrorist'
p4665
I1
sS'began'
p4666
I1
sS'administration'
p4667
I1
sS'tripoli'
p4668
I1
sS'kazakhstan'
p4669
I1
sS'strange'
p4670
I1
sS'auto'
p4671
I5
sS'terrorism'
p4672
I12
sS'fcast'
p4673
I1
sS'columbia'
p4674
I12
sS'unconventional'
p4675
I1
sS'reporting'
p4676
I1
sS'forecasts'
p4677
I2
sS'bullying'
p4678
I2
sS'nanofibers'
p4679
I1
sS'infiniti'
p4680
I1
sS'afghan'
p4681
I1
sS'login'
p4682
I1
sS'rift'
p4683
I2
sS'center'
p4684
I1
sS'shotgun'
p4685
I1
sS'builder'
p4686
I1
sS'indonesia'
p4687
I2
sS'fighting'
p4688
I1
sS'thought'
p4689
I1
sS'guo'
p4690
I1
sS'english'
p4691
I2
sS'yangtze'
p4692
I1
sS'arising'
p4693
I1
sS'load'
p4694
I3
sS'yanji'
p4695
I1
sS'stores'
p4696
I1
sS'subscribers'
p4697
I2
sS'interlingua'
p4698
I1
sS'click'
p4699
I8
sS'skincare'
p4700
I1
sS'sources'
p4701
I8
sS'dakota'
p4702
I1
sS'paul'
p4703
I1
sS'binladin'
p4704
I1
sS'web'
p4705
I7
sS'wea'
p4706
I1
sS'bicycles'
p4707
I1
sS'ads'
p4708
I2
sS'veracruz'
p4709
I1
sS'residential'
p4710
I1
sS'podcast'
p4711
I1
sS'bell'
p4712
I1
sS'demographic'
p4713
I1
sS'lake'
p4714
I2
sS'killed'
p4715
I3
sS'arrest'
p4716
I1
sS'extends'
p4717
I1
sS'cosmetics'
p4718
I1
sS'nanoparticles'
p4719
I1
sS'somali'
p4720
I1
sS'usage'
p4721
I2
sS'rehn'
p4722
I1
sS'tax'
p4723
I4
sS'possess'
p4724
I1
sS'ski'
p4725
I2
sS'volapk'
p4726
I1
sS'match'
p4727
I1
sS'resolved'
p4728
I2
sS'recycling'
p4729
I1
sS'provisions'
p4730
I1
sS'liberia'
p4731
I1
sS'term'
p4732
I1
sS'djibouti'
p4733
I1
sS'zimbabwe'
p4734
I1
sS'kirundi'
p4735
I1
sS'belgium'
p4736
I1
sS'attorneys'
p4737
I1
sS'nanotechnology'
p4738
I1
sS'password'
p4739
I1
sS'prominent'
p4740
I1
sS'loss'
p4741
I3
sS'ownerspat'
p4742
I1
sS'chairs'
p4743
I1
sS'nanning'
p4744
I1
sS'newsfeeds'
p4745
I1
sS'leaves'
p4746
I1
sS'works'
p4747
I1
sS'university'
p4748
I4
sS'italian'
p4749
I1
sS'accessible'
p4750
I1
sS'functional'
p4751
I1
sS'twitter'
p4752
I26
sS'linux'
p4753
I1
sS'library'
p4754
I1
sS'hair'
p4755
I1
sS'growth'
p4756
I3
sS'choosing'
p4757
I2
sS'recommendation'
p4758
I2
sS'employment'
p4759
I1
sS'transport'
p4760
I2
sS'versandkostenalfa'
p4761
I1
sS'lead'
p4762
I2
sS'blackstone'
p4763
I1
sS'hurricane'
p4764
I2
sS'pashto'
p4765
I1
sS'fedex'
p4766
I1
sS'moderated'
p4767
I1
sS'leader'
p4768
I2
sS'warranties'
p4769
I1
sS'limitations'
p4770
I1
sS'locata'
p4771
I1
sS'mitt'
p4772
I2
sS'rock'
p4773
I1
sS'usaf'
p4774
I1
sS'balkans'
p4775
I1
sS'lockheed'
p4776
I2
sS'mondale'
p4777
I1
sS'publishing'
p4778
I1
sS'rare'
p4779
I1
sS'huaihe'
p4780
I1
sS'introduces'
p4781
I1
sS'urged'
p4782
I2
sS'statement'
p4783
I3
sS'hier'
p4784
I1
sS'pressrelease'
p4785
I5
sS'urges'
p4786
I2
sS'clooney'
p4787
I19
sS'software'
p4788
I3
sS'photovoltaic'
p4789
I1
sS'alliance'
p4790
I1
sS'washington'
p4791
I6
sS'commitment'
p4792
I1
sS'weather'
p4793
I8
sS'lung'
p4794
I2
sS'eine'
p4795
I1
sS'female'
p4796
I1
sS'registration'
p4797
I2
sS'postal'
p4798
I2
sS'housing'
p4799
I1
sS'dinar'
p4800
I1
sS'var'
p4801
I1
sS'picturesin'
p4802
I1
sS'huai'
p4803
I1
sS'function'
p4804
I1
sS'cricket'
p4805
I1
sS'buy'
p4806
I2
sS'triggered'
p4807
I1
sS'funds'
p4808
I1
sS'overflow'
p4809
I1
sS'editing'
p4810
I1
sS'hd'
p4811
I1
sS'made'
p4812
I2
sS'official'
p4813
I1
sS'hosting'
p4814
I1
sS'record'
p4815
I3
sS'problem'
p4816
I1
sS'display'
p4817
I1
sS'stylelist'
p4818
I19
sS'motionmakerbecome'
p4819
I1
sS'universal'
p4820
I1
sS'pic'
p4821
I1
sS'romney'
p4822
I3
sS'pie'
p4823
I1
sS'resumption'
p4824
I1
sS'replica'
p4825
I1
sS'worse'
p4826
I1
sS'motionmaker'
p4827
I1
sS'renowned'
p4828
I1
sS'variety'
p4829
I1
sS'deadly'
p4830
I1
sS'book'
p4831
I1
sS'details'
p4832
I5
sS'stumps'
p4833
I1
sS'symposium'
p4834
I5
sS'repeat'
p4835
I1
sS'star'
p4836
I1
sS'monday'
p4837
I1
sS'ubs'
p4838
I1
sS'outlets'
p4839
I2
sS'directory'
p4840
I5
sS'friends'
p4841
I28
sS'christians'
p4842
I1
sS'searches'
p4843
I1
sS'blogs'
p4844
I7
sS'martin'
p4845
I2
sS'rule'
p4846
I2
sS'portion'
p4847
I1
sS'write'
p4848
I1
sS'ideological'
p4849
I2
sS'lives'
p4850
I2
sS'icagen'
p4851
I1
sS'irony'
p4852
I2
sS'melayu'
p4853
I1
stp4854
Rp4855
sg2136
I3854
sg2137
F7630.0
sbssS'_label_probdist'
p4856
g0
(g14
g2
Ntp4857
Rp4858
(dp4859
g18
F0.5
sg19
I10790
sg20
g21
((dp4860
g8
I5703
sg9
I5087
stp4861
Rp4862
sg2136
I2
sg2137
F10791.0
sbsb.