ccopy_reg
_reconstructor
p0
(cnltk.classify.naivebayes
NaiveBayesClassifier
p1
c__builtin__
object
p2
Ntp3
Rp4
(dp5
S'_labels'
p6
(lp7
S'neg'
p8
aS'pos'
p9
asS'_feature_probdist'
p10
(dp11
(g9
S'word'
p12
tp13
g0
(cnltk.probability
ELEProbDist
p14
g2
Ntp15
Rp16
(dp17
S'_gamma'
p18
F0.5
sS'_N'
p19
I2379
sS'_freqdist'
p20
cnltk.probability
FreqDist
p21
((dp22
S'limited'
p23
I2
sS'irrigation'
p24
I1
sS'code'
p25
I2
sS'edf'
p26
I1
sS'chinese'
p27
I24
sS'mccaffrey'
p28
I1
sS'pte'
p29
I2
sS'global'
p30
I6
sS'taizi'
p31
I1
sS'results'
p32
I2
sS'yellow'
p33
I6
sS'month'
p34
I2
sS'leads'
p35
I1
sS'facilities'
p36
I1
sS'farms'
p37
I1
sS'debris'
p38
I1
sS'legal'
p39
I2
sS'khanun'
p40
I1
sS'winds'
p41
I1
sS'follow'
p42
I2
sS'boluo'
p43
I3
sS'religious'
p44
I1
sS'issues'
p45
I2
sS'likerecommendconfirmyou'
p46
I2
sS'yujiang'
p47
I3
sS'fugitive'
p48
I1
sS'terms'
p49
I3
sS'tx'
p50
I1
sS'turkish'
p51
I1
sS'tv'
p52
I6
sS'disposal'
p53
I1
sS'jianguo'
p54
I1
sS'shanghai'
p55
I1
sS'thursday'
p56
I9
sS'environment'
p57
I10
sS'citing'
p58
I1
sS'program'
p59
I1
sS'reptiles'
p60
I1
sS'helps'
p61
I2
sS'caused'
p62
I8
sS'atlas'
p63
I1
sS'safety'
p64
I4
sS'suffered'
p65
I1
sS'popola'
p66
I7
sS'resources'
p67
I3
sS'southwest'
p68
I2
sS'dandy'
p69
I1
sS'dailymotion'
p70
I1
sS'woman'
p71
I1
sS'worse'
p72
I1
sS'beibei'
p73
I3
sS'osofar'
p74
I2
sS'continues'
p75
I1
sS'fav'
p76
I1
sS'wave'
p77
I1
sS'facebook'
p78
I5
sS'updates'
p79
I1
sS'reforms'
p80
I1
sS'cook'
p81
I3
sS'blast'
p82
I1
sS'continued'
p83
I3
sS'categories'
p84
I2
sS'lijin'
p85
I3
sS'school'
p86
I1
sS'magic'
p87
I1
sS'staples'
p88
I1
sS'level'
p89
I5
sS'harbor'
p90
I1
sS'turns'
p91
I1
sS'steeply'
p92
I1
sS'list'
p93
I4
sS'solution'
p94
I1
sS'leave'
p95
I6
sS'mm'
p96
I2
sS'race'
p97
I1
sS'team'
p98
I1
sS'small'
p99
I3
sS'businesses'
p100
I1
sS'sewage'
p101
I1
sS'fujian'
p102
I4
sS'tirec'
p103
I1
sS'upper'
p104
I1
sS'smaller'
p105
I1
sS'tel'
p106
I3
sS'leaders'
p107
I3
sS'ten'
p108
I1
sS'baffle'
p109
I1
sS'streets'
p110
I1
sS'direct'
p111
I2
sS'claudio'
p112
I1
sS'rivers'
p113
I4
sS'noticias'
p114
I1
sS'rate'
p115
I1
sS'cost'
p116
I1
sS'design'
p117
I1
sS'poll'
p118
I2
sS'acid'
p119
I1
sS'click'
p120
I3
sS'depression'
p121
I1
sS'index'
p122
I2
sS'defence'
p123
I1
sS'schedule'
p124
I1
sS'havoc'
p125
I1
sS'landslides'
p126
I5
sS'lhasa'
p127
I3
sS'indian'
p128
I1
sS'fossil'
p129
I1
sS'capital'
p130
I1
sS'supplies'
p131
I1
sS'falling'
p132
I1
sS'ground'
p133
I1
sS'public'
p134
I1
sS'friday'
p135
I3
sS'iran'
p136
I1
sS'stance'
p137
I1
sS'tags'
p138
I1
sS'pushing'
p139
I1
sS'hundreds'
p140
I1
sS'water'
p141
I19
sS'reported'
p142
I6
sS'explore'
p143
I1
sS'protection'
p144
I1
sS'issued'
p145
I1
sS'groups'
p146
I1
sS'address'
p147
I1
sS'strong'
p148
I2
sS'change'
p149
I4
sS'extreme'
p150
I1
sS'search'
p151
I12
sS'kids'
p152
I2
sS'copyright'
p153
I10
sS'metro'
p154
I1
sS'cern'
p155
I1
sS'items'
p156
I1
sS'study'
p157
I2
sS'reports'
p158
I5
sS'leaving'
p159
I3
sS'products'
p160
I7
sS'advertising'
p161
I1
sS'cousins'
p162
I1
sS'action'
p163
I2
sS'military'
p164
I2
sS'residents'
p165
I7
sS'evacuees'
p166
I1
sS'navigation'
p167
I3
sS'concerned'
p168
I1
sS'taipei'
p169
I1
sS'millimetres'
p170
I1
sS'named'
p171
I1
sS'hulan'
p172
I2
sS'mail'
p173
I1
sS'ipd'
p174
I2
sS'danger'
p175
I1
sS'treatment'
p176
I1
sS'private'
p177
I1
sS'county'
p178
I5
sS'ians'
p179
I1
sS'tools'
p180
I1
sS'crisis'
p181
I1
sS'cloud'
p182
I1
sS'argentinas'
p183
I1
sS'troops'
p184
I1
sS'usa'
p185
I1
sS'super'
p186
I2
sS'prompting'
p187
I1
sS'visit'
p188
I2
sS'arms'
p189
I1
sS'sports'
p190
I3
sS'oecd'
p191
I1
sS'live'
p192
I2
sS'archives'
p193
I1
sS'recommend'
p194
I2
sS'markets'
p195
I2
sS'los'
p196
I1
sS'swap'
p197
I1
sS'extrasslideshowdata'
p198
I1
sS'rainfall'
p199
I5
sS'commissioner'
p200
I1
sS'hydrometric'
p201
I4
sS'started'
p202
I1
sS'share'
p203
I6
sS'highertorrential'
p204
I1
sS'local'
p205
I8
sS'occurred'
p206
I1
sS'billowing'
p207
I1
sS'alberta'
p208
I1
sS'kosovo'
p209
I3
sS'breach'
p210
I1
sS'harvest'
p211
I1
sS'topic'
p212
I2
sS'mg'
p213
I1
sS'taihu'
p214
I3
sS'player'
p215
I1
sS'tunnel'
p216
I1
sS'science'
p217
I2
sS'work'
p218
I4
sS'abortion'
p219
I1
sS'halt'
p220
I1
sS'cai'
p221
I1
sS'relocated'
p222
I1
sS'growing'
p223
I1
sS'ferry'
p224
I1
sS'history'
p225
I2
sS'control'
p226
I4
sS'beijing'
p227
I5
sS'xiushui'
p228
I1
sS'violence'
p229
I2
sS'reserved'
p230
I1
sS'stream'
p231
I1
sS'give'
p232
I1
sS'subsidies'
p233
I1
sS'benxi'
p234
I1
sS'india'
p235
I4
sS'updated'
p236
I4
sS'autumn'
p237
I1
sS'rainstorm'
p238
I2
sS'battered'
p239
I1
sS'council'
p240
I1
sS'dennis'
p241
I1
sS'occur'
p242
I1
sS'rescue'
p243
I2
sS'provincial'
p244
I4
sS'monitoring'
p245
I5
sS'hukou'
p246
I3
sS'breaking'
p247
I2
sS'damage'
p248
I1
sS'chongqing'
p249
I1
sS'kabul'
p250
I1
sS'located'
p251
I1
sS'sunday'
p252
I2
sS'rose'
p253
I3
sS'survivors'
p254
I1
sS'afp'
p255
I1
sS'stock'
p256
I1
sS'dailymotionvideoscategoriescommunitycontestsfamily'
p257
I1
sS'plant'
p258
I2
sS'de'
p259
I1
sS'lai'
p260
I1
sS'information'
p261
I1
sS'farm'
p262
I3
sS'dailymotionunited'
p263
I1
sS'waters'
p264
I1
sS'act'
p265
I1
sS'southern'
p266
I9
sS'alibaba'
p267
I11
sS'piaohe'
p268
I2
sS'abuse'
p269
I1
sS'islands'
p270
I1
sS'mai'
p271
I1
sS'end'
p272
I2
sS'mao'
p273
I1
sS'man'
p274
I1
sS'gorges'
p275
I1
sS'permalink'
p276
I2
sS'alertnet'
p277
I4
sS'natural'
p278
I2
sS'headquarters'
p279
I3
sS'green'
p280
I2
sS'newsworld'
p281
I3
sS'african'
p282
I1
sS'banks'
p283
I1
sS'worst'
p284
I3
sS'order'
p285
I1
sS'operations'
p286
I1
sS'embassies'
p287
I13
sS'anticyclone'
p288
I1
sS'feedback'
p289
I11
sS'office'
p290
I2
sS'september'
p291
I16
sS'consent'
p292
I1
sS'clients'
p293
I1
sS'find'
p294
I5
sS'meter'
p295
I3
sS'years'
p296
I7
sS'held'
p297
I2
sS'london'
p298
I1
sS'nbsp'
p299
I1
sS'replies'
p300
I2
sS'kong'
p301
I1
sS'japan'
p302
I2
sS'cold'
p303
I1
sS'nets'
p304
I1
sS'lijiadu'
p305
I3
sS'badges'
p306
I2
sS'rothstein'
p307
I3
sS'style'
p308
I1
sS'disqus'
p309
I1
sS'rapidly'
p310
I1
sS'till'
p311
I1
sS'personal'
p312
I2
sS'intensify'
p313
I1
sS'linyi'
p314
I3
sS'hot'
p315
I8
sS'li'
p316
I2
sS'destroyed'
p317
I4
sS'platform'
p318
I1
sS'osorno'
p319
I1
sS'reuters'
p320
I7
sS'degrees'
p321
I2
sS'copies'
p322
I1
sS'policy'
p323
I2
sS'peanuts'
p324
I1
sS'argentina'
p325
I2
sS'main'
p326
I4
sS'easier'
p327
I1
sS'shear'
p328
I1
sS'evening'
p329
I3
sS'affected'
p330
I14
sS'diseases'
p331
I4
sS'views'
p332
I1
sS'policyhelpcontact'
p333
I1
sS'auto'
p334
I1
sS'moshan'
p335
I1
sS'evacuation'
p336
I2
sS'nation'
p337
I3
sS'geopolitical'
p338
I1
sS'records'
p339
I1
sS'half'
p340
I2
sS'schools'
p341
I1
sS'fushun'
p342
I3
sS'republican'
p343
I4
sS'sanvu'
p344
I1
sS'killed'
p345
I16
sS'bank'
p346
I1
sS'articles'
p347
I1
sS'occasions'
p348
I1
sS'drop'
p349
I1
sS'pakistanis'
p350
I4
sS'ashes'
p351
I1
sS'slide'
p352
I1
sS'weather'
p353
I8
sS'fitness'
p354
I1
sS'volcano'
p355
I1
sS'feeds'
p356
I2
sS'carlos'
p357
I1
sS'heavy'
p358
I14
sS'week'
p359
I4
sS'financial'
p360
I1
sS'billion'
p361
I3
sS'tents'
p362
I1
sS'house'
p363
I5
sS'fishpond'
p364
I1
sS'buildings'
p365
I1
sS'related'
p366
I3
sS'wednesday'
p367
I1
sS'society'
p368
I1
sS'connect'
p369
I1
sS'year'
p370
I4
sS'eu'
p371
I4
sS'http'
p372
I2
sS'operation'
p373
I2
sS'morning'
p374
I1
sS'agriculture'
p375
I1
sS'saturday'
p376
I3
sS'special'
p377
I2
sS'canada'
p378
I3
sS'living'
p379
I3
sS'guangdong'
p380
I1
sS'funding'
p381
I1
sS'network'
p382
I1
sS'driving'
p383
I1
sS'ret'
p384
I1
sS'research'
p385
I1
sS'content'
p386
I4
sS'health'
p387
I1
sS'internet'
p388
I1
sS'print'
p389
I5
sS'millions'
p390
I2
sS'calif'
p391
I1
sS'red'
p392
I1
sS'shows'
p393
I6
sS'cars'
p394
I1
sS'million'
p395
I26
sS'pumping'
p396
I1
sS'mourning'
p397
I1
sS'houses'
p398
I1
sS'york'
p399
I1
sS'trademarks'
p400
I1
sS'ash'
p401
I1
sS'resumed'
p402
I1
sS'shaanxi'
p403
I4
sS'ministry'
p404
I6
sS'days'
p405
I2
sS'times'
p406
I3
sS'turn'
p407
I1
sS'pigs'
p408
I2
sS'davis'
p409
I1
sS'programme'
p410
I1
sS'top'
p411
I4
sS'flood'
p412
I25
sS'major'
p413
I4
sS'features'
p414
I1
sS'municipality'
p415
I1
sS'reaches'
p416
I4
sS'vote'
p417
I1
sS'reached'
p418
I1
sS'lanxi'
p419
I1
sS'ditch'
p420
I1
sS'continent'
p421
I1
sS'braces'
p422
I1
sS'size'
p423
I1
sS'city'
p424
I9
sS'story'
p425
I5
sS'hurricane'
p426
I1
sS'temperature'
p427
I1
sS'district'
p428
I1
sS'privacy'
p429
I2
sS'tksensei'
p430
I2
sS'hanjiang'
p431
I2
sS'attack'
p432
I1
sS'relations'
p433
I1
sS'plains'
p434
I1
sS'regulation'
p435
I1
sS'station'
p436
I4
sS'todayfood'
p437
I3
sS'erupted'
p438
I1
sS'white'
p439
I1
sS'scheme'
p440
I1
sS'west'
p441
I3
sS'editor'
p442
I2
sS'mining'
p443
I1
sS'guidelines'
p444
I2
sS'storm'
p445
I3
sS'season'
p446
I3
sS'tool'
p447
I1
sS'extratropical'
p448
I1
sS'park'
p449
I2
sS'released'
p450
I1
sS'typhoon'
p451
I6
sS'newswire'
p452
I1
sS'presstv'
p453
I1
sS'sign'
p454
I6
sS'pageinsightserroryou'
p455
I2
sS'rss'
p456
I1
sS'past'
p457
I1
sS'colleagues'
p458
I1
sS'farming'
p459
I1
sS'diario'
p460
I1
sS'brought'
p461
I1
sS'dikes'
p462
I1
sS'project'
p463
I1
sS'street'
p464
I1
sS'evacuated'
p465
I9
sS'ousted'
p466
I1
sS'kilometers'
p467
I1
sS'browser'
p468
I1
sS'talim'
p469
I3
sS'pro'
p470
I1
sS'helpfaqcontact'
p471
I1
sS'rescuers'
p472
I3
sS'events'
p473
I2
sS'orders'
p474
I1
sS'karl'
p475
I1
sS'pageinsightserror'
p476
I2
sS'dailymotionaboutpressjobsall'
p477
I1
sS'triggered'
p478
I6
sS'lin'
p479
I1
sS'agency'
p480
I19
sS'parks'
p481
I1
sS'endangered'
p482
I1
sS'minjiang'
p483
I3
sS'online'
p484
I1
sS'brace'
p485
I1
sS'channel'
p486
I1
sS'province'
p487
I29
sS'santiago'
p488
I1
sS'combat'
p489
I1
sS'chars'
p490
I2
sS'abc'
p491
I1
sS'preliminary'
p492
I1
sS'drought'
p493
I14
sS'pages'
p494
I2
sS'xijiang'
p495
I3
sS'wangmo'
p496
I2
sS'sichuan'
p497
I3
sS'environmental'
p498
I1
sS'mobile'
p499
I2
sS'neighboring'
p500
I1
sS'clear'
p501
I1
sS'stranded'
p502
I1
sS'directory'
p503
I3
sS'km'
p504
I1
sS'tweet'
p505
I1
sS'clean'
p506
I1
sS'nuclear'
p507
I4
sS'warming'
p508
I1
sS'atlantic'
p509
I1
sS'left'
p510
I4
sS'harbin'
p511
I1
sS'jiangxi'
p512
I2
sS'rating'
p513
I2
sS'shot'
p514
I1
sS'hongzehong'
p515
I3
sS'affairs'
p516
I3
sS'show'
p517
I2
sS'lewis'
p518
I1
sS'fifty'
p519
I1
sS'downpours'
p520
I6
sS'bring'
p521
I4
sS'troy'
p522
I1
sS'radio'
p523
I11
sS'paddle'
p524
I1
sS'southwestern'
p525
I1
sS'weekly'
p526
I8
sS'soldiers'
p527
I1
sS'headlines'
p528
I1
sS'font'
p529
I1
sS'overwhelmed'
p530
I1
sS'decade'
p531
I3
sS'staff'
p532
I1
sS'access'
p533
I1
sS'feng'
p534
I1
sS'copy'
p535
I1
sS'producer'
p536
I1
sS'northern'
p537
I1
sS'title'
p538
I1
sS'clutching'
p539
I1
sS'menu'
p540
I1
sS'scooter'
p541
I1
sS'storms'
p542
I2
sS'fans'
p543
I2
sS'start'
p544
I1
sS'lightspeed'
p545
I1
sS'swamped'
p546
I1
sS'air'
p547
I3
sS'xunjiang'
p548
I3
sS'factor'
p549
I1
sS'fuel'
p550
I2
sS'thousands'
p551
I3
sS'warmest'
p552
I1
sS'move'
p553
I4
sS'hit'
p554
I16
sS'tuojiang'
p555
I3
sS'mercy'
p556
I1
sS'sst'
p557
I1
sS'photography'
p558
I1
sS'express'
p559
I1
sS'watch'
p560
I2
sS'geek'
p561
I1
sS'observatory'
p562
I3
sS'notificationchild'
p563
I1
sS'international'
p564
I19
sS'thomson'
p565
I3
sS'spur'
p566
I1
sS'jiamusi'
p567
I3
sS'areas'
p568
I13
sS'liu'
p569
I1
sS'xinjiang'
p570
I3
sS'shu'
p571
I2
sS'countries'
p572
I1
sS'floods'
p573
I39
sS'reprints'
p574
I1
sS'hangzhou'
p575
I1
sS'miles'
p576
I1
sS'inforgot'
p577
I1
sS'source'
p578
I2
sS'qi'
p579
I1
sS'including'
p580
I1
sS'river'
p581
I20
sS'dams'
p582
I4
sS'disaster'
p583
I7
sS'swept'
p584
I1
sS'africasyriathailandtunisiaturkeyunited'
p585
I1
sS'govt'
p586
I1
sS'national'
p587
I2
sS'yangtze'
p588
I4
sS'summer'
p589
I4
sS'aptn'
p590
I1
sS'australia'
p591
I3
sS'officials'
p592
I3
sS'declares'
p593
I1
sS'hell'
p594
I1
sS'afflicted'
p595
I1
sS'close'
p596
I1
sS'brazil'
p597
I1
sS'fails'
p598
I1
sS'spares'
p599
I1
sS'farmers'
p600
I3
sS'hour'
p601
I1
sS'pictures'
p602
I2
sS'review'
p603
I16
sS'wikipedia'
p604
I1
sS'forecast'
p605
I2
sS'mud'
p606
I1
sS'state'
p607
I3
sS'articlesend'
p608
I1
sS'bureau'
p609
I2
sS'incurring'
p610
I1
sS'reading'
p611
I1
sS'thishurricane'
p612
I1
sS'email'
p613
I2
sS'luo'
p614
I1
sS'puyehue'
p615
I1
sS'august'
p616
I1
sS'nationwide'
p617
I1
sS'missing'
p618
I21
sS'qionghai'
p619
I1
sS'focus'
p620
I2
sS'apiplayer'
p621
I1
sS'killing'
p622
I1
sS'cut'
p623
I1
sS'key'
p624
I1
sS'presswire'
p625
I2
sS'police'
p626
I2
sS'evo'
p627
I1
sS'autonomous'
p628
I1
sS'wuhan'
p629
I2
sS'climate'
p630
I5
sS'post'
p631
I2
sS'deals'
p632
I1
sS'region'
p633
I2
sS'macuser'
p634
I1
sS'forced'
p635
I2
sS'tour'
p636
I1
sS'buzz'
p637
I1
sS'sanjiangkou'
p638
I1
sS'torrential'
p639
I7
sS'southeastern'
p640
I1
sS'upgraded'
p641
I1
sS'pakistan'
p642
I4
sS'onemillion'
p643
I1
sS'guangxi'
p644
I1
sS'tianhe'
p645
I3
sS'jinan'
p646
I2
sS'ce'
p647
I1
sS'lake'
p648
I3
sS'adding'
p649
I1
sS'learning'
p650
I1
sS'church'
p651
I1
sS'fukushima'
p652
I1
sS'motionmakerbecome'
p653
I1
sS'ravaged'
p654
I1
sS'expensive'
p655
I1
sS'conference'
p656
I2
sS'late'
p657
I1
sS'provinces'
p658
I8
sS'cities'
p659
I2
sS'videos'
p660
I2
sS'roke'
p661
I1
sS'barry'
p662
I1
sS'create'
p663
I1
sS'bbc'
p664
I1
sS'due'
p665
I2
sS'mark'
p666
I1
sS'tropical'
p667
I2
sS'pc'
p668
I1
sS'trigger'
p669
I1
sS'koreapakistanrussiasomaliasouth'
p670
I1
sS'batter'
p671
I4
sS'expected'
p672
I1
sS'dozens'
p673
I1
sS'pm'
p674
I2
sS'website'
p675
I1
sS'life'
p676
I3
sS'enable'
p677
I1
sS'eastern'
p678
I5
sS'termsterms'
p679
I1
sS'todayinternational'
p680
I3
sS'hits'
p681
I1
sS'al'
p682
I1
sS'orange'
p683
I1
sS'bible'
p684
I1
sS'lives'
p685
I1
sS'chile'
p686
I1
sS'covered'
p687
I1
sS'prices'
p688
I4
sS'stonecutters'
p689
I1
sS'towns'
p690
I1
sS'aid'
p691
I5
sS'plants'
p692
I1
sS'homes'
p693
I3
sS'save'
p694
I2
sS'washington'
p695
I2
sS'mln'
p696
I1
sS'podcasts'
p697
I1
sS'siamese'
p698
I1
sS'texas'
p699
I1
sS'country'
p700
I5
sS'wild'
p701
I1
sS'fleet'
p702
I1
sS'landslide'
p703
I1
sS'flooding'
p704
I11
sS'leaves'
p705
I3
sS'release'
p706
I1
sS'upgrade'
p707
I1
sS'annual'
p708
I1
sS'hunan'
p709
I4
sS'conferences'
p710
I2
sS'mexico'
p711
I1
sS'upfacebook'
p712
I1
sS'strait'
p713
I1
sS'site'
p714
I3
sS'contentcopyright'
p715
I1
sS'middle'
p716
I2
sS'hainan'
p717
I1
sS'experts'
p718
I1
sS'crash'
p719
I1
sS'carbon'
p720
I2
sS'technology'
p721
I1
sS'xihai'
p722
I3
sS'finance'
p723
I1
sS'hong'
p724
I1
sS'century'
p725
I1
sS'kills'
p726
I3
sS'author'
p727
I1
sS'make'
p728
I3
sS'toembedreport'
p729
I1
sS'crops'
p730
I3
sS'member'
p731
I1
sS'parts'
p732
I8
sS'speech'
p733
I1
sS'dam'
p734
I1
sS'vegetable'
p735
I1
sS'party'
p736
I1
sS'terrorism'
p737
I1
sS'couple'
p738
I1
sS'higher'
p739
I1
sS'development'
p740
I2
sS'satellite'
p741
I1
sS'temporary'
p742
I1
sS'shareadd'
p743
I1
sS'flooded'
p744
I2
sS'friends'
p745
I3
sS'yesterday'
p746
I4
sS'rain'
p747
I15
sS'director'
p748
I1
sS'newsgroup'
p749
I1
sS'helped'
p750
I1
sS'levels'
p751
I8
sS'moving'
p752
I1
sS'user'
p753
I3
sS'advertisement'
p754
I2
sS'opinion'
p755
I2
sS'yuan'
p756
I4
sS'cross'
p757
I1
sS'renewable'
p758
I1
sS'recent'
p759
I2
sS'lower'
p760
I2
sS'center'
p761
I3
sS'programs'
p762
I1
sS'fighting'
p763
I2
sS'picks'
p764
I2
sS'person'
p765
I2
sS'severe'
p766
I1
sS'contact'
p767
I4
sS'relief'
p768
I11
sS'english'
p769
I1
sS'claims'
p770
I1
sS'audio'
p771
I1
sS'corporate'
p772
I1
sS'bodies'
p773
I2
sS'latest'
p774
I4
sS'comment'
p775
I7
sS'responsible'
p776
I1
sS'meteorologic'
p777
I1
sS'photo'
p778
I3
sS'brecher'
p779
I1
sS'distribute'
p780
I1
sS'embankments'
p781
I1
sS'sources'
p782
I4
sS'fighters'
p783
I1
sS'kill'
p784
I4
sS'touch'
p785
I1
sS'rushing'
p786
I1
sS'captured'
p787
I1
sS'previous'
p788
I1
sS'depthtoday'
p789
I1
sS'web'
p790
I8
sS'informationprivacy'
p791
I1
sS'death'
p792
I3
sS'songhua'
p793
I3
sS'redistributed'
p794
I1
sS'field'
p795
I1
sS'americas'
p796
I1
sS'flee'
p797
I2
sS'workers'
p798
I5
sS'logged'
p799
I2
sS'wen'
p800
I1
sS'geological'
p801
I1
sS'kingdomvenezuelayemen'
p802
I1
sS'blog'
p803
I1
sS'crocodiles'
p804
I1
sS'spread'
p805
I4
sS'usda'
p806
I1
sS'developments'
p807
I3
sS'delegations'
p808
I1
sS'circumcision'
p809
I1
sS'guizhou'
p810
I2
sS'struck'
p811
I1
sS'carbuyer'
p812
I1
sS'villagers'
p813
I2
sS'tuesday'
p814
I5
sS'careers'
p815
I1
sS'gave'
p816
I1
sS'real'
p817
I1
sS'northeast'
p818
I4
sS'customers'
p819
I1
sS'recycling'
p820
I1
sS'crocodile'
p821
I1
sS'municipal'
p822
I1
sS'emergency'
p823
I1
sS'government'
p824
I16
sS'big'
p825
I1
sS'bid'
p826
I1
sS'delhi'
p827
I1
sS'anhui'
p828
I3
sS'huffpost'
p829
I2
sS'judge'
p830
I3
sS'cape'
p831
I1
sS'password'
p832
I2
sS'precipitation'
p833
I1
sS'mof'
p834
I1
sS'reservoir'
p835
I2
sS'loss'
p836
I3
sS'displaced'
p837
I3
sS'showing'
p838
I1
sS'fined'
p839
I1
sS'pounds'
p840
I1
sS'photoshot'
p841
I1
sS'nanning'
p842
I3
sS'herong'
p843
I3
sS'rainstorms'
p844
I7
sS'crossword'
p845
I1
sS'warned'
p846
I2
sS'expresses'
p847
I1
sS'security'
p848
I4
sS'works'
p849
I1
sS'suppliers'
p850
I8
sS'sitemap'
p851
I3
sS'jazeera'
p852
I1
sS'google'
p853
I2
sS'loudi'
p854
I1
sS'deal'
p855
I3
sS'twitter'
p856
I2
sS'village'
p857
I2
sS'back'
p858
I2
sS'pacific'
p859
I3
sS'cyberport'
p860
I1
sS'economic'
p861
I2
sS'meters'
p862
I2
sS'recommendation'
p863
I2
sS'images'
p864
I1
sS'home'
p865
I11
sS'advertise'
p866
I2
sS'disrupting'
p867
I1
sS'cp'
p868
I1
sS'distribution'
p869
I1
sS'monday'
p870
I4
sS'micro'
p871
I1
sS'affects'
p872
I1
sS'decision'
p873
I1
sS'recorded'
p874
I2
sS'exceeding'
p875
I1
sS'comments'
p876
I6
sS'competitions'
p877
I1
sS'religion'
p878
I2
sS'arrest'
p879
I3
sS'provider'
p880
I1
sS'icp'
p881
I1
sS'drenches'
p882
I1
sS'disasters'
p883
I3
sS'pr'
p884
I1
sS'decline'
p885
I1
sS'seconds'
p886
I1
sS'marketing'
p887
I1
sS'journal'
p888
I1
sS'arts'
p889
I1
sS'hubei'
p890
I7
sS'wujiang'
p891
I3
sS'found'
p892
I1
sS'article'
p893
I2
sS'usadvertiseterms'
p894
I1
sS'counties'
p895
I3
sS'stage'
p896
I1
sS'chilean'
p897
I1
sS'working'
p898
I1
sS'stations'
p899
I4
sS'huaihe'
p900
I3
sS'island'
p901
I2
sS'dollars'
p902
I1
sS'powered'
p903
I2
sS'shipping'
p904
I1
sS'page'
p905
I18
sS'angeles'
p906
I1
sS'stricken'
p907
I1
sS'andes'
p908
I1
sS'afternoon'
p909
I1
sS'underway'
p910
I1
sS'urges'
p911
I1
sS'efforts'
p912
I1
sS'tributary'
p913
I2
sS'irishman'
p914
I1
sS'silence'
p915
I1
sS'xu'
p916
I1
sS'el'
p917
I3
sS'civil'
p918
I3
sS'mudflows'
p919
I1
sS'image'
p920
I1
sS'townships'
p921
I1
sS'refines'
p922
I1
sS'higos'
p923
I1
sS'explain'
p924
I1
sS'rapid'
p925
I1
sS'homeless'
p926
I1
sS'liaoning'
p927
I3
sS'bariloche'
p928
I1
sS'ahmadinejad'
p929
I1
sS'mississippi'
p930
I1
sS'lashes'
p931
I1
sS'area'
p932
I2
sS'weekend'
p933
I1
sS'support'
p934
I1
sS'improvement'
p935
I1
sS'gallery'
p936
I1
sS'christian'
p937
I1
sS'low'
p938
I1
sS'biggest'
p939
I2
sS'manager'
p940
I1
sS'picturesin'
p941
I1
sS'telegraph'
p942
I1
sS'mountains'
p943
I1
sS'north'
p944
I6
sS'ireland'
p945
I1
sS'inches'
p946
I1
sS'registered'
p947
I1
sS'evacuate'
p948
I1
sS'xinhua'
p949
I18
sS'fisheries'
p950
I1
sS'construction'
p951
I1
sS'skip'
p952
I5
sS'dead'
p953
I15
sS'solar'
p954
I1
sS'weihe'
p955
I5
sS'boat'
p956
I1
sS'removed'
p957
I2
sS'drench'
p958
I1
sS'posted'
p959
I2
sS'october'
p960
I1
sS'full'
p961
I2
sS'wenzhou'
p962
I1
sS'record'
p963
I1
sS'weinan'
p964
I1
sS'stories'
p965
I4
sS'severely'
p966
I1
sS'average'
p967
I1
sS'cbc'
p968
I1
sS'irish'
p969
I1
sS'qiongzhou'
p970
I1
sS'money'
p971
I2
sS'links'
p972
I2
sS'deaths'
p973
I1
sS'moved'
p974
I1
sS'accessibility'
p975
I2
sS'pig'
p976
I1
sS'ap'
p977
I1
sS'britain'
p978
I1
sS'reservoirs'
p979
I1
sS'archive'
p980
I1
sS'zhejiang'
p981
I10
sS'rainy'
p982
I1
sS'swirls'
p983
I1
sS'rains'
p984
I15
sS'deadly'
p985
I3
sS'alerts'
p986
I1
sS'uranium'
p987
I1
sS'ne'
p988
I1
sS'changjiang'
p989
I3
sS'nanyang'
p990
I3
sS'club'
p991
I1
sS'conditions'
p992
I2
sS'digital'
p993
I3
sS'department'
p994
I2
sS'developers'
p995
I1
sS'shenzhen'
p996
I1
sS'picture'
p997
I1
sS'elements'
p998
I1
sS'usblogfacebooktwitter'
p999
I1
sS'zhou'
p1000
I1
sS'students'
p1001
I1
sS'gas'
p1002
I1
sS'june'
p1003
I9
sS'loading'
p1004
I2
sS'realclearworld'
p1005
I1
sS'peak'
p1006
I2
sS'coverage'
p1007
I2
sS'authorities'
p1008
I2
sS'presidential'
p1009
I4
sS'sides'
p1010
I1
sS'inregister'
p1011
I1
sS'mudslide'
p1012
I3
sS'ago'
p1013
I1
sS'blogs'
p1014
I1
sS'fears'
p1015
I4
sS'emailpasswordkeep'
p1016
I1
sS'bombed'
p1017
I1
sS'liangyu'
p1018
I1
sS'text'
p1019
I1
sS'time'
p1020
I1
sS'push'
p1021
I1
sS'debate'
p1022
I4
stp1023
Rp1024
sS'_bins'
p1025
I2055
sS'_divisor'
p1026
F3406.5
sbs(g8
g12
tp1027
g0
(g14
g2
Ntp1028
Rp1029
(dp1030
g18
F0.5
sg19
I3198
sg20
g21
((dp1031
S'aided'
p1032
I1
sS'gadhafi'
p1033
I2
sS'influenza'
p1034
I1
sS'forget'
p1035
I1
sS'founder'
p1036
I1
sS'limited'
p1037
I2
sS'dynamic'
p1038
I1
sS'kinyarwanda'
p1039
I1
sS'month'
p1040
I1
sS'facilities'
p1041
I3
sS'protest'
p1042
I2
sS'browsers'
p1043
I1
sS'pty'
p1044
I1
sS'talks'
p1045
I1
sS'follow'
p1046
I2
sS'religious'
p1047
I1
sS'children'
p1048
I5
sS'likerecommendconfirmyou'
p1049
I3
sS'semiconductor'
p1050
I1
sS'votes'
p1051
I1
sS'therapeutics'
p1052
I1
sS'chinese'
p1053
I5
sS'aug'
p1054
I5
sS'auckland'
p1055
I1
sS'electricity'
p1056
I2
sS'opportunities'
p1057
I3
sS'removal'
p1058
I1
sS'multiview'
p1059
I1
sS'program'
p1060
I2
sS'swap'
p1061
I1
sS'smile'
p1062
I1
sS'homepage'
p1063
I1
sS'mandela'
p1064
I1
sS'activities'
p1065
I1
sS'updated'
p1066
I22
sS'risk'
p1067
I3
sS'song'
p1068
I1
sS'dollar'
p1069
I2
sS'rise'
p1070
I1
sS'rogue'
p1071
I1
sS'updates'
p1072
I3
sS'fall'
p1073
I2
sS'ticker'
p1074
I1
sS'school'
p1075
I2
sS'alma'
p1076
I1
sS'stimulus'
p1077
I1
sS'pinch'
p1078
I1
sS'celebrity'
p1079
I17
sS'elevance'
p1080
I1
sS'companies'
p1081
I3
sS'wednesday'
p1082
I2
sS'sliding'
p1083
I1
sS'monsanto'
p1084
I1
sS'saudi'
p1085
I1
sS'small'
p1086
I21
sS'enrollment'
p1087
I1
sS'tirec'
p1088
I1
sS'cookies'
p1089
I1
sS'tel'
p1090
I1
sS'leaders'
p1091
I4
sS'miller'
p1092
I1
sS'warns'
p1093
I2
sS'todayinternational'
p1094
I24
sS'commentadmin'
p1095
I3
sS'rate'
p1096
I2
sS'street'
p1097
I1
sS'design'
p1098
I3
sS'lawyer'
p1099
I1
sS'markets'
p1100
I5
sS'investment'
p1101
I3
sS'returned'
p1102
I1
sS'blue'
p1103
I1
sS'sue'
p1104
I1
sS'hide'
p1105
I1
sS'preferences'
p1106
I1
sS'investing'
p1107
I3
sS'anniversary'
p1108
I1
sS'supplied'
p1109
I1
sS'abu'
p1110
I1
sS'tips'
p1111
I1
sS'kutcher'
p1112
I17
sS'public'
p1113
I3
sS'told'
p1114
I1
sS'full'
p1115
I1
sS'healthcare'
p1116
I5
sS'statehood'
p1117
I1
sS'men'
p1118
I3
sS'affiliates'
p1119
I2
sS'hours'
p1120
I1
sS'reported'
p1121
I1
sS'operating'
p1122
I1
sS'ethanol'
p1123
I1
sS'palin'
p1124
I1
sS'strong'
p1125
I1
sS'valu'
p1126
I1
sS'celebration'
p1127
I1
sS'search'
p1128
I14
sS'rcsc'
p1129
I1
sS'elaborate'
p1130
I1
sS'icons'
p1131
I1
sS'reports'
p1132
I3
sS'pics'
p1133
I1
sS'paris'
p1134
I1
sS'advertising'
p1135
I1
sS'social'
p1136
I7
sS'military'
p1137
I2
sS'options'
p1138
I1
sS'york'
p1139
I3
sS'shanghai'
p1140
I1
sS'campaign'
p1141
I2
sS'semiconductors'
p1142
I1
sS'mexican'
p1143
I2
sS'county'
p1144
I2
sS'visible'
p1145
I1
sS'pataudi'
p1146
I1
sS'thursday'
p1147
I3
sS'soybean'
p1148
I1
sS'total'
p1149
I2
sS'unit'
p1150
I1
sS'sarah'
p1151
I1
sS'shareholders'
p1152
I1
sS'sanjay'
p1153
I1
sS'petroleum'
p1154
I1
sS'arms'
p1155
I1
sS'plog'
p1156
I1
sS'music'
p1157
I2
sS'recommend'
p1158
I5
sS'glaxo'
p1159
I1
sS'indiana'
p1160
I3
sS'preview'
p1161
I1
sS'type'
p1162
I1
sS'minor'
p1163
I1
sS'teen'
p1164
I1
sS'optionsconnect'
p1165
I1
sS'company'
p1166
I3
sS'emission'
p1167
I1
sS'radioblenden'
p1168
I1
sS'phone'
p1169
I1
sS'flag'
p1170
I1
sS'gold'
p1171
I1
sS'hold'
p1172
I2
sS'kumar'
p1173
I1
sS'lilly'
p1174
I1
sS'join'
p1175
I3
sS'bowman'
p1176
I1
sS'hour'
p1177
I1
sS'crest'
p1178
I1
sS'work'
p1179
I1
sS'entertainment'
p1180
I18
sS'plunges'
p1181
I1
sS'history'
p1182
I1
sS'scam'
p1183
I1
sS'estate'
p1184
I3
sS'india'
p1185
I9
sS'khmer'
p1186
I1
sS'collision'
p1187
I1
sS'currency'
p1188
I1
sS'foods'
p1189
I1
sS'numbers'
p1190
I1
sS'scrollbars'
p1191
I1
sS'worse'
p1192
I1
sS'huge'
p1193
I2
sS'tornadoes'
p1194
I1
sS'end'
p1195
I1
sS'provide'
p1196
I2
sS'plans'
p1197
I3
sS'breaking'
p1198
I16
sS'magpie'
p1199
I1
sS'badgenominate'
p1200
I1
sS'hot'
p1201
I1
sS'answer'
p1202
I1
sS'symposium'
p1203
I2
sS'beach'
p1204
I1
sS'charging'
p1205
I1
sS'gamble'
p1206
I1
sS'closethe'
p1207
I1
sS'plant'
p1208
I6
sS'elizabeth'
p1209
I1
sS'emoticons'
p1210
I1
sS'alibaba'
p1211
I1
sS'barriers'
p1212
I1
sS'documentheight'
p1213
I1
sS'blood'
p1214
I2
sS'president'
p1215
I8
sS'law'
p1216
I3
sS'lesbian'
p1217
I1
sS'short'
p1218
I2
sS'wins'
p1219
I1
sS'exhibition'
p1220
I4
sS'bator'
p1221
I1
sS'green'
p1222
I17
sS'enter'
p1223
I2
sS'chandon'
p1224
I1
sS'redirecting'
p1225
I1
sS'wind'
p1226
I4
sS'mps'
p1227
I3
sS'operations'
p1228
I2
sS'executed'
p1229
I2
sS'beihai'
p1230
I1
sS'september'
p1231
I5
sS'consent'
p1232
I1
sS'azerbaijan'
p1233
I1
sS'murray'
p1234
I1
sS'indiaindiatimes'
p1235
I1
sS'held'
p1236
I1
sS'thermal'
p1237
I1
sS'embassy'
p1238
I1
sS'london'
p1239
I2
sS'committee'
p1240
I1
sS'keyboard'
p1241
I1
sS'urdu'
p1242
I1
sS'japan'
p1243
I5
sS'turbine'
p1244
I1
sS'biofuels'
p1245
I1
sS'developer'
p1246
I1
sS'style'
p1247
I18
sS'imf'
p1248
I2
sS'personal'
p1249
I2
sS'highlights'
p1250
I1
sS'fix'
p1251
I2
sS'bangla'
p1252
I1
sS'denver'
p1253
I19
sS'writing'
p1254
I1
sS'usersubscribe'
p1255
I1
sS'production'
p1256
I2
sS'systems'
p1257
I2
sS'hidden'
p1258
I1
sS'cree'
p1259
I1
sS'prius'
p1260
I2
sS'coffee'
p1261
I1
sS'iowa'
p1262
I1
sS'ceo'
p1263
I2
sS'geopolitical'
p1264
I8
sS'starbucks'
p1265
I1
sS'versandkosten'
p1266
I1
sS'schools'
p1267
I1
sS'bollywood'
p1268
I1
sS'silver'
p1269
I1
sS'bank'
p1270
I6
sS'gloom'
p1271
I1
sS'sanya'
p1272
I1
sS'debut'
p1273
I1
sS'rocks'
p1274
I1
sS'token'
p1275
I1
sS'fitness'
p1276
I1
sS'monsoon'
p1277
I1
sS'found'
p1278
I2
sS'heavy'
p1279
I1
sS'week'
p1280
I4
sS'financial'
p1281
I3
sS'chevron'
p1282
I2
sS'generation'
p1283
I1
sS'list'
p1284
I19
sS'fish'
p1285
I1
sS'reduce'
p1286
I1
sS'spider'
p1287
I1
sS'solution'
p1288
I1
sS'trading'
p1289
I2
sS'advertisers'
p1290
I1
sS'veracruz'
p1291
I1
sS'saturday'
p1292
I1
sS'perry'
p1293
I2
sS'network'
p1294
I1
sS'rs'
p1295
I2
sS'quality'
p1296
I1
sS'sms'
p1297
I2
sS'research'
p1298
I11
sS'content'
p1299
I2
sS'encourage'
p1300
I1
sS'health'
p1301
I7
sS'reader'
p1302
I1
sS'engineer'
p1303
I1
sS'gop'
p1304
I2
sS'lesbians'
p1305
I1
sS'foundation'
p1306
I1
sS'rabbani'
p1307
I1
sS'friday'
p1308
I1
sS'houses'
p1309
I1
sS'unique'
p1310
I1
sS'retained'
p1311
I1
sS'launch'
p1312
I1
sS'starts'
p1313
I2
sS'americas'
p1314
I1
sS'creates'
p1315
I1
sS'pact'
p1316
I1
sS'american'
p1317
I4
sS'transexpo'
p1318
I3
sS'purpose'
p1319
I2
sS'feed'
p1320
I1
sS'encoding'
p1321
I1
sS'number'
p1322
I1
sS'rant'
p1323
I1
sS'featured'
p1324
I2
sS'customization'
p1325
I1
sS'passes'
p1326
I2
sS'story'
p1327
I1
sS'top'
p1328
I10
sS'attack'
p1329
I2
sS'antiques'
p1330
I1
sS'checkpoint'
p1331
I1
sS'needed'
p1332
I1
sS'station'
p1333
I1
sS'rates'
p1334
I2
sS'stock'
p1335
I1
sS'tea'
p1336
I1
sS'farming'
p1337
I1
sS'larkin'
p1338
I1
sS'dentist'
p1339
I1
sS'typhoon'
p1340
I2
sS'newswire'
p1341
I22
sS'walid'
p1342
I1
sS'toronto'
p1343
I1
sS'synergy'
p1344
I1
sS'facebooklikeconfirmyou'
p1345
I1
sS'double'
p1346
I1
sS'tree'
p1347
I1
sS'nations'
p1348
I1
sS'project'
p1349
I4
sS'expo'
p1350
I1
sS'treated'
p1351
I1
sS'builder'
p1352
I1
sS'fashion'
p1353
I1
sS'navigate'
p1354
I1
sS'souris'
p1355
I1
sS'iii'
p1356
I1
sS'macaulay'
p1357
I1
sS'macao'
p1358
I1
sS'mountain'
p1359
I2
sS'responsible'
p1360
I1
sS'snow'
p1361
I1
sS'click'
p1362
I4
sS'materials'
p1363
I1
sS'build'
p1364
I2
sS'electric'
p1365
I3
sS'index'
p1366
I1
sS'iceland'
p1367
I1
sS'approves'
p1368
I1
sS'object'
p1369
I1
sS'reach'
p1370
I2
sS'gt'
p1371
I1
sS'germany'
p1372
I1
sS'plan'
p1373
I3
sS'letter'
p1374
I1
sS'entry'
p1375
I1
sS'phase'
p1376
I1
sS'prestige'
p1377
I1
sS'tibetan'
p1378
I1
sS'bridgestone'
p1379
I1
sS'rogers'
p1380
I1
sS'emailing'
p1381
I1
sS'medical'
p1382
I6
sS'humanitarian'
p1383
I1
sS'displayedshare'
p1384
I1
sS'points'
p1385
I1
sS'tech'
p1386
I18
sS'clean'
p1387
I1
sS'jordan'
p1388
I1
sS'dow'
p1389
I1
sS'silber'
p1390
I1
sS'strange'
p1391
I1
sS'golf'
p1392
I1
sS'pope'
p1393
I2
sS'hunger'
p1394
I1
sS'visitor'
p1395
I1
sS'probe'
p1396
I1
sS'religions'
p1397
I1
sS'businesses'
p1398
I1
sS'solutions'
p1399
I1
sS'facebookpost'
p1400
I1
sS'participate'
p1401
I1
sS'entity'
p1402
I1
sS'headlines'
p1403
I1
sS'nevada'
p1404
I1
sS'find'
p1405
I1
sS'unfuckable'
p1406
I1
sS'impact'
p1407
I18
sS'cell'
p1408
I1
sS'northeast'
p1409
I1
sS'copyright'
p1410
I1
sS'menu'
p1411
I1
sS'guidance'
p1412
I1
sS'pageinsightserroryou'
p1413
I4
sS'kessler'
p1414
I1
sS'bush'
p1415
I1
sS'rick'
p1416
I1
sS'factor'
p1417
I1
sS'integrate'
p1418
I2
sS'columns'
p1419
I3
sS'exports'
p1420
I1
sS'dj'
p1421
I1
sS'gains'
p1422
I1
sS'inregister'
p1423
I1
sS'honda'
p1424
I1
sS'stop'
p1425
I1
sS'dc'
p1426
I17
sS'breast'
p1427
I3
sS'silk'
p1428
I1
sS'societies'
p1429
I1
sS'xiamen'
p1430
I1
sS'motorcycles'
p1431
I1
sS'weihai'
p1432
I1
sS'fields'
p1433
I1
sS'banking'
p1434
I1
sS'investigate'
p1435
I1
sS'common'
p1436
I1
sS'activity'
p1437
I2
sS'ban'
p1438
I2
sS'river'
p1439
I1
sS'gigaom'
p1440
I1
sS'set'
p1441
I2
sS'art'
p1442
I1
sS'disaster'
p1443
I1
sS'fair'
p1444
I1
sS'backtrack'
p1445
I1
sS'naked'
p1446
I2
sS'testing'
p1447
I1
sS'sex'
p1448
I2
sS'individual'
p1449
I1
sS'sea'
p1450
I1
sS'close'
p1451
I2
sS'subject'
p1452
I1
sS'brazil'
p1453
I2
sS'voyage'
p1454
I1
sS'capacity'
p1455
I1
sS'banks'
p1456
I2
sS'visiting'
p1457
I1
sS'pictures'
p1458
I3
sS'registration'
p1459
I1
sS'woo'
p1460
I1
sS'marriage'
p1461
I1
sS'conditions'
p1462
I1
sS'popup'
p1463
I1
sS'terms'
p1464
I1
sS'nationwide'
p1465
I1
sS'zhengzhou'
p1466
I1
sS'sole'
p1467
I1
sS'disallow'
p1468
I1
sS'incident'
p1469
I1
sS'cut'
p1470
I2
sS'windows'
p1471
I1
sS'pepsi'
p1472
I1
sS'presswire'
p1473
I11
sS'league'
p1474
I1
sS'restaurant'
p1475
I1
sS'country'
p1476
I2
sS'adapter'
p1477
I1
sS'annual'
p1478
I2
sS'heating'
p1479
I1
sS'foreign'
p1480
I3
sS'connection'
p1481
I1
sS'faces'
p1482
I1
sS'requests'
p1483
I1
sS'blackvoices'
p1484
I17
sS'insurance'
p1485
I1
sS'supply'
p1486
I2
sS'simple'
p1487
I3
sS'kilometers'
p1488
I1
sS'community'
p1489
I1
sS'improper'
p1490
I1
sS'initiative'
p1491
I1
sS'chahine'
p1492
I1
sS'conference'
p1493
I3
sS'decline'
p1494
I1
sS'brics'
p1495
I1
sS'create'
p1496
I3
sS'political'
p1497
I1
sS'pc'
p1498
I1
sS'change'
p1499
I1
sS'ireland'
p1500
I2
sS'boston'
p1501
I1
sS'extends'
p1502
I1
sS'pro'
p1503
I1
sS'board'
p1504
I1
sS'website'
p1505
I1
sS'life'
p1506
I2
sS'gay'
p1507
I2
sS'drugs'
p1508
I2
sS'gas'
p1509
I8
sS'transatlantic'
p1510
I1
sS'fund'
p1511
I1
sS'understand'
p1512
I1
sS'child'
p1513
I1
sS'prices'
p1514
I3
sS'plants'
p1515
I2
sS'marvell'
p1516
I1
sS'launches'
p1517
I4
sS'socialist'
p1518
I1
sS'bill'
p1519
I2
sS'radiohalterung'
p1520
I1
sS'match'
p1521
I1
sS'fleet'
p1522
I1
sS'property'
p1523
I4
sS'study'
p1524
I5
sS'kingdom'
p1525
I1
sS'mailitimes'
p1526
I1
sS'voa'
p1527
I1
sS'voters'
p1528
I1
sS'motors'
p1529
I1
sS'player'
p1530
I1
sS'ready'
p1531
I1
sS'id'
p1532
I1
sS'disappear'
p1533
I1
sS'hong'
p1534
I2
sS'credit'
p1535
I2
sS'make'
p1536
I2
sS'government'
p1537
I5
sS'linked'
p1538
I1
sS'cdc'
p1539
I2
sS'spears'
p1540
I1
sS'european'
p1541
I1
sS'development'
p1542
I2
sS'dhabi'
p1543
I1
sS'rain'
p1544
I1
sS'user'
p1545
I2
sS'characters'
p1546
I1
sS'euro'
p1547
I2
sS'programs'
p1548
I2
sS'failing'
p1549
I1
sS'picks'
p1550
I12
sS'contact'
p1551
I2
sS'organization'
p1552
I1
sS'gsk'
p1553
I1
sS'settimeout'
p1554
I1
sS'investments'
p1555
I1
sS'left'
p1556
I1
sS'opinions'
p1557
I1
sS'cave'
p1558
I1
sS'photo'
p1559
I3
sS'distribute'
p1560
I1
sS'shareswashington'
p1561
I1
sS'macedonian'
p1562
I1
sS'fighters'
p1563
I2
sS'ganzhou'
p1564
I1
sS'identify'
p1565
I1
sS'human'
p1566
I1
sS'alternative'
p1567
I1
sS'apple'
p1568
I1
sS'swahili'
p1569
I1
sS'loading'
p1570
I17
sS'family'
p1571
I2
sS'tablet'
p1572
I1
sS'cup'
p1573
I2
sS'lady'
p1574
I1
sS'advertisements'
p1575
I1
sS'anova'
p1576
I1
sS'signals'
p1577
I1
sS'governmental'
p1578
I1
sS'hyperlinks'
p1579
I1
sS'parents'
p1580
I17
sS'location'
p1581
I1
sS'monday'
p1582
I1
sS'contestant'
p1583
I1
sS'save'
p1584
I1
sS'submissions'
p1585
I1
sS'remaining'
p1586
I1
sS'australia'
p1587
I7
sS'dailymotion'
p1588
I1
sS'format'
p1589
I2
sS'big'
p1590
I1
sS'bid'
p1591
I1
sS'kyrgyzstan'
p1592
I1
sS'game'
p1593
I1
sS'celebrates'
p1594
I1
sS'private'
p1595
I2
sS'cape'
p1596
I1
sS'commas'
p1597
I1
sS'designers'
p1598
I1
sS'bis'
p1599
I1
sS'projects'
p1600
I1
sS'alimta'
p1601
I1
sS'miptec'
p1602
I1
sS'mansions'
p1603
I1
sS'toyota'
p1604
I3
sS'specific'
p1605
I1
sS'collect'
p1606
I1
sS'popular'
p1607
I3
sS'security'
p1608
I3
sS'nanning'
p1609
I1
sS'google'
p1610
I2
sS'deal'
p1611
I2
sS'back'
p1612
I2
sS'economic'
p1613
I3
sS'pricing'
p1614
I1
sS'pain'
p1615
I1
sS'pollthe'
p1616
I1
sS'singing'
p1617
I1
sS'benefit'
p1618
I1
sS'comments'
p1619
I4
sS'creative'
p1620
I1
sS'religion'
p1621
I17
sS'todayelectric'
p1622
I1
sS'select'
p1623
I2
sS'taiwans'
p1624
I1
sS'proactivediv'
p1625
I1
sS'marketing'
p1626
I2
sS'corn'
p1627
I1
sS'lose'
p1628
I1
sS'agreement'
p1629
I2
sS'metastatic'
p1630
I1
sS'bp'
p1631
I2
sS'confrontation'
p1632
I1
sS'losing'
p1633
I1
sS'post'
p1634
I9
sS'manufacturing'
p1635
I3
sS'vaccine'
p1636
I1
sS'tyres'
p1637
I1
sS'pipeline'
p1638
I1
sS'goods'
p1639
I1
sS'pepsico'
p1640
I1
sS'parenting'
p1641
I1
sS'attacks'
p1642
I2
sS'beijing'
p1643
I1
sS'livingsocial'
p1644
I1
sS'clinton'
p1645
I1
sS'colorado'
p1646
I1
sS'facility'
p1647
I1
sS'civil'
p1648
I1
sS'hometown'
p1649
I1
sS'intellectual'
p1650
I2
sS'tribune'
p1651
I1
sS'raises'
p1652
I1
sS'ezchip'
p1653
I1
sS'lashes'
p1654
I1
sS'spam'
p1655
I1
sS'support'
p1656
I2
sS'class'
p1657
I1
sS'pharmaceuticals'
p1658
I1
sS'vendors'
p1659
I1
sS'clinical'
p1660
I1
sS'editor'
p1661
I12
sS'war'
p1662
I2
sS'files'
p1663
I1
sS'peru'
p1664
I1
sS'etropole'
p1665
I1
sS'pollster'
p1666
I17
sS'specialty'
p1667
I1
sS'wireless'
p1668
I1
sS'cloud'
p1669
I1
sS'link'
p1670
I1
sS'lows'
p1671
I1
sS'survive'
p1672
I1
sS'russian'
p1673
I2
sS'line'
p1674
I1
sS'posted'
p1675
I2
sS'fda'
p1676
I1
sS'dailymotionunited'
p1677
I1
sS'injury'
p1678
I1
sS'assessment'
p1679
I1
sS'inside'
p1680
I2
sS'access'
p1681
I2
sS'planet'
p1682
I1
sS'mobile'
p1683
I4
sS'uk'
p1684
I23
sS'similar'
p1685
I1
sS'called'
p1686
I1
sS'doclose'
p1687
I1
sS'midwest'
p1688
I3
sS'agodana'
p1689
I1
sS'chat'
p1690
I1
sS'check'
p1691
I2
sS'ni'
p1692
I1
sS'contests'
p1693
I1
sS'inflation'
p1694
I1
sS'peace'
p1695
I1
sS'fears'
p1696
I1
sS'actor'
p1697
I1
sS'flood'
p1698
I1
sS'setting'
p1699
I1
sS'republic'
p1700
I1
sS'digital'
p1701
I11
sS'test'
p1702
I1
sS'ns'
p1703
I1
sS'picture'
p1704
I1
sS'nutrastar'
p1705
I1
sS'users'
p1706
I3
sS'thefts'
p1707
I1
sS'update'
p1708
I2
sS'drag'
p1709
I1
sS'eval'
p1710
I1
sS'authorities'
p1711
I1
sS'billion'
p1712
I4
sS'ge'
p1713
I3
sS'vice'
p1714
I1
sS'vehicles'
p1715
I1
sS'turbines'
p1716
I1
sS'twitterplease'
p1717
I1
sS'microsoft'
p1718
I1
sS'time'
p1719
I1
sS'fresh'
p1720
I1
sS'moveit'
p1721
I1
sS'concept'
p1722
I1
sS'strengthened'
p1723
I1
sS'global'
p1724
I21
sS'focus'
p1725
I1
sS'leads'
p1726
I1
sS'farms'
p1727
I1
sS'selection'
p1728
I1
sS'skin'
p1729
I2
sS'query'
p1730
I1
sS'gm'
p1731
I5
sS'issues'
p1732
I1
sS'row'
p1733
I1
sS'contacted'
p1734
I1
sS'zone'
p1735
I1
sS'turkish'
p1736
I3
sS'graph'
p1737
I1
sS'flash'
p1738
I1
sS'editors'
p1739
I2
sS'send'
p1740
I2
sS'charge'
p1741
I4
sS'outlooks'
p1742
I1
sS'helps'
p1743
I1
sS'marks'
p1744
I2
sS'terror'
p1745
I1
sS'breach'
p1746
I1
sS'include'
p1747
I1
sS'goodyear'
p1748
I1
sS'scarlett'
p1749
I1
sS'southwest'
p1750
I1
sS'paychecks'
p1751
I1
sS'federation'
p1752
I1
sS'zhang'
p1753
I1
sS'automotive'
p1754
I3
sS'facebook'
p1755
I5
sS'displayedplease'
p1756
I1
sS'governments'
p1757
I1
sS'timely'
p1758
I1
sS'aggressively'
p1759
I1
sS'din'
p1760
I1
sS'clouds'
p1761
I1
sS'stiff'
p1762
I1
sS'die'
p1763
I1
sS'button'
p1764
I1
sS'posts'
p1765
I2
sS'yangzhou'
p1766
I1
sS'keepers'
p1767
I1
sS'standards'
p1768
I1
sS'bikers'
p1769
I1
sS'denounces'
p1770
I1
sS'defaults'
p1771
I1
sS'team'
p1772
I2
sS'quick'
p1773
I1
sS'obesity'
p1774
I1
sS'alfa'
p1775
I1
sS'tougher'
p1776
I1
sS'sign'
p1777
I1
sS'jump'
p1778
I1
sS'glaxosmithkline'
p1779
I1
sS'crescent'
p1780
I1
sS'picked'
p1781
I1
sS'documentwidth'
p1782
I1
sS'makers'
p1783
I1
sS'onsign'
p1784
I1
sS'universities'
p1785
I1
sS'afghanistan'
p1786
I2
sS'giving'
p1787
I1
sS'disease'
p1788
I2
sS'shares'
p1789
I2
sS'current'
p1790
I1
sS'consistently'
p1791
I1
sS'indian'
p1792
I1
sS'chickpeas'
p1793
I1
sS'capital'
p1794
I1
sS'international'
p1795
I4
sS'appeal'
p1796
I1
sS'badge'
p1797
I1
sS'dental'
p1798
I2
sS'hairy'
p1799
I1
sS'exchange'
p1800
I1
sS'guangzhou'
p1801
I3
sS'commercial'
p1802
I2
sS'water'
p1803
I1
sS'objects'
p1804
I1
sS'web'
p1805
I2
sS'groups'
p1806
I1
sS'address'
p1807
I1
sS'apache'
p1808
I1
sS'toolbar'
p1809
I1
sS'box'
p1810
I1
sS'boy'
p1811
I1
sS'camry'
p1812
I1
sS'northern'
p1813
I3
sS'canadian'
p1814
I1
sS'healthy'
p1815
I17
sS'mclaren'
p1816
I1
sS'analitica'
p1817
I3
sS'products'
p1818
I6
sS'replycharacters'
p1819
I1
sS'residents'
p1820
I1
sS'gene'
p1821
I1
sS'makes'
p1822
I1
sS'maker'
p1823
I1
sS'examining'
p1824
I1
sS'teenage'
p1825
I1
sS'firefox'
p1826
I1
sS'addresses'
p1827
I1
sS'ipd'
p1828
I14
sS'extra'
p1829
I1
sS'egypt'
p1830
I1
sS'app'
p1831
I3
sS'ethiopian'
p1832
I1
sS'ipo'
p1833
I1
sS'nanjing'
p1834
I1
sS'outcomes'
p1835
I1
sS'kayak'
p1836
I1
sS'api'
p1837
I1
sS'motor'
p1838
I1
sS'festivals'
p1839
I1
sS'tools'
p1840
I1
sS'crisis'
p1841
I1
sS'market'
p1842
I8
sS'red'
p1843
I2
sS'standing'
p1844
I1
sS'fed'
p1845
I3
sS'links'
p1846
I1
sS'usa'
p1847
I1
sS'allget'
p1848
I2
sS'angry'
p1849
I1
sS'angela'
p1850
I1
sS'sports'
p1851
I19
sS'live'
p1852
I3
sS'camera'
p1853
I1
sS'chu'
p1854
I1
sS'https'
p1855
I1
sS'vehicle'
p1856
I1
sS'dentists'
p1857
I1
sS'share'
p1858
I3
sS'fuel'
p1859
I1
sS'dentistry'
p1860
I1
sS'cases'
p1861
I1
sS'effort'
p1862
I1
sS'silberalfa'
p1863
I1
sS'women'
p1864
I19
sS'fly'
p1865
I1
sS'high'
p1866
I2
sS'account'
p1867
I2
sS'tokyo'
p1868
I1
sS'alterra'
p1869
I1
sS'thousands'
p1870
I2
sS'ride'
p1871
I1
sS'facilitating'
p1872
I1
sS'flu'
p1873
I1
sS'halt'
p1874
I1
sS'recession'
p1875
I2
sS'cam'
p1876
I1
sS'drops'
p1877
I1
sS'control'
p1878
I2
sS'claim'
p1879
I1
sS'tap'
p1880
I2
sS'stream'
p1881
I1
sS'process'
p1882
I1
sS'newsletters'
p1883
I1
sS'tax'
p1884
I1
sS'purposes'
p1885
I1
sS'promotional'
p1886
I1
sS'topic'
p1887
I11
sS'stroke'
p1888
I1
sS'tab'
p1889
I1
sS'allowed'
p1890
I1
sS'hit'
p1891
I1
sS'pink'
p1892
I1
sS'monitoring'
p1893
I36
sS'winter'
p1894
I1
sS'chevrolet'
p1895
I1
sS'delay'
p1896
I1
sS'economy'
p1897
I6
sS'profile'
p1898
I1
sS'caucasian'
p1899
I1
sS'mar'
p1900
I1
sS'information'
p1901
I3
sS'farm'
p1902
I2
sS'watch'
p1903
I1
sS'highs'
p1904
I1
sS'aol'
p1905
I17
sS'southern'
p1906
I11
sS'mac'
p1907
I1
sS'produce'
p1908
I1
sS'timer'
p1909
I1
sS'drastic'
p1910
I1
sS'mak'
p1911
I1
sS'data'
p1912
I4
sS'todayfood'
p1913
I19
sS'man'
p1914
I2
sS'branches'
p1915
I1
sS'displayedwill'
p1916
I1
sS'thissign'
p1917
I3
sS'mango'
p1918
I2
sS'truck'
p1919
I2
sS'african'
p1920
I3
sS'ulan'
p1921
I1
sS'aiken'
p1922
I1
sS'canberra'
p1923
I1
sS'blocker'
p1924
I1
sS'anthrazit'
p1925
I1
sS'move'
p1926
I2
sS'reaffirms'
p1927
I1
sS'kong'
p1928
I3
sS'including'
p1929
I1
sS'motorcycle'
p1930
I1
sS'cuts'
p1931
I2
sS'kanye'
p1932
I1
sS'birds'
p1933
I1
sS'warren'
p1934
I1
sS'traders'
p1935
I1
sS'revived'
p1936
I1
sS'conjunction'
p1937
I1
sS'police'
p1938
I2
sS'acknowledge'
p1939
I2
sS'jim'
p1940
I1
sS'platform'
p1941
I1
sS'window'
p1942
I3
sS'tyler'
p1943
I1
sS'choose'
p1944
I3
sS'wuyi'
p1945
I1
sS'farmer'
p1946
I1
sS'policy'
p1947
I8
sS'therefor'
p1948
I1
sS'techcrunch'
p1949
I17
sS'texas'
p1950
I1
sS'noi'
p1951
I1
sS'auto'
p1952
I1
sS'questions'
p1953
I2
sS'material'
p1954
I1
sS'evacuation'
p1955
I1
sS'nation'
p1956
I1
sS'taliban'
p1957
I1
sS'drilling'
p1958
I1
sS'safari'
p1959
I1
sS'das'
p1960
I1
sS'front'
p1961
I1
sS'flee'
p1962
I1
sS'discuss'
p1963
I1
sS'permissions'
p1964
I1
sS'taishan'
p1965
I1
sS'latinovoices'
p1966
I17
sS'newsfeeds'
p1967
I1
sS'university'
p1968
I1
sS'covering'
p1969
I1
sS'doppel'
p1970
I1
sS'quarter'
p1971
I1
sS'fired'
p1972
I1
sS'latin'
p1973
I4
sS'revised'
p1974
I1
sS'fr'
p1975
I1
sS'funds'
p1976
I1
sS'society'
p1977
I1
sS'measure'
p1978
I1
sS'eu'
p1979
I1
sS'special'
p1980
I2
sS'intended'
p1981
I1
sS'canada'
p1982
I18
sS'living'
p1983
I17
sS'jackson'
p1984
I1
sS'webcasts'
p1985
I1
sS'space'
p1986
I1
sS'house'
p1987
I3
sS'announces'
p1988
I11
sS'oklahoma'
p1989
I3
sS'unlawful'
p1990
I1
sS'increase'
p1991
I1
sS'miles'
p1992
I1
sS'internet'
p1993
I3
sS'math'
p1994
I1
sS'shows'
p1995
I11
sS'disclose'
p1996
I1
sS'eco'
p1997
I1
sS'cars'
p1998
I4
sS'million'
p1999
I4
sS'release'
p2000
I7
sS'regulators'
p2001
I1
sS'california'
p2002
I1
sS'rebel'
p2003
I1
sS'regulatory'
p2004
I1
sS'ipos'
p2005
I1
sS'care'
p2006
I3
sS'organic'
p2007
I1
sS'language'
p2008
I1
sS'spill'
p2009
I1
sS'florida'
p2010
I1
sS'british'
p2011
I1
sS'times'
p2012
I3
sS'initiate'
p2013
I1
sS'palaces'
p2014
I1
sS'swine'
p2015
I1
sS'davis'
p2016
I2
sS'retail'
p2017
I1
sS'museum'
p2018
I1
sS'berlusconi'
p2019
I1
sS'dec'
p2020
I1
sS'rothstein'
p2021
I25
sS'dounique'
p2022
I1
sS'revenue'
p2023
I1
sS'ihs'
p2024
I1
sS'shenyang'
p2025
I1
sS'americans'
p2026
I1
sS'ties'
p2027
I1
sS'message'
p2028
I2
sS'open'
p2029
I2
sS'size'
p2030
I1
sS'city'
p2031
I3
sS'management'
p2032
I4
sS'privacy'
p2033
I1
sS'prostate'
p2034
I2
sS'bite'
p2035
I1
sS'system'
p2036
I1
sS'relations'
p2037
I1
sS'response'
p2038
I1
sS'priority'
p2039
I1
sS'checker'
p2040
I2
sS'white'
p2041
I1
sS'friend'
p2042
I1
sS'mining'
p2043
I7
sS'stck'
p2044
I1
sS'releases'
p2045
I3
sS'season'
p2046
I1
sS'flexituff'
p2047
I1
sS'natural'
p2048
I3
sS'copy'
p2049
I1
sS'fhfa'
p2050
I1
sS'rss'
p2051
I2
sS'rmb'
p2052
I1
sS'warfare'
p2053
I1
sS'isolation'
p2054
I1
sS'patients'
p2055
I2
sS'future'
p2056
I1
sS'accountorfill'
p2057
I1
sS'malpractice'
p2058
I1
sS'fruits'
p2059
I1
sS'gays'
p2060
I1
sS'milsatcom'
p2061
I1
sS'providing'
p2062
I1
sS'browser'
p2063
I1
sS'cellulosic'
p2064
I1
sS'false'
p2065
I1
sS'showbiz'
p2066
I1
sS'investors'
p2067
I1
sS'topics'
p2068
I13
sS'tonight'
p2069
I1
sS'versandkosteninkl'
p2070
I1
sS'nazi'
p2071
I1
sS'lng'
p2072
I1
sS'pageinsightserror'
p2073
I3
sS'efficient'
p2074
I1
sS'shocked'
p2075
I1
sS'sciences'
p2076
I1
sS'advocates'
p2077
I1
sS'pivotal'
p2078
I1
sS'online'
p2079
I6
sS'autoradio'
p2080
I1
sS'worldwide'
p2081
I3
sS'multiple'
p2082
I2
sS'price'
p2083
I3
sS'nvidia'
p2084
I1
sS'visitors'
p2085
I1
sS'donation'
p2086
I1
sS'pages'
p2087
I18
sS'mortgage'
p2088
I2
sS'url'
p2089
I1
sS'seafood'
p2090
I1
sS'request'
p2091
I1
sS'sale'
p2092
I1
sS'whiteglove'
p2093
I1
sS'bret'
p2094
I1
sS'filing'
p2095
I1
sS'fact'
p2096
I2
sS'event'
p2097
I4
sS'autoradioblende'
p2098
I1
sS'shot'
p2099
I1
sS'show'
p2100
I5
sS'text'
p2101
I1
sS'supported'
p2102
I1
sS'longevity'
p2103
I1
sS'troy'
p2104
I19
sS'colombo'
p2105
I1
sS'tire'
p2106
I1
sS'corner'
p2107
I1
sS'debate'
p2108
I2
sS'forex'
p2109
I1
sS'foreclosure'
p2110
I1
sS'gulf'
p2111
I2
sS'mumbai'
p2112
I1
sS'skits'
p2113
I1
sS'crime'
p2114
I17
sS'candidates'
p2115
I1
sS'developed'
p2116
I1
sS'employee'
p2117
I1
sS'local'
p2118
I21
sS'awareness'
p2119
I1
sS'carolina'
p2120
I2
sS'dodge'
p2121
I1
sS'contracts'
p2122
I1
sS'merkel'
p2123
I1
sS'hifi'
p2124
I1
sS'made'
p2125
I1
sS'words'
p2126
I1
sS'years'
p2127
I3
sS'areas'
p2128
I1
sS'prime'
p2129
I1
sS'unauthorized'
p2130
I1
sS'floods'
p2131
I1
sS'gbk'
p2132
I1
sS'morning'
p2133
I1
sS'isclosed'
p2134
I1
sS'yellow'
p2135
I17
sS'ohio'
p2136
I1
sS'discussing'
p2137
I1
sS'bulgaria'
p2138
I1
sS'reveals'
p2139
I1
sS'lasers'
p2140
I1
sS'national'
p2141
I10
sS'salmon'
p2142
I1
sS'seat'
p2143
I1
sS'connections'
p2144
I1
sS'elected'
p2145
I1
sS'computer'
p2146
I1
sS'college'
p2147
I17
sS'greece'
p2148
I1
sS'surgery'
p2149
I1
sS'sport'
p2150
I1
sS'battery'
p2151
I1
sS'registering'
p2152
I1
sS'federal'
p2153
I1
sS'nuclear'
p2154
I5
sS'review'
p2155
I2
sS'sites'
p2156
I1
sS'state'
p2157
I5
sS'crude'
p2158
I2
sS'import'
p2159
I1
sS'overthrown'
p2160
I1
sS'email'
p2161
I3
sS'keynote'
p2162
I1
sS'infrastructure'
p2163
I1
sS'jobs'
p2164
I9
sS'august'
p2165
I2
sS'contentcopyright'
p2166
I1
sS'court'
p2167
I1
sS'efficiency'
p2168
I1
sS'twitterwill'
p2169
I1
sS'volcker'
p2170
I1
sS'key'
p2171
I1
sS'article'
p2172
I1
sS'cities'
p2173
I2
sS'lawsuit'
p2174
I1
sS'distribution'
p2175
I1
sS'libya'
p2176
I1
sS'plugin'
p2177
I2
sS'trader'
p2178
I1
sS'drug'
p2179
I3
sS'berry'
p2180
I1
sS'picturesin'
p2181
I1
sS'bronx'
p2182
I1
sS'comment'
p2183
I3
sS'pakistan'
p2184
I1
sS'english'
p2185
I1
sS'googlebot'
p2186
I1
sS'innovations'
p2187
I2
sS'subscribe'
p2188
I2
sS'pct'
p2189
I1
sS'learning'
p2190
I1
sS'poll'
p2191
I3
sS'silvio'
p2192
I1
sS'addition'
p2193
I1
sS'west'
p2194
I10
sS'carey'
p2195
I1
sS'mark'
p2196
I1
sS'subscriber'
p2197
I1
sS'inhalt'
p2198
I1
sS'reuters'
p2199
I1
sS'elects'
p2200
I1
sS'tv'
p2201
I19
sS'waste'
p2202
I1
sS'zzgl'
p2203
I1
sS'sclc'
p2204
I1
sS'photos'
p2205
I4
sS'geothermal'
p2206
I2
sS'bmw'
p2207
I1
sS'smoking'
p2208
I1
sS'spain'
p2209
I1
sS'case'
p2210
I1
sS'homes'
p2211
I1
sS'valero'
p2212
I1
sS'salman'
p2213
I1
sS'podcasts'
p2214
I1
sS'offbeat'
p2215
I1
sS'rbi'
p2216
I1
sS'voanews'
p2217
I1
sS'accuser'
p2218
I1
sS'conferences'
p2219
I5
sS'commentcharacters'
p2220
I1
sS'hardware'
p2221
I1
sS'middle'
p2222
I5
sS'vw'
p2223
I1
sS'technology'
p2224
I5
sS'finance'
p2225
I1
sS'terrorist'
p2226
I1
sS'generic'
p2227
I1
sS'radiation'
p2228
I1
sS'cross'
p2229
I1
sS'tripoli'
p2230
I1
sS'archive'
p2231
I1
sS'member'
p2232
I2
sS'parts'
p2233
I1
sS'speech'
p2234
I1
sS'largest'
p2235
I4
sS'party'
p2236
I5
sS'terrorism'
p2237
I2
sS'pak'
p2238
I1
sS'events'
p2239
I15
sS'breakdown'
p2240
I1
sS'tighten'
p2241
I1
sS'oil'
p2242
I5
sS'http'
p2243
I4
sS'receiver'
p2244
I1
sS'driver'
p2245
I1
sS'drives'
p2246
I1
sS'romeo'
p2247
I1
sS'advertisement'
p2248
I1
sS'changing'
p2249
I1
sS'afghan'
p2250
I1
sS'login'
p2251
I1
sS'renewable'
p2252
I1
sS'doubtful'
p2253
I1
sS'rift'
p2254
I1
sS'newsletter'
p2255
I1
sS'writechatdiv'
p2256
I1
sS'customized'
p2257
I3
sS'thought'
p2258
I1
sS'relief'
p2259
I1
sS'sets'
p2260
I1
sS'bodies'
p2261
I1
sS'latest'
p2262
I5
sS'load'
p2263
I1
sS'yanji'
p2264
I1
sS'subscribers'
p2265
I2
sS'motionmakers'
p2266
I1
sS'brisbane'
p2267
I1
sS'money'
p2268
I1
sS'sights'
p2269
I1
sS'gavin'
p2270
I1
sS'paul'
p2271
I1
sS'binladin'
p2272
I1
sS'captured'
p2273
I1
sS'rover'
p2274
I1
sS'death'
p2275
I1
sS'application'
p2276
I1
sS'residential'
p2277
I1
sS'sky'
p2278
I1
sS'lake'
p2279
I1
sS'geological'
p2280
I1
sS'blog'
p2281
I17
sS'jiuzhaigou'
p2282
I1
sS'add'
p2283
I2
sS'bioenergy'
p2284
I1
sS'perth'
p2285
I1
sS'association'
p2286
I1
sS'supergrid'
p2287
I1
sS'somali'
p2288
I1
sS'usage'
p2289
I1
sS'poised'
p2290
I1
sS'smart'
p2291
I1
sS'real'
p2292
I19
sS'articles'
p2293
I1
sS'rules'
p2294
I1
sS'mediacorp'
p2295
I1
sS'delhi'
p2296
I1
sS'early'
p2297
I1
sS'dari'
p2298
I1
sS'huffpost'
p2299
I17
sS'schedules'
p2300
I1
sS'execution'
p2301
I1
sS'recipient'
p2302
I1
sS'daewoo'
p2303
I1
sS'prominent'
p2304
I1
sS'loss'
p2305
I1
sS'helpful'
p2306
I1
sS'nissan'
p2307
I2
sS'michael'
p2308
I2
sS'audience'
p2309
I1
sS'hosts'
p2310
I1
sS'clay'
p2311
I1
sS'resolved'
p2312
I1
sS'output'
p2313
I2
sS'page'
p2314
I23
sS'italian'
p2315
I1
sS'shirky'
p2316
I1
sS'twitter'
p2317
I3
sS'linux'
p2318
I1
sS'pacific'
p2319
I1
sS'growth'
p2320
I1
sS'home'
p2321
I22
sS'transport'
p2322
I3
sS'provided'
p2323
I1
sS'versandkostenalfa'
p2324
I1
sS'lead'
p2325
I1
sS'confirm'
p2326
I1
sS'blackstone'
p2327
I1
sS'ubs'
p2328
I1
sS'pashto'
p2329
I1
sS'legal'
p2330
I3
sS'zimbabwe'
p2331
I1
sS'moderated'
p2332
I1
sS'deficit'
p2333
I1
sS'provider'
p2334
I2
sS'warned'
p2335
I1
sS'leader'
p2336
I1
sS'pr'
p2337
I22
sS'assembly'
p2338
I1
sS'sixth'
p2339
I1
sS'dictators'
p2340
I1
sS'utilities'
p2341
I1
sS'paper'
p2342
I1
sS'science'
p2343
I1
sS'baffled'
p2344
I1
sS'stations'
p2345
I1
sS'island'
p2346
I1
sS'introduces'
p2347
I1
sS'seeds'
p2348
I1
sS'wobble'
p2349
I1
sS'pressrelease'
p2350
I3
sS'clooney'
p2351
I17
sS'newsworld'
p2352
I25
sS'software'
p2353
I1
sS'outlook'
p2354
I2
sS'burning'
p2355
I1
sS'communication'
p2356
I1
sS'image'
p2357
I1
sS'washington'
p2358
I5
sS'commitment'
p2359
I1
sS'vigil'
p2360
I1
sS'weather'
p2361
I2
sS'lung'
p2362
I1
sS'female'
p2363
I1
sS'parties'
p2364
I2
sS'england'
p2365
I1
sS'pirates'
p2366
I1
sS'pharmaceutical'
p2367
I1
sS'boost'
p2368
I2
sS'log'
p2369
I3
sS'area'
p2370
I1
sS'housing'
p2371
I1
sS'alleged'
p2372
I1
sS'low'
p2373
I1
sS'brazilian'
p2374
I1
sS'var'
p2375
I1
sS'prepares'
p2376
I1
sS'autoradios'
p2377
I1
sS'function'
p2378
I1
sS'ago'
p2379
I1
sS'tycoon'
p2380
I1
sS'buy'
p2381
I1
sS'north'
p2382
I36
sS'complete'
p2383
I2
sS'bus'
p2384
I1
sS'webinar'
p2385
I3
sS'pericom'
p2386
I1
sS'barack'
p2387
I1
sS'mwst'
p2388
I1
sS'podcast'
p2389
I1
sS'hd'
p2390
I1
sS'fraud'
p2391
I1
sS'record'
p2392
I1
sS'stories'
p2393
I20
sS'emissions'
p2394
I1
sS'site'
p2395
I4
sS'chidambaram'
p2396
I1
sS'pm'
p2397
I3
sS'minutes'
p2398
I2
sS'agree'
p2399
I1
sS'stylelist'
p2400
I17
sS'ab'
p2401
I1
sS'motionmakerbecome'
p2402
I1
sS'ad'
p2403
I2
sS'videos'
p2404
I2
sS'youtube'
p2405
I1
sS'htmllink'
p2406
I1
sS'romney'
p2407
I1
sS'sales'
p2408
I2
sS'general'
p2409
I2
sS'resumption'
p2410
I1
sS'ap'
p2411
I1
sS'replica'
p2412
I1
sS'rule'
p2413
I1
sS'file'
p2414
I1
sS'education'
p2415
I19
sS'hospitals'
p2416
I1
sS'dawn'
p2417
I1
sS'film'
p2418
I1
sS'motionmaker'
p2419
I1
sS'trials'
p2420
I1
sS'blinded'
p2421
I1
sS'lunar'
p2422
I1
sS'details'
p2423
I2
sS'stumps'
p2424
I1
sS'repeat'
p2425
I1
sS'congress'
p2426
I1
sS'separate'
p2427
I1
sS'rallies'
p2428
I1
sS'june'
p2429
I1
sS'coverage'
p2430
I8
sS'stocks'
p2431
I2
sS'friends'
p2432
I22
sS'invest'
p2433
I2
sS'blogs'
p2434
I4
sS'cpc'
p2435
I1
sS'radioadapter'
p2436
I1
sS'websites'
p2437
I4
sS'minister'
p2438
I1
stp2439
Rp2440
sg1025
I2055
sg1026
F4225.5
sbssS'_label_probdist'
p2441
g0
(g14
g2
Ntp2442
Rp2443
(dp2444
g18
F0.5
sg19
I5577
sg20
g21
((dp2445
g8
I3198
sg9
I2379
stp2446
Rp2447
sg1025
I2
sg1026
F5578.0
sbsb.